ARM GAS  C:\Users\cruiser\AppData\Local\Temp\ccyzYkcr.s 			page 1


   1              		.syntax unified
   2              		.cpu cortex-m3
   3              		.fpu softvfp
   4              		.eabi_attribute 20, 1
   5              		.eabi_attribute 21, 1
   6              		.eabi_attribute 23, 3
   7              		.eabi_attribute 24, 1
   8              		.eabi_attribute 25, 1
   9              		.eabi_attribute 26, 1
  10              		.eabi_attribute 30, 1
  11              		.eabi_attribute 34, 1
  12              		.eabi_attribute 18, 4
  13              		.thumb
  14              		.file	"main.c"
  15              		.text
  16              	.Ltext0:
  17              		.cfi_sections	.debug_frame
  18              		.section	.text.isr_1_routine,"ax",%progbits
  19              		.align	2
  20              		.global	isr_1_routine
  21              		.thumb
  22              		.thumb_func
  23              		.type	isr_1_routine, %function
  24              	isr_1_routine:
  25              	.LFB65:
  26              		.file 1 ".\\main.c"
   1:.\main.c      **** /* ========================================
   2:.\main.c      ****  *
   3:.\main.c      ****  * Copyright YOUR COMPANY, THE YEAR
   4:.\main.c      ****  * All Rights Reserved
   5:.\main.c      ****  * UNPUBLISHED, LICENSED SOFTWARE.
   6:.\main.c      ****  *
   7:.\main.c      ****  * CONFIDENTIAL AND PROPRIETARY INFORMATION
   8:.\main.c      ****  * WHICH IS THE PROPERTY OF your company.
   9:.\main.c      ****  *
  10:.\main.c      ****  * ========================================
  11:.\main.c      **** */
  12:.\main.c      **** #include <project.h>
  13:.\main.c      **** 
  14:.\main.c      **** uint32 buffer[128];
  15:.\main.c      **** uint32 adcmem[2] = {0,0};
  16:.\main.c      **** uint8 i2cbuf[4] = {0,0,0,0};
  17:.\main.c      **** 
  18:.\main.c      **** void DMA_RAM2VDAC_Config() {
  19:.\main.c      ****     /* Defines for DMA_RAM2DAC */
  20:.\main.c      ****     #define DMA_RAM2DAC_BYTES_PER_BURST 2
  21:.\main.c      ****     #define DMA_RAM2DAC_REQUEST_PER_BURST 1
  22:.\main.c      ****     #define DMA_RAM2DAC_SRC_BASE (CYDEV_SRAM_BASE)
  23:.\main.c      ****     #define DMA_RAM2DAC_DST_BASE (CYDEV_PERIPH_BASE)
  24:.\main.c      **** 
  25:.\main.c      ****     /* Variable declarations for DMA_RAM2DAC */
  26:.\main.c      ****     /* Move these variable declarations to the top of the function */
  27:.\main.c      ****     uint8 DMA_RAM2DAC_Chan;
  28:.\main.c      ****     uint8 DMA_RAM2DAC_TD[2];
  29:.\main.c      **** 
  30:.\main.c      ****     /* DMA Configuration for DMA_RAM2DAC */
  31:.\main.c      ****     DMA_RAM2DAC_Chan = DMA_RAM2DAC_DmaInitialize(DMA_RAM2DAC_BYTES_PER_BURST, DMA_RAM2DAC_REQUEST_P
ARM GAS  C:\Users\cruiser\AppData\Local\Temp\ccyzYkcr.s 			page 2


  32:.\main.c      ****         HI16(DMA_RAM2DAC_SRC_BASE), HI16(DMA_RAM2DAC_DST_BASE));
  33:.\main.c      ****     DMA_RAM2DAC_TD[0] = CyDmaTdAllocate();
  34:.\main.c      ****     DMA_RAM2DAC_TD[1] = CyDmaTdAllocate();
  35:.\main.c      ****     CyDmaTdSetConfiguration(DMA_RAM2DAC_TD[0], 2, DMA_RAM2DAC_TD[1], TD_AUTO_EXEC_NEXT);
  36:.\main.c      ****     CyDmaTdSetConfiguration(DMA_RAM2DAC_TD[1], 1, DMA_RAM2DAC_TD[0], DMA_RAM2DAC__TD_TERMOUT_EN);
  37:.\main.c      ****     CyDmaTdSetAddress(DMA_RAM2DAC_TD[0], LO16((uint32)&buffer[63]), LO16((uint32)VDACH_Data_PTR));
  38:.\main.c      ****     CyDmaTdSetAddress(DMA_RAM2DAC_TD[1], LO16((uint32)&buffer[63]), LO16((uint32)VDACL_Data_PTR));
  39:.\main.c      ****     CyDmaChSetInitialTd(DMA_RAM2DAC_Chan, DMA_RAM2DAC_TD[0]);
  40:.\main.c      ****     CyDmaChEnable(DMA_RAM2DAC_Chan, 1);
  41:.\main.c      **** }
  42:.\main.c      **** 
  43:.\main.c      **** void DMA_FILT2RAM_Config() {
  44:.\main.c      ****     /* Defines for DMA_FILT2RAM */
  45:.\main.c      ****     #define DMA_FILT2RAM_BYTES_PER_BURST 4
  46:.\main.c      ****     #define DMA_FILT2RAM_REQUEST_PER_BURST 1
  47:.\main.c      ****     #define DMA_FILT2RAM_SRC_BASE (CYDEV_PERIPH_BASE)
  48:.\main.c      ****     #define DMA_FILT2RAM_DST_BASE (CYDEV_SRAM_BASE)
  49:.\main.c      **** 
  50:.\main.c      ****     /* Variable declarations for DMA_FILT2RAM */
  51:.\main.c      ****     /* Move these variable declarations to the top of the function */
  52:.\main.c      ****     uint8 DMA_FILT2RAM_Chan;
  53:.\main.c      ****     uint8 DMA_FILT2RAM_TD[1];
  54:.\main.c      **** 
  55:.\main.c      ****     /* DMA Configuration for DMA_FILT2RAM */
  56:.\main.c      ****     DMA_FILT2RAM_Chan = DMA_FILT2RAM_DmaInitialize(DMA_FILT2RAM_BYTES_PER_BURST, DMA_FILT2RAM_REQUE
  57:.\main.c      ****         HI16(DMA_FILT2RAM_SRC_BASE), HI16(DMA_FILT2RAM_DST_BASE));
  58:.\main.c      ****     DMA_FILT2RAM_TD[0] = CyDmaTdAllocate();
  59:.\main.c      ****     CyDmaTdSetConfiguration(DMA_FILT2RAM_TD[0], 256, DMA_FILT2RAM_TD[0], DMA_FILT2RAM__TD_TERMOUT_E
  60:.\main.c      ****     CyDmaTdSetAddress(DMA_FILT2RAM_TD[0], LO16((uint32)Filter_HOLDA_PTR), LO16((uint32)buffer));
  61:.\main.c      ****     CyDmaChSetInitialTd(DMA_FILT2RAM_Chan, DMA_FILT2RAM_TD[0]);
  62:.\main.c      ****     CyDmaChEnable(DMA_FILT2RAM_Chan, 1);
  63:.\main.c      **** }
  64:.\main.c      **** 
  65:.\main.c      **** CY_ISR( isr_1_routine ) {
  27              		.loc 1 65 0
  28              		.cfi_startproc
  29              		@ args = 0, pretend = 0, frame = 0
  30              		@ frame_needed = 0, uses_anonymous_args = 0
  31 0000 10B5     		push	{r4, lr}
  32              		.cfi_def_cfa_offset 8
  33              		.cfi_offset 4, -8
  34              		.cfi_offset 14, -4
  66:.\main.c      ****     i2cbuf[0] = 0;
  35              		.loc 1 66 0
  36 0002 0F4B     		ldr	r3, .L3
  37 0004 0022     		movs	r2, #0
  38 0006 1A70     		strb	r2, [r3]
  67:.\main.c      ****     i2cbuf[1] = buffer[24] >> 16;
  39              		.loc 1 67 0
  40 0008 0E4C     		ldr	r4, .L3+4
  41 000a 226E     		ldr	r2, [r4, #96]
  42 000c 110C     		lsrs	r1, r2, #16
  43 000e 5970     		strb	r1, [r3, #1]
  68:.\main.c      ****     i2cbuf[2] = buffer[24] >> 8;
  44              		.loc 1 68 0
  45 0010 110A     		lsrs	r1, r2, #8
  46 0012 9970     		strb	r1, [r3, #2]
ARM GAS  C:\Users\cruiser\AppData\Local\Temp\ccyzYkcr.s 			page 3


  69:.\main.c      ****     i2cbuf[3] = buffer[24];
  47              		.loc 1 69 0
  48 0014 DA70     		strb	r2, [r3, #3]
  70:.\main.c      ****     VDACH_SetValue(buffer[127] >> 12);
  49              		.loc 1 70 0
  50 0016 D4F8FC01 		ldr	r0, [r4, #508]
  51 001a C0F30730 		ubfx	r0, r0, #12, #8
  52 001e FFF7FEFF 		bl	VDACH_SetValue
  53              	.LVL0:
  71:.\main.c      ****     VDACL_SetValue(buffer[127] >> 4);
  54              		.loc 1 71 0
  55 0022 D4F8FC01 		ldr	r0, [r4, #508]
  56 0026 C0F30710 		ubfx	r0, r0, #4, #8
  57 002a FFF7FEFF 		bl	VDACL_SetValue
  58              	.LVL1:
  72:.\main.c      ****     Pin_Status_1_Write(!Pin_Status_1_Read());
  59              		.loc 1 72 0
  60 002e FFF7FEFF 		bl	Pin_Status_1_Read
  61              	.LVL2:
  62 0032 B0FA80F0 		clz	r0, r0
  63 0036 4009     		lsrs	r0, r0, #5
  64 0038 FFF7FEFF 		bl	Pin_Status_1_Write
  65              	.LVL3:
  66 003c 10BD     		pop	{r4, pc}
  67              	.L4:
  68 003e 00BF     		.align	2
  69              	.L3:
  70 0040 00000000 		.word	.LANCHOR0
  71 0044 00000000 		.word	buffer
  72              		.cfi_endproc
  73              	.LFE65:
  74              		.size	isr_1_routine, .-isr_1_routine
  75              		.section	.text.DMA_RAM2VDAC_Config,"ax",%progbits
  76              		.align	2
  77              		.global	DMA_RAM2VDAC_Config
  78              		.thumb
  79              		.thumb_func
  80              		.type	DMA_RAM2VDAC_Config, %function
  81              	DMA_RAM2VDAC_Config:
  82              	.LFB63:
  18:.\main.c      ****     /* Defines for DMA_RAM2DAC */
  83              		.loc 1 18 0
  84              		.cfi_startproc
  85              		@ args = 0, pretend = 0, frame = 0
  86              		@ frame_needed = 0, uses_anonymous_args = 0
  87 0000 F8B5     		push	{r3, r4, r5, r6, r7, lr}
  88              		.cfi_def_cfa_offset 24
  89              		.cfi_offset 3, -24
  90              		.cfi_offset 4, -20
  91              		.cfi_offset 5, -16
  92              		.cfi_offset 6, -12
  93              		.cfi_offset 7, -8
  94              		.cfi_offset 14, -4
  31:.\main.c      ****         HI16(DMA_RAM2DAC_SRC_BASE), HI16(DMA_RAM2DAC_DST_BASE));
  95              		.loc 1 31 0
  96 0002 0220     		movs	r0, #2
  97 0004 0121     		movs	r1, #1
ARM GAS  C:\Users\cruiser\AppData\Local\Temp\ccyzYkcr.s 			page 4


  98 0006 41F6FF72 		movw	r2, #8191
  99 000a 4FF48043 		mov	r3, #16384
 100 000e FFF7FEFF 		bl	DMA_RAM2DAC_DmaInitialize
 101              	.LVL4:
 102 0012 0746     		mov	r7, r0
 103              	.LVL5:
  33:.\main.c      ****     DMA_RAM2DAC_TD[1] = CyDmaTdAllocate();
 104              		.loc 1 33 0
 105 0014 FFF7FEFF 		bl	CyDmaTdAllocate
 106              	.LVL6:
 107 0018 0446     		mov	r4, r0
  34:.\main.c      ****     CyDmaTdSetConfiguration(DMA_RAM2DAC_TD[0], 2, DMA_RAM2DAC_TD[1], TD_AUTO_EXEC_NEXT);
 108              		.loc 1 34 0
 109 001a FFF7FEFF 		bl	CyDmaTdAllocate
 110              	.LVL7:
 111 001e 0646     		mov	r6, r0
  35:.\main.c      ****     CyDmaTdSetConfiguration(DMA_RAM2DAC_TD[1], 1, DMA_RAM2DAC_TD[0], DMA_RAM2DAC__TD_TERMOUT_EN);
 112              		.loc 1 35 0
 113 0020 2046     		mov	r0, r4
 114 0022 0221     		movs	r1, #2
 115 0024 3246     		mov	r2, r6
 116 0026 2023     		movs	r3, #32
 117 0028 FFF7FEFF 		bl	CyDmaTdSetConfiguration
 118              	.LVL8:
  36:.\main.c      ****     CyDmaTdSetAddress(DMA_RAM2DAC_TD[0], LO16((uint32)&buffer[63]), LO16((uint32)VDACH_Data_PTR));
 119              		.loc 1 36 0
 120 002c 3046     		mov	r0, r6
 121 002e 0121     		movs	r1, #1
 122 0030 2246     		mov	r2, r4
 123 0032 0023     		movs	r3, #0
 124 0034 FFF7FEFF 		bl	CyDmaTdSetConfiguration
 125              	.LVL9:
  37:.\main.c      ****     CyDmaTdSetAddress(DMA_RAM2DAC_TD[1], LO16((uint32)&buffer[63]), LO16((uint32)VDACL_Data_PTR));
 126              		.loc 1 37 0
 127 0038 0B4D     		ldr	r5, .L7
 128 003a ADB2     		uxth	r5, r5
 129 003c 2046     		mov	r0, r4
 130 003e 2946     		mov	r1, r5
 131 0040 45F68332 		movw	r2, #23427
 132 0044 FFF7FEFF 		bl	CyDmaTdSetAddress
 133              	.LVL10:
  38:.\main.c      ****     CyDmaChSetInitialTd(DMA_RAM2DAC_Chan, DMA_RAM2DAC_TD[0]);
 134              		.loc 1 38 0
 135 0048 3046     		mov	r0, r6
 136 004a 2946     		mov	r1, r5
 137 004c 45F68132 		movw	r2, #23425
 138 0050 FFF7FEFF 		bl	CyDmaTdSetAddress
 139              	.LVL11:
  39:.\main.c      ****     CyDmaChEnable(DMA_RAM2DAC_Chan, 1);
 140              		.loc 1 39 0
 141 0054 3846     		mov	r0, r7
 142 0056 2146     		mov	r1, r4
 143 0058 FFF7FEFF 		bl	CyDmaChSetInitialTd
 144              	.LVL12:
  40:.\main.c      **** }
 145              		.loc 1 40 0
 146 005c 3846     		mov	r0, r7
ARM GAS  C:\Users\cruiser\AppData\Local\Temp\ccyzYkcr.s 			page 5


 147 005e 0121     		movs	r1, #1
 148 0060 FFF7FEFF 		bl	CyDmaChEnable
 149              	.LVL13:
 150 0064 F8BD     		pop	{r3, r4, r5, r6, r7, pc}
 151              	.LVL14:
 152              	.L8:
 153 0066 00BF     		.align	2
 154              	.L7:
 155 0068 FC000000 		.word	buffer+252
 156              		.cfi_endproc
 157              	.LFE63:
 158              		.size	DMA_RAM2VDAC_Config, .-DMA_RAM2VDAC_Config
 159              		.section	.text.DMA_FILT2RAM_Config,"ax",%progbits
 160              		.align	2
 161              		.global	DMA_FILT2RAM_Config
 162              		.thumb
 163              		.thumb_func
 164              		.type	DMA_FILT2RAM_Config, %function
 165              	DMA_FILT2RAM_Config:
 166              	.LFB64:
  43:.\main.c      ****     /* Defines for DMA_FILT2RAM */
 167              		.loc 1 43 0
 168              		.cfi_startproc
 169              		@ args = 0, pretend = 0, frame = 0
 170              		@ frame_needed = 0, uses_anonymous_args = 0
 171 0000 38B5     		push	{r3, r4, r5, lr}
 172              		.cfi_def_cfa_offset 16
 173              		.cfi_offset 3, -16
 174              		.cfi_offset 4, -12
 175              		.cfi_offset 5, -8
 176              		.cfi_offset 14, -4
  56:.\main.c      ****         HI16(DMA_FILT2RAM_SRC_BASE), HI16(DMA_FILT2RAM_DST_BASE));
 177              		.loc 1 56 0
 178 0002 0420     		movs	r0, #4
 179 0004 0121     		movs	r1, #1
 180 0006 4FF48042 		mov	r2, #16384
 181 000a 41F6FF73 		movw	r3, #8191
 182 000e FFF7FEFF 		bl	DMA_FILT2RAM_DmaInitialize
 183              	.LVL15:
 184 0012 0546     		mov	r5, r0
 185              	.LVL16:
  58:.\main.c      ****     CyDmaTdSetConfiguration(DMA_FILT2RAM_TD[0], 256, DMA_FILT2RAM_TD[0], DMA_FILT2RAM__TD_TERMOUT_E
 186              		.loc 1 58 0
 187 0014 FFF7FEFF 		bl	CyDmaTdAllocate
 188              	.LVL17:
 189 0018 0446     		mov	r4, r0
  59:.\main.c      ****     CyDmaTdSetAddress(DMA_FILT2RAM_TD[0], LO16((uint32)Filter_HOLDA_PTR), LO16((uint32)buffer));
 190              		.loc 1 59 0
 191 001a 4FF48071 		mov	r1, #256
 192 001e 0246     		mov	r2, r0
 193 0020 0623     		movs	r3, #6
 194 0022 FFF7FEFF 		bl	CyDmaTdSetConfiguration
 195              	.LVL18:
  60:.\main.c      ****     CyDmaChSetInitialTd(DMA_FILT2RAM_Chan, DMA_FILT2RAM_TD[0]);
 196              		.loc 1 60 0
 197 0026 2046     		mov	r0, r4
 198 0028 4CF2A871 		movw	r1, #51112
ARM GAS  C:\Users\cruiser\AppData\Local\Temp\ccyzYkcr.s 			page 6


 199 002c 064A     		ldr	r2, .L11
 200 002e 92B2     		uxth	r2, r2
 201 0030 FFF7FEFF 		bl	CyDmaTdSetAddress
 202              	.LVL19:
  61:.\main.c      ****     CyDmaChEnable(DMA_FILT2RAM_Chan, 1);
 203              		.loc 1 61 0
 204 0034 2846     		mov	r0, r5
 205 0036 2146     		mov	r1, r4
 206 0038 FFF7FEFF 		bl	CyDmaChSetInitialTd
 207              	.LVL20:
  62:.\main.c      **** }
 208              		.loc 1 62 0
 209 003c 2846     		mov	r0, r5
 210 003e 0121     		movs	r1, #1
 211 0040 FFF7FEFF 		bl	CyDmaChEnable
 212              	.LVL21:
 213 0044 38BD     		pop	{r3, r4, r5, pc}
 214              	.LVL22:
 215              	.L12:
 216 0046 00BF     		.align	2
 217              	.L11:
 218 0048 00000000 		.word	buffer
 219              		.cfi_endproc
 220              	.LFE64:
 221              		.size	DMA_FILT2RAM_Config, .-DMA_FILT2RAM_Config
 222              		.section	.text.DMA_ADC2FILT_Config,"ax",%progbits
 223              		.align	2
 224              		.global	DMA_ADC2FILT_Config
 225              		.thumb
 226              		.thumb_func
 227              		.type	DMA_ADC2FILT_Config, %function
 228              	DMA_ADC2FILT_Config:
 229              	.LFB66:
  73:.\main.c      ****     
  74:.\main.c      **** }
  75:.\main.c      **** 
  76:.\main.c      **** void DMA_ADC2FILT_Config() {
 230              		.loc 1 76 0
 231              		.cfi_startproc
 232              		@ args = 0, pretend = 0, frame = 0
 233              		@ frame_needed = 0, uses_anonymous_args = 0
 234 0000 38B5     		push	{r3, r4, r5, lr}
 235              		.cfi_def_cfa_offset 16
 236              		.cfi_offset 3, -16
 237              		.cfi_offset 4, -12
 238              		.cfi_offset 5, -8
 239              		.cfi_offset 14, -4
  77:.\main.c      ****     /* Defines for DMA_ADC2FILT */
  78:.\main.c      ****     #define DMA_ADC2FILT_BYTES_PER_BURST 2
  79:.\main.c      ****     #define DMA_ADC2FILT_REQUEST_PER_BURST 1
  80:.\main.c      ****     #define DMA_ADC2FILT_SRC_BASE (CYDEV_PERIPH_BASE)
  81:.\main.c      ****     #define DMA_ADC2FILT_DST_BASE (CYDEV_PERIPH_BASE)
  82:.\main.c      **** 
  83:.\main.c      ****     /* Variable declarations for DMA_ADC2FILT */
  84:.\main.c      ****     /* Move these variable declarations to the top of the function */
  85:.\main.c      ****     uint8 DMA_ADC2FILT_Chan;
  86:.\main.c      ****     uint8 DMA_ADC2FILT_TD[1];
ARM GAS  C:\Users\cruiser\AppData\Local\Temp\ccyzYkcr.s 			page 7


  87:.\main.c      **** 
  88:.\main.c      ****     /* DMA Configuration for DMA_ADC2FILT */
  89:.\main.c      ****     DMA_ADC2FILT_Chan = DMA_ADC2FILT_DmaInitialize(DMA_ADC2FILT_BYTES_PER_BURST, DMA_ADC2FILT_REQUE
 240              		.loc 1 89 0
 241 0002 0220     		movs	r0, #2
 242 0004 0121     		movs	r1, #1
 243 0006 4FF48042 		mov	r2, #16384
 244 000a 1346     		mov	r3, r2
 245 000c FFF7FEFF 		bl	DMA_ADC2FILT_DmaInitialize
 246              	.LVL23:
 247 0010 0546     		mov	r5, r0
 248              	.LVL24:
  90:.\main.c      ****         HI16(DMA_ADC2FILT_SRC_BASE), HI16(DMA_ADC2FILT_DST_BASE));
  91:.\main.c      ****     DMA_ADC2FILT_TD[0] = CyDmaTdAllocate();
 249              		.loc 1 91 0
 250 0012 FFF7FEFF 		bl	CyDmaTdAllocate
 251              	.LVL25:
 252 0016 0446     		mov	r4, r0
  92:.\main.c      ****     CyDmaTdSetConfiguration(DMA_ADC2FILT_TD[0], 2, DMA_ADC2FILT_TD[0], DMA_ADC2FILT__TD_TERMOUT_EN 
 253              		.loc 1 92 0
 254 0018 0221     		movs	r1, #2
 255 001a 0246     		mov	r2, r0
 256 001c 0323     		movs	r3, #3
 257 001e FFF7FEFF 		bl	CyDmaTdSetConfiguration
 258              	.LVL26:
  93:.\main.c      ****     CyDmaTdSetAddress(DMA_ADC2FILT_TD[0], LO16((uint32)ADC_SAR_1_SAR_WRK0_PTR), LO16((uint32)Filter
 259              		.loc 1 93 0
 260 0022 2046     		mov	r0, r4
 261 0024 45F6A231 		movw	r1, #23458
 262 0028 4CF2A072 		movw	r2, #51104
 263 002c FFF7FEFF 		bl	CyDmaTdSetAddress
 264              	.LVL27:
  94:.\main.c      ****     CyDmaChSetInitialTd(DMA_ADC2FILT_Chan, DMA_ADC2FILT_TD[0]);
 265              		.loc 1 94 0
 266 0030 2846     		mov	r0, r5
 267 0032 2146     		mov	r1, r4
 268 0034 FFF7FEFF 		bl	CyDmaChSetInitialTd
 269              	.LVL28:
  95:.\main.c      ****     CyDmaChEnable(DMA_ADC2FILT_Chan, 1);
 270              		.loc 1 95 0
 271 0038 2846     		mov	r0, r5
 272 003a 0121     		movs	r1, #1
 273 003c FFF7FEFF 		bl	CyDmaChEnable
 274              	.LVL29:
 275 0040 38BD     		pop	{r3, r4, r5, pc}
 276              		.cfi_endproc
 277              	.LFE66:
 278              		.size	DMA_ADC2FILT_Config, .-DMA_ADC2FILT_Config
 279 0042 00BF     		.section	.text.DMA_ADC2RAM_Config,"ax",%progbits
 280              		.align	2
 281              		.global	DMA_ADC2RAM_Config
 282              		.thumb
 283              		.thumb_func
 284              		.type	DMA_ADC2RAM_Config, %function
 285              	DMA_ADC2RAM_Config:
 286              	.LFB67:
  96:.\main.c      ****   
ARM GAS  C:\Users\cruiser\AppData\Local\Temp\ccyzYkcr.s 			page 8


  97:.\main.c      **** }
  98:.\main.c      **** 
  99:.\main.c      **** void DMA_ADC2RAM_Config() {
 287              		.loc 1 99 0
 288              		.cfi_startproc
 289              		@ args = 0, pretend = 0, frame = 0
 290              		@ frame_needed = 0, uses_anonymous_args = 0
 291 0000 38B5     		push	{r3, r4, r5, lr}
 292              		.cfi_def_cfa_offset 16
 293              		.cfi_offset 3, -16
 294              		.cfi_offset 4, -12
 295              		.cfi_offset 5, -8
 296              		.cfi_offset 14, -4
 100:.\main.c      ****     /* Defines for DMA_ADC2RAM */
 101:.\main.c      ****     #define DMA_ADC2RAM_BYTES_PER_BURST 2
 102:.\main.c      ****     #define DMA_ADC2RAM_REQUEST_PER_BURST 1
 103:.\main.c      ****     #define DMA_ADC2RAM_SRC_BASE (CYDEV_PERIPH_BASE)
 104:.\main.c      ****     #define DMA_ADC2RAM_DST_BASE (CYDEV_SRAM_BASE)
 105:.\main.c      **** 
 106:.\main.c      ****     /* Variable declarations for DMA_ADC2RAM */
 107:.\main.c      ****     /* Move these variable declarations to the top of the function */
 108:.\main.c      ****     uint8 DMA_ADC2RAM_Chan;
 109:.\main.c      ****     uint8 DMA_ADC2RAM_TD[1];
 110:.\main.c      **** 
 111:.\main.c      ****     /* DMA Configuration for DMA_ADC2RAM */
 112:.\main.c      ****     DMA_ADC2RAM_Chan = DMA_ADC2RAM_DmaInitialize(DMA_ADC2RAM_BYTES_PER_BURST, DMA_ADC2RAM_REQUEST_P
 297              		.loc 1 112 0
 298 0002 0220     		movs	r0, #2
 299 0004 0121     		movs	r1, #1
 300 0006 4FF48042 		mov	r2, #16384
 301 000a 41F6FF73 		movw	r3, #8191
 302 000e FFF7FEFF 		bl	DMA_ADC2RAM_DmaInitialize
 303              	.LVL30:
 304 0012 0546     		mov	r5, r0
 305              	.LVL31:
 113:.\main.c      ****         HI16(DMA_ADC2RAM_SRC_BASE), HI16(DMA_ADC2RAM_DST_BASE));
 114:.\main.c      ****     DMA_ADC2RAM_TD[0] = CyDmaTdAllocate();
 306              		.loc 1 114 0
 307 0014 FFF7FEFF 		bl	CyDmaTdAllocate
 308              	.LVL32:
 309 0018 0446     		mov	r4, r0
 115:.\main.c      ****     CyDmaTdSetConfiguration(DMA_ADC2RAM_TD[0], 2, DMA_ADC2RAM_TD[0], DMA_ADC2RAM__TD_TERMOUT_EN | T
 310              		.loc 1 115 0
 311 001a 0221     		movs	r1, #2
 312 001c 0246     		mov	r2, r0
 313 001e 0623     		movs	r3, #6
 314 0020 FFF7FEFF 		bl	CyDmaTdSetConfiguration
 315              	.LVL33:
 116:.\main.c      ****     CyDmaTdSetAddress(DMA_ADC2RAM_TD[0], LO16((uint32)ADC_SAR_1_SAR_WRK0_PTR), LO16((uint32)adcmem)
 316              		.loc 1 116 0
 317 0024 2046     		mov	r0, r4
 318 0026 45F6A231 		movw	r1, #23458
 319 002a 064A     		ldr	r2, .L17
 320 002c 92B2     		uxth	r2, r2
 321 002e FFF7FEFF 		bl	CyDmaTdSetAddress
 322              	.LVL34:
 117:.\main.c      ****     CyDmaChSetInitialTd(DMA_ADC2RAM_Chan, DMA_ADC2RAM_TD[0]);
ARM GAS  C:\Users\cruiser\AppData\Local\Temp\ccyzYkcr.s 			page 9


 323              		.loc 1 117 0
 324 0032 2846     		mov	r0, r5
 325 0034 2146     		mov	r1, r4
 326 0036 FFF7FEFF 		bl	CyDmaChSetInitialTd
 327              	.LVL35:
 118:.\main.c      ****     CyDmaChEnable(DMA_ADC2RAM_Chan, 1);
 328              		.loc 1 118 0
 329 003a 2846     		mov	r0, r5
 330 003c 0121     		movs	r1, #1
 331 003e FFF7FEFF 		bl	CyDmaChEnable
 332              	.LVL36:
 333 0042 38BD     		pop	{r3, r4, r5, pc}
 334              	.LVL37:
 335              	.L18:
 336              		.align	2
 337              	.L17:
 338 0044 04000000 		.word	.LANCHOR0+4
 339              		.cfi_endproc
 340              	.LFE67:
 341              		.size	DMA_ADC2RAM_Config, .-DMA_ADC2RAM_Config
 342              		.section	.text.DMA_RAM2FILT_Config,"ax",%progbits
 343              		.align	2
 344              		.global	DMA_RAM2FILT_Config
 345              		.thumb
 346              		.thumb_func
 347              		.type	DMA_RAM2FILT_Config, %function
 348              	DMA_RAM2FILT_Config:
 349              	.LFB68:
 119:.\main.c      **** 
 120:.\main.c      **** }
 121:.\main.c      **** 
 122:.\main.c      **** void DMA_RAM2FILT_Config() {
 350              		.loc 1 122 0
 351              		.cfi_startproc
 352              		@ args = 0, pretend = 0, frame = 0
 353              		@ frame_needed = 0, uses_anonymous_args = 0
 354 0000 38B5     		push	{r3, r4, r5, lr}
 355              		.cfi_def_cfa_offset 16
 356              		.cfi_offset 3, -16
 357              		.cfi_offset 4, -12
 358              		.cfi_offset 5, -8
 359              		.cfi_offset 14, -4
 123:.\main.c      ****     /* Defines for DMA_RAM2FILT */
 124:.\main.c      ****     #define DMA_RAM2FILT_BYTES_PER_BURST 2
 125:.\main.c      ****     #define DMA_RAM2FILT_REQUEST_PER_BURST 1
 126:.\main.c      ****     #define DMA_RAM2FILT_SRC_BASE (CYDEV_SRAM_BASE)
 127:.\main.c      ****     #define DMA_RAM2FILT_DST_BASE (CYDEV_PERIPH_BASE)
 128:.\main.c      **** 
 129:.\main.c      ****     /* Variable declarations for DMA_RAM2FILT */
 130:.\main.c      ****     /* Move these variable declarations to the top of the function */
 131:.\main.c      ****     uint8 DMA_RAM2FILT_Chan;
 132:.\main.c      ****     uint8 DMA_RAM2FILT_TD[1];
 133:.\main.c      **** 
 134:.\main.c      ****     /* DMA Configuration for DMA_RAM2FILT */
 135:.\main.c      ****     DMA_RAM2FILT_Chan = DMA_RAM2FILT_DmaInitialize(DMA_RAM2FILT_BYTES_PER_BURST, DMA_RAM2FILT_REQUE
 360              		.loc 1 135 0
 361 0002 0220     		movs	r0, #2
ARM GAS  C:\Users\cruiser\AppData\Local\Temp\ccyzYkcr.s 			page 10


 362 0004 0121     		movs	r1, #1
 363 0006 41F6FF72 		movw	r2, #8191
 364 000a 4FF48043 		mov	r3, #16384
 365 000e FFF7FEFF 		bl	DMA_RAM2FILT_DmaInitialize
 366              	.LVL38:
 367 0012 0546     		mov	r5, r0
 368              	.LVL39:
 136:.\main.c      ****         HI16(DMA_RAM2FILT_SRC_BASE), HI16(DMA_RAM2FILT_DST_BASE));
 137:.\main.c      ****     DMA_RAM2FILT_TD[0] = CyDmaTdAllocate();
 369              		.loc 1 137 0
 370 0014 FFF7FEFF 		bl	CyDmaTdAllocate
 371              	.LVL40:
 372 0018 0446     		mov	r4, r0
 138:.\main.c      ****     CyDmaTdSetConfiguration(DMA_RAM2FILT_TD[0], 2, DMA_RAM2FILT_TD[0], DMA_RAM2FILT__TD_TERMOUT_EN 
 373              		.loc 1 138 0
 374 001a 0221     		movs	r1, #2
 375 001c 0246     		mov	r2, r0
 376 001e 0723     		movs	r3, #7
 377 0020 FFF7FEFF 		bl	CyDmaTdSetConfiguration
 378              	.LVL41:
 139:.\main.c      ****     CyDmaTdSetAddress(DMA_RAM2FILT_TD[0], LO16((uint32)adcmem) + 4, LO16((uint32)Filter_STAGEA_PTR)
 379              		.loc 1 139 0
 380 0024 2046     		mov	r0, r4
 381 0026 0749     		ldr	r1, .L21
 382 0028 89B2     		uxth	r1, r1
 383 002a 4CF2A072 		movw	r2, #51104
 384 002e FFF7FEFF 		bl	CyDmaTdSetAddress
 385              	.LVL42:
 140:.\main.c      ****     CyDmaChSetInitialTd(DMA_RAM2FILT_Chan, DMA_RAM2FILT_TD[0]);
 386              		.loc 1 140 0
 387 0032 2846     		mov	r0, r5
 388 0034 2146     		mov	r1, r4
 389 0036 FFF7FEFF 		bl	CyDmaChSetInitialTd
 390              	.LVL43:
 141:.\main.c      ****     CyDmaChEnable(DMA_RAM2FILT_Chan, 1);
 391              		.loc 1 141 0
 392 003a 2846     		mov	r0, r5
 393 003c 0121     		movs	r1, #1
 394 003e FFF7FEFF 		bl	CyDmaChEnable
 395              	.LVL44:
 396 0042 38BD     		pop	{r3, r4, r5, pc}
 397              	.LVL45:
 398              	.L22:
 399              		.align	2
 400              	.L21:
 401 0044 08000000 		.word	.LANCHOR0+8
 402              		.cfi_endproc
 403              	.LFE68:
 404              		.size	DMA_RAM2FILT_Config, .-DMA_RAM2FILT_Config
 405              		.section	.text.main,"ax",%progbits
 406              		.align	2
 407              		.global	main
 408              		.thumb
 409              		.thumb_func
 410              		.type	main, %function
 411              	main:
 412              	.LFB69:
ARM GAS  C:\Users\cruiser\AppData\Local\Temp\ccyzYkcr.s 			page 11


 142:.\main.c      **** 
 143:.\main.c      **** 
 144:.\main.c      **** }
 145:.\main.c      **** 
 146:.\main.c      **** int main() {
 413              		.loc 1 146 0
 414              		.cfi_startproc
 415              		@ args = 0, pretend = 0, frame = 0
 416              		@ frame_needed = 0, uses_anonymous_args = 0
 417 0000 08B5     		push	{r3, lr}
 418              		.cfi_def_cfa_offset 8
 419              		.cfi_offset 3, -8
 420              		.cfi_offset 14, -4
 147:.\main.c      ****     CyGlobalIntEnable; /* Enable global interrupts. */
 421              		.loc 1 147 0
 422              	@ 147 ".\main.c" 1
 423 0002 62B6     		CPSIE   i
 424              	@ 0 "" 2
 148:.\main.c      **** 
 149:.\main.c      ****     I2C_Start();
 425              		.loc 1 149 0
 426              		.thumb
 427 0004 FFF7FEFF 		bl	I2C_Start
 428              	.LVL46:
 150:.\main.c      ****     //TIA_1_Start();
 151:.\main.c      ****     //TIA_2_Start();
 152:.\main.c      ****     
 153:.\main.c      ****     ADC_SAR_1_Start();
 429              		.loc 1 153 0
 430 0008 FFF7FEFF 		bl	ADC_SAR_1_Start
 431              	.LVL47:
 154:.\main.c      ****     ADC_SAR_1_StartConvert();
 432              		.loc 1 154 0
 433 000c FFF7FEFF 		bl	ADC_SAR_1_StartConvert
 434              	.LVL48:
 155:.\main.c      ****     
 156:.\main.c      ****     Filter_Start();
 435              		.loc 1 156 0
 436 0010 FFF7FEFF 		bl	Filter_Start
 437              	.LVL49:
 157:.\main.c      ****     Filter_SetDalign(Filter_STAGEA_DALIGN, Filter_ENABLED);
 438              		.loc 1 157 0
 439 0014 0120     		movs	r0, #1
 440 0016 0146     		mov	r1, r0
 441 0018 FFF7FEFF 		bl	Filter_SetDalign
 442              	.LVL50:
 158:.\main.c      ****     //Filter_SetDalign(Filter_HOLDA_DALIGN, Filter_ENABLED);
 159:.\main.c      ****     //Filter_SetCoherency(Filter_CHANNEL_A, Filter_KEY_MID);
 160:.\main.c      ****     Filter_SetCoherencyEx(Filter_STAGEA_COHER, Filter_KEY_MID);
 443              		.loc 1 160 0
 444 001c 0320     		movs	r0, #3
 445 001e 0121     		movs	r1, #1
 446 0020 FFF7FEFF 		bl	Filter_SetCoherencyEx
 447              	.LVL51:
 161:.\main.c      ****     Filter_SetCoherencyEx(Filter_HOLDA_COHER, Filter_KEY_HIGH);
 448              		.loc 1 161 0
 449 0024 3020     		movs	r0, #48
ARM GAS  C:\Users\cruiser\AppData\Local\Temp\ccyzYkcr.s 			page 12


 450 0026 0221     		movs	r1, #2
 451 0028 FFF7FEFF 		bl	Filter_SetCoherencyEx
 452              	.LVL52:
 162:.\main.c      ****     
 163:.\main.c      ****     //IDACH_Start();
 164:.\main.c      ****     //IDACL_Start();
 165:.\main.c      ****     
 166:.\main.c      ****     VDACH_Start();
 453              		.loc 1 166 0
 454 002c FFF7FEFF 		bl	VDACH_Start
 455              	.LVL53:
 167:.\main.c      ****     VDACL_Start();
 456              		.loc 1 167 0
 457 0030 FFF7FEFF 		bl	VDACL_Start
 458              	.LVL54:
 168:.\main.c      ****     
 169:.\main.c      ****     
 170:.\main.c      ****     DMA_ADC2FILT_Config();
 459              		.loc 1 170 0
 460 0034 FFF7FEFF 		bl	DMA_ADC2FILT_Config
 461              	.LVL55:
 171:.\main.c      **** //    DMA_ADC2RAM_Config();
 172:.\main.c      **** //    DMA_RAM2FILT_Config();
 173:.\main.c      ****     
 174:.\main.c      ****     DMA_FILT2RAM_Config();
 462              		.loc 1 174 0
 463 0038 FFF7FEFF 		bl	DMA_FILT2RAM_Config
 464              	.LVL56:
 175:.\main.c      ****     ISR_DMA_FILT2RAM_StartEx(isr_1_routine);
 465              		.loc 1 175 0
 466 003c 0848     		ldr	r0, .L26
 467 003e FFF7FEFF 		bl	ISR_DMA_FILT2RAM_StartEx
 468              	.LVL57:
 176:.\main.c      ****     
 177:.\main.c      ****     //DMA_RAM2VDAC_Config();
 178:.\main.c      ****     
 179:.\main.c      ****     
 180:.\main.c      ****     i2cbuf[0] = 0;
 469              		.loc 1 180 0
 470 0042 084A     		ldr	r2, .L26+4
 471 0044 0023     		movs	r3, #0
 472 0046 1370     		strb	r3, [r2]
 181:.\main.c      ****     i2cbuf[1] = 0;
 473              		.loc 1 181 0
 474 0048 5370     		strb	r3, [r2, #1]
 182:.\main.c      ****     i2cbuf[2] = 0;
 475              		.loc 1 182 0
 476 004a 9370     		strb	r3, [r2, #2]
 183:.\main.c      ****     i2cbuf[3] = 0;
 477              		.loc 1 183 0
 478 004c D370     		strb	r3, [r2, #3]
 184:.\main.c      ****     
 185:.\main.c      ****     I2C_SetBuffer1(4, 4, i2cbuf);
 479              		.loc 1 185 0
 480 004e 0420     		movs	r0, #4
 481 0050 0146     		mov	r1, r0
 482 0052 FFF7FEFF 		bl	I2C_SetBuffer1
ARM GAS  C:\Users\cruiser\AppData\Local\Temp\ccyzYkcr.s 			page 13


 483              	.LVL58:
 484              	.L24:
 186:.\main.c      ****     
 187:.\main.c      ****     int adcvalue = 0;
 188:.\main.c      ****     long filtervalue = 0;
 189:.\main.c      ****     
 190:.\main.c      ****     for(;;)
 191:.\main.c      ****     {
 192:.\main.c      ****         if(ADC_SAR_1_IsEndConversion(ADC_SAR_1_WAIT_FOR_RESULT)){
 485              		.loc 1 192 0
 486 0056 0020     		movs	r0, #0
 487 0058 FFF7FEFF 		bl	ADC_SAR_1_IsEndConversion
 488              	.LVL59:
 193:.\main.c      **** //            adcvalue = ADC_SAR_1_GetResult16();
 194:.\main.c      **** //            i2cbuf[0] = adcvalue >> 8;
 195:.\main.c      **** //            i2cbuf[1] = adcvalue;
 196:.\main.c      **** //            i2cbuf[2] = 0;
 197:.\main.c      **** //            i2cbuf[3] = 0;
 198:.\main.c      **** //            Filter_Write16(Filter_CHANNEL_A, adcvalue << 4);
 199:.\main.c      **** //            filtervalue = Filter_Read24(Filter_CHANNEL_A);
 200:.\main.c      **** //            i2cbuf[0] = filtervalue >> 24;
 201:.\main.c      **** //            i2cbuf[1] = filtervalue >> 16;
 202:.\main.c      **** //            i2cbuf[2] = filtervalue >> 8;
 203:.\main.c      **** //            i2cbuf[3] = filtervalue;
 204:.\main.c      ****             
 205:.\main.c      **** //            i2cbuf[0] = buffer[0] >> 24;
 206:.\main.c      **** //            i2cbuf[1] = buffer[0] >> 16;
 207:.\main.c      **** //            i2cbuf[2] = buffer[0] >> 8;
 208:.\main.c      **** //            i2cbuf[3] = buffer[0];
 209:.\main.c      ****         }
 210:.\main.c      **** //        filtervalue = Filter_Read24(Filter_CHANNEL_A);
 211:.\main.c      ****         
 212:.\main.c      **** //        filtervalue = buffer[0];
 213:.\main.c      **** //        i2cbuf[0] = filtervalue >> 24;
 214:.\main.c      **** //        i2cbuf[1] = filtervalue >> 16;
 215:.\main.c      **** //        i2cbuf[2] = filtervalue >> 8;
 216:.\main.c      **** //        i2cbuf[3] = filtervalue;
 217:.\main.c      ****         
 218:.\main.c      **** //        VDACH_SetValue(filtervalue >> 8);
 219:.\main.c      **** //        VDACL_SetValue(filtervalue);
 220:.\main.c      **** //        
 221:.\main.c      **** //        CyDelay(1);
 222:.\main.c      **** //        adcvalue = adcmem[0];
 223:.\main.c      **** //        i2cbuf[0] = 0;
 224:.\main.c      **** //        i2cbuf[1] = 0;
 225:.\main.c      **** //        i2cbuf[2] = adcvalue >> 8;
 226:.\main.c      **** //        i2cbuf[3] = adcvalue;
 227:.\main.c      ****         
 228:.\main.c      **** //        VDACH_SetValue(adcvalue >> 8);
 229:.\main.c      **** //        VDACL_SetValue(adcvalue);
 230:.\main.c      **** //        CyDelay(1);
 231:.\main.c      ****         
 232:.\main.c      ****     }
 489              		.loc 1 232 0
 490 005c FBE7     		b	.L24
 491              	.L27:
 492 005e 00BF     		.align	2
ARM GAS  C:\Users\cruiser\AppData\Local\Temp\ccyzYkcr.s 			page 14


 493              	.L26:
 494 0060 00000000 		.word	isr_1_routine
 495 0064 00000000 		.word	.LANCHOR0
 496              		.cfi_endproc
 497              	.LFE69:
 498              		.size	main, .-main
 499              		.global	i2cbuf
 500              		.global	adcmem
 501              		.comm	buffer,512,4
 502              		.bss
 503              		.align	2
 504              		.set	.LANCHOR0,. + 0
 505              		.type	i2cbuf, %object
 506              		.size	i2cbuf, 4
 507              	i2cbuf:
 508 0000 00000000 		.space	4
 509              		.type	adcmem, %object
 510              		.size	adcmem, 8
 511              	adcmem:
 512 0004 00000000 		.space	8
 512      00000000 
 513              		.text
 514              	.Letext0:
 515              		.file 2 "c:\\program files (x86)\\cypress\\psoc creator\\3.3\\psoc creator\\import\\gnu\\arm\\4.9.
 516              		.file 3 "c:\\program files (x86)\\cypress\\psoc creator\\3.3\\psoc creator\\import\\gnu\\arm\\4.9.
 517              		.file 4 "Generated_Source\\PSoC5/cytypes.h"
 518              		.file 5 "Generated_Source\\PSoC5/core_cm3.h"
 519              		.file 6 "Generated_Source\\PSoC5/VDACH.h"
 520              		.file 7 "Generated_Source\\PSoC5/VDACL.h"
 521              		.file 8 "Generated_Source\\PSoC5/Pin_Status_1.h"
 522              		.file 9 "Generated_Source\\PSoC5/CYDMAC.H"
 523              		.file 10 "Generated_Source\\PSoC5/DMA_RAM2DAC_dma.h"
 524              		.file 11 "Generated_Source\\PSoC5/DMA_FILT2RAM_dma.h"
 525              		.file 12 "Generated_Source\\PSoC5/DMA_ADC2FILT_dma.h"
 526              		.file 13 "Generated_Source\\PSoC5/DMA_ADC2RAM_dma.h"
 527              		.file 14 "Generated_Source\\PSoC5/DMA_RAM2FILT_dma.h"
 528              		.file 15 "Generated_Source\\PSoC5/I2C.h"
 529              		.file 16 "Generated_Source\\PSoC5/ADC_SAR_1.h"
 530              		.file 17 "Generated_Source\\PSoC5/Filter.h"
 531              		.file 18 "Generated_Source\\PSoC5/ISR_DMA_FILT2RAM.h"