ARM GAS  C:\Users\cruiser\AppData\Local\Temp\ccj9BDd1.s 			page 1


   1              		.syntax unified
   2              		.cpu cortex-m3
   3              		.fpu softvfp
   4              		.eabi_attribute 20, 1
   5              		.eabi_attribute 21, 1
   6              		.eabi_attribute 23, 3
   7              		.eabi_attribute 24, 1
   8              		.eabi_attribute 25, 1
   9              		.eabi_attribute 26, 1
  10              		.eabi_attribute 30, 1
  11              		.eabi_attribute 34, 1
  12              		.eabi_attribute 18, 4
  13              		.thumb
  14              		.file	"Pin_1.c"
  15              		.text
  16              	.Ltext0:
  17              		.cfi_sections	.debug_frame
  18              		.section	.text.Pin_1_Write,"ax",%progbits
  19              		.align	2
  20              		.global	Pin_1_Write
  21              		.thumb
  22              		.thumb_func
  23              		.type	Pin_1_Write, %function
  24              	Pin_1_Write:
  25              	.LFB0:
  26              		.file 1 ".\\Generated_Source\\PSoC5\\Pin_1.c"
   1:.\Generated_Source\PSoC5/Pin_1.c **** /*******************************************************************************
   2:.\Generated_Source\PSoC5/Pin_1.c **** * File Name: Pin_1.c  
   3:.\Generated_Source\PSoC5/Pin_1.c **** * Version 2.20
   4:.\Generated_Source\PSoC5/Pin_1.c **** *
   5:.\Generated_Source\PSoC5/Pin_1.c **** * Description:
   6:.\Generated_Source\PSoC5/Pin_1.c **** *  This file contains API to enable firmware control of a Pins component.
   7:.\Generated_Source\PSoC5/Pin_1.c **** *
   8:.\Generated_Source\PSoC5/Pin_1.c **** * Note:
   9:.\Generated_Source\PSoC5/Pin_1.c **** *
  10:.\Generated_Source\PSoC5/Pin_1.c **** ********************************************************************************
  11:.\Generated_Source\PSoC5/Pin_1.c **** * Copyright 2008-2015, Cypress Semiconductor Corporation.  All rights reserved.
  12:.\Generated_Source\PSoC5/Pin_1.c **** * You may use this file only in accordance with the license, terms, conditions, 
  13:.\Generated_Source\PSoC5/Pin_1.c **** * disclaimers, and limitations in the end user license agreement accompanying 
  14:.\Generated_Source\PSoC5/Pin_1.c **** * the software package with which this file was provided.
  15:.\Generated_Source\PSoC5/Pin_1.c **** *******************************************************************************/
  16:.\Generated_Source\PSoC5/Pin_1.c **** 
  17:.\Generated_Source\PSoC5/Pin_1.c **** #include "cytypes.h"
  18:.\Generated_Source\PSoC5/Pin_1.c **** #include "Pin_1.h"
  19:.\Generated_Source\PSoC5/Pin_1.c **** 
  20:.\Generated_Source\PSoC5/Pin_1.c **** /* APIs are not generated for P15[7:6] on PSoC 5 */
  21:.\Generated_Source\PSoC5/Pin_1.c **** #if !(CY_PSOC5A &&\
  22:.\Generated_Source\PSoC5/Pin_1.c **** 	 Pin_1__PORT == 15 && ((Pin_1__MASK & 0xC0) != 0))
  23:.\Generated_Source\PSoC5/Pin_1.c **** 
  24:.\Generated_Source\PSoC5/Pin_1.c **** 
  25:.\Generated_Source\PSoC5/Pin_1.c **** /*******************************************************************************
  26:.\Generated_Source\PSoC5/Pin_1.c **** * Function Name: Pin_1_Write
  27:.\Generated_Source\PSoC5/Pin_1.c **** ****************************************************************************//**
  28:.\Generated_Source\PSoC5/Pin_1.c **** *
  29:.\Generated_Source\PSoC5/Pin_1.c **** * \brief Writes the value to the physical port (data output register), masking
  30:.\Generated_Source\PSoC5/Pin_1.c **** *  and shifting the bits appropriately. 
  31:.\Generated_Source\PSoC5/Pin_1.c **** *
ARM GAS  C:\Users\cruiser\AppData\Local\Temp\ccj9BDd1.s 			page 2


  32:.\Generated_Source\PSoC5/Pin_1.c **** * The data output register controls the signal applied to the physical pin in 
  33:.\Generated_Source\PSoC5/Pin_1.c **** * conjunction with the drive mode parameter. This function avoids changing 
  34:.\Generated_Source\PSoC5/Pin_1.c **** * other bits in the port by using the appropriate method (read-modify-write or
  35:.\Generated_Source\PSoC5/Pin_1.c **** * bit banding).
  36:.\Generated_Source\PSoC5/Pin_1.c **** *
  37:.\Generated_Source\PSoC5/Pin_1.c **** * <b>Note</b> This function should not be used on a hardware digital output pin 
  38:.\Generated_Source\PSoC5/Pin_1.c **** * as it is driven by the hardware signal attached to it.
  39:.\Generated_Source\PSoC5/Pin_1.c **** *
  40:.\Generated_Source\PSoC5/Pin_1.c **** * \param value
  41:.\Generated_Source\PSoC5/Pin_1.c **** *  Value to write to the component instance.
  42:.\Generated_Source\PSoC5/Pin_1.c **** *
  43:.\Generated_Source\PSoC5/Pin_1.c **** * \return 
  44:.\Generated_Source\PSoC5/Pin_1.c **** *  None 
  45:.\Generated_Source\PSoC5/Pin_1.c **** *
  46:.\Generated_Source\PSoC5/Pin_1.c **** * \sideeffect
  47:.\Generated_Source\PSoC5/Pin_1.c **** *  If you use read-modify-write operations that are not atomic; the Interrupt 
  48:.\Generated_Source\PSoC5/Pin_1.c **** *  Service Routines (ISR) can cause corruption of this function. An ISR that 
  49:.\Generated_Source\PSoC5/Pin_1.c **** *  interrupts this function and performs writes to the Pins component data 
  50:.\Generated_Source\PSoC5/Pin_1.c **** *  register can cause corrupted port data. To avoid this issue, you should 
  51:.\Generated_Source\PSoC5/Pin_1.c **** *  either use the Per-Pin APIs (primary method) or disable interrupts around 
  52:.\Generated_Source\PSoC5/Pin_1.c **** *  this function.
  53:.\Generated_Source\PSoC5/Pin_1.c **** *
  54:.\Generated_Source\PSoC5/Pin_1.c **** * \funcusage
  55:.\Generated_Source\PSoC5/Pin_1.c **** *  \snippet Pin_1_SUT.c usage_Pin_1_Write
  56:.\Generated_Source\PSoC5/Pin_1.c **** *******************************************************************************/
  57:.\Generated_Source\PSoC5/Pin_1.c **** void Pin_1_Write(uint8 value)
  58:.\Generated_Source\PSoC5/Pin_1.c **** {
  27              		.loc 1 58 0
  28              		.cfi_startproc
  29              		@ args = 0, pretend = 0, frame = 0
  30              		@ frame_needed = 0, uses_anonymous_args = 0
  31              		@ link register save eliminated.
  32              	.LVL0:
  59:.\Generated_Source\PSoC5/Pin_1.c ****     uint8 staticBits = (Pin_1_DR & (uint8)(~Pin_1_MASK));
  33              		.loc 1 59 0
  34 0000 044A     		ldr	r2, .L2
  35 0002 1378     		ldrb	r3, [r2]	@ zero_extendqisi2
  36 0004 03F0FC03 		and	r3, r3, #252
  37              	.LVL1:
  60:.\Generated_Source\PSoC5/Pin_1.c ****     Pin_1_DR = staticBits | ((uint8)(value << Pin_1_SHIFT) & Pin_1_MASK);
  38              		.loc 1 60 0
  39 0008 00F00300 		and	r0, r0, #3
  40              	.LVL2:
  41 000c 1843     		orrs	r0, r0, r3
  42 000e 1070     		strb	r0, [r2]
  43 0010 7047     		bx	lr
  44              	.L3:
  45 0012 00BF     		.align	2
  46              	.L2:
  47 0014 C0510040 		.word	1073762752
  48              		.cfi_endproc
  49              	.LFE0:
  50              		.size	Pin_1_Write, .-Pin_1_Write
  51              		.section	.text.Pin_1_SetDriveMode,"ax",%progbits
  52              		.align	2
  53              		.global	Pin_1_SetDriveMode
  54              		.thumb
ARM GAS  C:\Users\cruiser\AppData\Local\Temp\ccj9BDd1.s 			page 3


  55              		.thumb_func
  56              		.type	Pin_1_SetDriveMode, %function
  57              	Pin_1_SetDriveMode:
  58              	.LFB1:
  61:.\Generated_Source\PSoC5/Pin_1.c **** }
  62:.\Generated_Source\PSoC5/Pin_1.c **** 
  63:.\Generated_Source\PSoC5/Pin_1.c **** 
  64:.\Generated_Source\PSoC5/Pin_1.c **** /*******************************************************************************
  65:.\Generated_Source\PSoC5/Pin_1.c **** * Function Name: Pin_1_SetDriveMode
  66:.\Generated_Source\PSoC5/Pin_1.c **** ****************************************************************************//**
  67:.\Generated_Source\PSoC5/Pin_1.c **** *
  68:.\Generated_Source\PSoC5/Pin_1.c **** * \brief Sets the drive mode for each of the Pins component's pins.
  69:.\Generated_Source\PSoC5/Pin_1.c **** * 
  70:.\Generated_Source\PSoC5/Pin_1.c **** * <b>Note</b> This affects all pins in the Pins component instance. Use the
  71:.\Generated_Source\PSoC5/Pin_1.c **** * Per-Pin APIs if you wish to control individual pin's drive modes.
  72:.\Generated_Source\PSoC5/Pin_1.c **** *
  73:.\Generated_Source\PSoC5/Pin_1.c **** * \param mode
  74:.\Generated_Source\PSoC5/Pin_1.c **** *  Mode for the selected signals. Valid options are documented in 
  75:.\Generated_Source\PSoC5/Pin_1.c **** *  \ref driveMode.
  76:.\Generated_Source\PSoC5/Pin_1.c **** *
  77:.\Generated_Source\PSoC5/Pin_1.c **** * \return
  78:.\Generated_Source\PSoC5/Pin_1.c **** *  None
  79:.\Generated_Source\PSoC5/Pin_1.c **** *
  80:.\Generated_Source\PSoC5/Pin_1.c **** * \sideeffect
  81:.\Generated_Source\PSoC5/Pin_1.c **** *  If you use read-modify-write operations that are not atomic, the ISR can
  82:.\Generated_Source\PSoC5/Pin_1.c **** *  cause corruption of this function. An ISR that interrupts this function 
  83:.\Generated_Source\PSoC5/Pin_1.c **** *  and performs writes to the Pins component Drive Mode registers can cause 
  84:.\Generated_Source\PSoC5/Pin_1.c **** *  corrupted port data. To avoid this issue, you should either use the Per-Pin
  85:.\Generated_Source\PSoC5/Pin_1.c **** *  APIs (primary method) or disable interrupts around this function.
  86:.\Generated_Source\PSoC5/Pin_1.c **** *
  87:.\Generated_Source\PSoC5/Pin_1.c **** * \funcusage
  88:.\Generated_Source\PSoC5/Pin_1.c **** *  \snippet Pin_1_SUT.c usage_Pin_1_SetDriveMode
  89:.\Generated_Source\PSoC5/Pin_1.c **** *******************************************************************************/
  90:.\Generated_Source\PSoC5/Pin_1.c **** void Pin_1_SetDriveMode(uint8 mode)
  91:.\Generated_Source\PSoC5/Pin_1.c **** {
  59              		.loc 1 91 0
  60              		.cfi_startproc
  61              		@ args = 0, pretend = 0, frame = 0
  62              		@ frame_needed = 0, uses_anonymous_args = 0
  63              		@ link register save eliminated.
  64              	.LVL3:
  92:.\Generated_Source\PSoC5/Pin_1.c **** 	CyPins_SetPinDriveMode(Pin_1_0, mode);
  65              		.loc 1 92 0
  66 0000 074A     		ldr	r2, .L5
  67 0002 1378     		ldrb	r3, [r2]	@ zero_extendqisi2
  68 0004 00F00E00 		and	r0, r0, #14
  69              	.LVL4:
  70 0008 03F0F103 		and	r3, r3, #241
  71 000c 0343     		orrs	r3, r3, r0
  72 000e 1370     		strb	r3, [r2]
  93:.\Generated_Source\PSoC5/Pin_1.c **** 	CyPins_SetPinDriveMode(Pin_1_1, mode);
  73              		.loc 1 93 0
  74 0010 0132     		adds	r2, r2, #1
  75 0012 1378     		ldrb	r3, [r2]	@ zero_extendqisi2
  76 0014 03F0F103 		and	r3, r3, #241
  77 0018 1843     		orrs	r0, r0, r3
  78 001a 1070     		strb	r0, [r2]
ARM GAS  C:\Users\cruiser\AppData\Local\Temp\ccj9BDd1.s 			page 4


  79 001c 7047     		bx	lr
  80              	.L6:
  81 001e 00BF     		.align	2
  82              	.L5:
  83 0020 60500040 		.word	1073762400
  84              		.cfi_endproc
  85              	.LFE1:
  86              		.size	Pin_1_SetDriveMode, .-Pin_1_SetDriveMode
  87              		.section	.text.Pin_1_Read,"ax",%progbits
  88              		.align	2
  89              		.global	Pin_1_Read
  90              		.thumb
  91              		.thumb_func
  92              		.type	Pin_1_Read, %function
  93              	Pin_1_Read:
  94              	.LFB2:
  94:.\Generated_Source\PSoC5/Pin_1.c **** }
  95:.\Generated_Source\PSoC5/Pin_1.c **** 
  96:.\Generated_Source\PSoC5/Pin_1.c **** 
  97:.\Generated_Source\PSoC5/Pin_1.c **** /*******************************************************************************
  98:.\Generated_Source\PSoC5/Pin_1.c **** * Function Name: Pin_1_Read
  99:.\Generated_Source\PSoC5/Pin_1.c **** ****************************************************************************//**
 100:.\Generated_Source\PSoC5/Pin_1.c **** *
 101:.\Generated_Source\PSoC5/Pin_1.c **** * \brief Reads the associated physical port (pin status register) and masks 
 102:.\Generated_Source\PSoC5/Pin_1.c **** *  the required bits according to the width and bit position of the component
 103:.\Generated_Source\PSoC5/Pin_1.c **** *  instance. 
 104:.\Generated_Source\PSoC5/Pin_1.c **** *
 105:.\Generated_Source\PSoC5/Pin_1.c **** * The pin's status register returns the current logic level present on the 
 106:.\Generated_Source\PSoC5/Pin_1.c **** * physical pin.
 107:.\Generated_Source\PSoC5/Pin_1.c **** *
 108:.\Generated_Source\PSoC5/Pin_1.c **** * \return 
 109:.\Generated_Source\PSoC5/Pin_1.c **** *  The current value for the pins in the component as a right justified number.
 110:.\Generated_Source\PSoC5/Pin_1.c **** *
 111:.\Generated_Source\PSoC5/Pin_1.c **** * \funcusage
 112:.\Generated_Source\PSoC5/Pin_1.c **** *  \snippet Pin_1_SUT.c usage_Pin_1_Read  
 113:.\Generated_Source\PSoC5/Pin_1.c **** *******************************************************************************/
 114:.\Generated_Source\PSoC5/Pin_1.c **** uint8 Pin_1_Read(void)
 115:.\Generated_Source\PSoC5/Pin_1.c **** {
  95              		.loc 1 115 0
  96              		.cfi_startproc
  97              		@ args = 0, pretend = 0, frame = 0
  98              		@ frame_needed = 0, uses_anonymous_args = 0
  99              		@ link register save eliminated.
 116:.\Generated_Source\PSoC5/Pin_1.c ****     return (Pin_1_PS & Pin_1_MASK) >> Pin_1_SHIFT;
 100              		.loc 1 116 0
 101 0000 024B     		ldr	r3, .L8
 102 0002 1878     		ldrb	r0, [r3]	@ zero_extendqisi2
 117:.\Generated_Source\PSoC5/Pin_1.c **** }
 103              		.loc 1 117 0
 104 0004 00F00300 		and	r0, r0, #3
 105 0008 7047     		bx	lr
 106              	.L9:
 107 000a 00BF     		.align	2
 108              	.L8:
 109 000c C1510040 		.word	1073762753
 110              		.cfi_endproc
 111              	.LFE2:
ARM GAS  C:\Users\cruiser\AppData\Local\Temp\ccj9BDd1.s 			page 5


 112              		.size	Pin_1_Read, .-Pin_1_Read
 113              		.section	.text.Pin_1_ReadDataReg,"ax",%progbits
 114              		.align	2
 115              		.global	Pin_1_ReadDataReg
 116              		.thumb
 117              		.thumb_func
 118              		.type	Pin_1_ReadDataReg, %function
 119              	Pin_1_ReadDataReg:
 120              	.LFB3:
 118:.\Generated_Source\PSoC5/Pin_1.c **** 
 119:.\Generated_Source\PSoC5/Pin_1.c **** 
 120:.\Generated_Source\PSoC5/Pin_1.c **** /*******************************************************************************
 121:.\Generated_Source\PSoC5/Pin_1.c **** * Function Name: Pin_1_ReadDataReg
 122:.\Generated_Source\PSoC5/Pin_1.c **** ****************************************************************************//**
 123:.\Generated_Source\PSoC5/Pin_1.c **** *
 124:.\Generated_Source\PSoC5/Pin_1.c **** * \brief Reads the associated physical port's data output register and masks 
 125:.\Generated_Source\PSoC5/Pin_1.c **** *  the correct bits according to the width and bit position of the component 
 126:.\Generated_Source\PSoC5/Pin_1.c **** *  instance. 
 127:.\Generated_Source\PSoC5/Pin_1.c **** *
 128:.\Generated_Source\PSoC5/Pin_1.c **** * The data output register controls the signal applied to the physical pin in 
 129:.\Generated_Source\PSoC5/Pin_1.c **** * conjunction with the drive mode parameter. This is not the same as the 
 130:.\Generated_Source\PSoC5/Pin_1.c **** * preferred Pin_1_Read() API because the 
 131:.\Generated_Source\PSoC5/Pin_1.c **** * Pin_1_ReadDataReg() reads the data register instead of the status 
 132:.\Generated_Source\PSoC5/Pin_1.c **** * register. For output pins this is a useful function to determine the value 
 133:.\Generated_Source\PSoC5/Pin_1.c **** * just written to the pin.
 134:.\Generated_Source\PSoC5/Pin_1.c **** *
 135:.\Generated_Source\PSoC5/Pin_1.c **** * \return 
 136:.\Generated_Source\PSoC5/Pin_1.c **** *  The current value of the data register masked and shifted into a right 
 137:.\Generated_Source\PSoC5/Pin_1.c **** *  justified number for the component instance.
 138:.\Generated_Source\PSoC5/Pin_1.c **** *
 139:.\Generated_Source\PSoC5/Pin_1.c **** * \funcusage
 140:.\Generated_Source\PSoC5/Pin_1.c **** *  \snippet Pin_1_SUT.c usage_Pin_1_ReadDataReg 
 141:.\Generated_Source\PSoC5/Pin_1.c **** *******************************************************************************/
 142:.\Generated_Source\PSoC5/Pin_1.c **** uint8 Pin_1_ReadDataReg(void)
 143:.\Generated_Source\PSoC5/Pin_1.c **** {
 121              		.loc 1 143 0
 122              		.cfi_startproc
 123              		@ args = 0, pretend = 0, frame = 0
 124              		@ frame_needed = 0, uses_anonymous_args = 0
 125              		@ link register save eliminated.
 144:.\Generated_Source\PSoC5/Pin_1.c ****     return (Pin_1_DR & Pin_1_MASK) >> Pin_1_SHIFT;
 126              		.loc 1 144 0
 127 0000 024B     		ldr	r3, .L11
 128 0002 1878     		ldrb	r0, [r3]	@ zero_extendqisi2
 145:.\Generated_Source\PSoC5/Pin_1.c **** }
 129              		.loc 1 145 0
 130 0004 00F00300 		and	r0, r0, #3
 131 0008 7047     		bx	lr
 132              	.L12:
 133 000a 00BF     		.align	2
 134              	.L11:
 135 000c C0510040 		.word	1073762752
 136              		.cfi_endproc
 137              	.LFE3:
 138              		.size	Pin_1_ReadDataReg, .-Pin_1_ReadDataReg
 139              		.text
 140              	.Letext0:
ARM GAS  C:\Users\cruiser\AppData\Local\Temp\ccj9BDd1.s 			page 6


 141              		.file 2 ".\\Generated_Source\\PSoC5\\cytypes.h"