ARM GAS  C:\Users\cruiser\AppData\Local\Temp\cc0GDtdO.s 			page 1


   1              		.syntax unified
   2              		.cpu cortex-m3
   3              		.fpu softvfp
   4              		.eabi_attribute 20, 1
   5              		.eabi_attribute 21, 1
   6              		.eabi_attribute 23, 3
   7              		.eabi_attribute 24, 1
   8              		.eabi_attribute 25, 1
   9              		.eabi_attribute 26, 1
  10              		.eabi_attribute 30, 6
  11              		.eabi_attribute 34, 1
  12              		.eabi_attribute 18, 4
  13              		.thumb
  14              		.file	"main.c"
  15              		.text
  16              	.Ltext0:
  17              		.cfi_sections	.debug_frame
  18              		.section	.rodata
  19              		.align	2
  20              	.LC0:
  21 0000 48656C6C 		.ascii	"Hello World\000"
  21      6F20576F 
  21      726C6400 
  22              		.section	.text.main,"ax",%progbits
  23              		.align	2
  24              		.global	main
  25              		.thumb
  26              		.thumb_func
  27              		.type	main, %function
  28              	main:
  29              	.LFB63:
  30              		.file 1 ".\\main.c"
   1:.\main.c      **** /*******************************************************************************
   2:.\main.c      **** * File: main.c
   3:.\main.c      **** *
   4:.\main.c      **** * Description: 
   5:.\main.c      **** *	The HelloWorld project prints the string 'Hello World' on the character LCD
   6:.\main.c      **** *	and blinks an LED.
   7:.\main.c      **** *
   8:.\main.c      **** ********************************************************************************
   9:.\main.c      **** * Copyright 2012, Cypress Semiconductor Corporation. All rights reserved.
  10:.\main.c      **** * This software is owned by Cypress Semiconductor Corporation and is protected
  11:.\main.c      **** * by and subject to worldwide patent and copyright laws and treaties.
  12:.\main.c      **** * Therefore, you may use this software only as provided in the license agreement
  13:.\main.c      **** * accompanying the software package from which you obtained this software.
  14:.\main.c      **** * CYPRESS AND ITS SUPPLIERS MAKE NO WARRANTY OF ANY KIND, EXPRESS OR IMPLIED,
  15:.\main.c      **** * WITH REGARD TO THIS SOFTWARE, INCLUDING, BUT NOT LIMITED TO, NONINFRINGEMENT,
  16:.\main.c      **** * IMPLIED WARRANTIES OF MERCHANTABILITY AND FITNESS FOR A PARTICULAR PURPOSE.
  17:.\main.c      **** *******************************************************************************/
  18:.\main.c      **** 
  19:.\main.c      **** #include <device.h>
  20:.\main.c      **** 
  21:.\main.c      **** /*******************************************************************************
  22:.\main.c      **** * Function Name: main
  23:.\main.c      **** ********************************************************************************
  24:.\main.c      **** *
  25:.\main.c      **** * Summary:
ARM GAS  C:\Users\cruiser\AppData\Local\Temp\cc0GDtdO.s 			page 2


  26:.\main.c      **** *  Main function performs following functions:
  27:.\main.c      **** *   1. Start the LCD and PWM
  28:.\main.c      **** *   2. Print 'Hello World' on the LCD
  29:.\main.c      **** *
  30:.\main.c      **** * Parameters:
  31:.\main.c      **** *  None.
  32:.\main.c      **** *
  33:.\main.c      **** * Return:
  34:.\main.c      **** *  None.
  35:.\main.c      **** *
  36:.\main.c      **** *******************************************************************************/
  37:.\main.c      **** int main()
  38:.\main.c      **** {
  31              		.loc 1 38 0
  32              		.cfi_startproc
  33              		@ args = 0, pretend = 0, frame = 8
  34              		@ frame_needed = 1, uses_anonymous_args = 0
  35 0000 80B5     		push	{r7, lr}
  36              		.cfi_def_cfa_offset 8
  37              		.cfi_offset 7, -8
  38              		.cfi_offset 14, -4
  39 0002 82B0     		sub	sp, sp, #8
  40              		.cfi_def_cfa_offset 16
  41 0004 00AF     		add	r7, sp, #0
  42              		.cfi_def_cfa_register 7
  39:.\main.c      **** 	/* Start LCD and PWM */
  40:.\main.c      **** 	LCD_Char_Start();
  43              		.loc 1 40 0
  44 0006 FFF7FEFF 		bl	LCD_Char_Start
  41:.\main.c      **** 	PWM_Start();
  45              		.loc 1 41 0
  46 000a FFF7FEFF 		bl	PWM_Start
  42:.\main.c      ****     I2C_Start();
  47              		.loc 1 42 0
  48 000e FFF7FEFF 		bl	I2C_Start
  43:.\main.c      ****     
  44:.\main.c      ****     uint8 buf[1];
  45:.\main.c      ****     buf[0] = 0;
  49              		.loc 1 45 0
  50 0012 0023     		movs	r3, #0
  51 0014 3B71     		strb	r3, [r7, #4]
  46:.\main.c      **** 	
  47:.\main.c      **** 	/* Print Hello World on LCD */
  48:.\main.c      **** 	LCD_Char_PrintString("Hello World");
  52              		.loc 1 48 0
  53 0016 0248     		ldr	r0, .L3
  54 0018 FFF7FEFF 		bl	LCD_Char_PrintString
  55              	.L2:
  49:.\main.c      **** 
  50:.\main.c      ****     
  51:.\main.c      ****     
  52:.\main.c      ****     /* Loop forever */
  53:.\main.c      **** 	for(;;)
  54:.\main.c      ****     {
  55:.\main.c      ****     }
  56              		.loc 1 55 0 discriminator 1
  57 001c FEE7     		b	.L2
ARM GAS  C:\Users\cruiser\AppData\Local\Temp\cc0GDtdO.s 			page 3


  58              	.L4:
  59 001e 00BF     		.align	2
  60              	.L3:
  61 0020 00000000 		.word	.LC0
  62              		.cfi_endproc
  63              	.LFE63:
  64              		.size	main, .-main
  65              		.text
  66              	.Letext0:
  67              		.file 2 "c:\\program files (x86)\\cypress\\psoc creator\\3.3\\psoc creator\\import\\gnu\\arm\\4.9.
  68              		.file 3 "c:\\program files (x86)\\cypress\\psoc creator\\3.3\\psoc creator\\import\\gnu\\arm\\4.9.
  69              		.file 4 "Generated_Source\\PSoC5/cytypes.h"
  70              		.file 5 "Generated_Source\\PSoC5/core_cm3.h"