ARM GAS  C:\Users\cruiser\AppData\Local\Temp\ccBQR52R.s 			page 1


   1              		.syntax unified
   2              		.cpu cortex-m3
   3              		.fpu softvfp
   4              		.eabi_attribute 20, 1
   5              		.eabi_attribute 21, 1
   6              		.eabi_attribute 23, 3
   7              		.eabi_attribute 24, 1
   8              		.eabi_attribute 25, 1
   9              		.eabi_attribute 26, 1
  10              		.eabi_attribute 30, 1
  11              		.eabi_attribute 34, 1
  12              		.eabi_attribute 18, 4
  13              		.thumb
  14              		.file	"cyfitter_cfg.c"
  15              		.text
  16              	.Ltext0:
  17              		.cfi_sections	.debug_frame
  18              		.section	.text.CyClockStartupError,"ax",%progbits
  19              		.align	2
  20              		.thumb
  21              		.thumb_func
  22              		.type	CyClockStartupError, %function
  23              	CyClockStartupError:
  24              	.LFB3:
  25              		.file 1 ".\\Generated_Source\\PSoC5\\cyfitter_cfg.c"
   1:.\Generated_Source\PSoC5/cyfitter_cfg.c **** /*******************************************************************************
   2:.\Generated_Source\PSoC5/cyfitter_cfg.c **** * File Name: cyfitter_cfg.c
   3:.\Generated_Source\PSoC5/cyfitter_cfg.c **** * 
   4:.\Generated_Source\PSoC5/cyfitter_cfg.c **** * PSoC Creator  3.3 CP3
   5:.\Generated_Source\PSoC5/cyfitter_cfg.c **** *
   6:.\Generated_Source\PSoC5/cyfitter_cfg.c **** * Description:
   7:.\Generated_Source\PSoC5/cyfitter_cfg.c **** * This file contains device initialization code.
   8:.\Generated_Source\PSoC5/cyfitter_cfg.c **** * Except for the user defined sections in CyClockStartupError(), this file should not be modified.
   9:.\Generated_Source\PSoC5/cyfitter_cfg.c **** * This file is automatically generated by PSoC Creator.
  10:.\Generated_Source\PSoC5/cyfitter_cfg.c **** *
  11:.\Generated_Source\PSoC5/cyfitter_cfg.c **** ********************************************************************************
  12:.\Generated_Source\PSoC5/cyfitter_cfg.c **** * Copyright (c) 2007-2016 Cypress Semiconductor.  All rights reserved.
  13:.\Generated_Source\PSoC5/cyfitter_cfg.c **** * You may use this file only in accordance with the license, terms, conditions, 
  14:.\Generated_Source\PSoC5/cyfitter_cfg.c **** * disclaimers, and limitations in the end user license agreement accompanying 
  15:.\Generated_Source\PSoC5/cyfitter_cfg.c **** * the software package with which this file was provided.
  16:.\Generated_Source\PSoC5/cyfitter_cfg.c **** ********************************************************************************/
  17:.\Generated_Source\PSoC5/cyfitter_cfg.c **** 
  18:.\Generated_Source\PSoC5/cyfitter_cfg.c **** #include <string.h>
  19:.\Generated_Source\PSoC5/cyfitter_cfg.c **** #include "cytypes.h"
  20:.\Generated_Source\PSoC5/cyfitter_cfg.c **** #include "cydevice_trm.h"
  21:.\Generated_Source\PSoC5/cyfitter_cfg.c **** #include "cyfitter.h"
  22:.\Generated_Source\PSoC5/cyfitter_cfg.c **** #include "CyLib.h"
  23:.\Generated_Source\PSoC5/cyfitter_cfg.c **** #include "cyfitter_cfg.h"
  24:.\Generated_Source\PSoC5/cyfitter_cfg.c **** 
  25:.\Generated_Source\PSoC5/cyfitter_cfg.c **** #define CY_NEED_CYCLOCKSTARTUPERROR 1
  26:.\Generated_Source\PSoC5/cyfitter_cfg.c **** 
  27:.\Generated_Source\PSoC5/cyfitter_cfg.c **** 
  28:.\Generated_Source\PSoC5/cyfitter_cfg.c **** #if defined(__GNUC__) || defined(__ARMCC_VERSION)
  29:.\Generated_Source\PSoC5/cyfitter_cfg.c ****     #define CYPACKED 
  30:.\Generated_Source\PSoC5/cyfitter_cfg.c ****     #define CYPACKED_ATTR __attribute__ ((packed))
  31:.\Generated_Source\PSoC5/cyfitter_cfg.c ****     #define CYALIGNED __attribute__ ((aligned))
  32:.\Generated_Source\PSoC5/cyfitter_cfg.c ****     #define CY_CFG_UNUSED __attribute__ ((unused))
ARM GAS  C:\Users\cruiser\AppData\Local\Temp\ccBQR52R.s 			page 2


  33:.\Generated_Source\PSoC5/cyfitter_cfg.c ****     #ifndef CY_CFG_SECTION
  34:.\Generated_Source\PSoC5/cyfitter_cfg.c ****         #define CY_CFG_SECTION __attribute__ ((section(".psocinit")))
  35:.\Generated_Source\PSoC5/cyfitter_cfg.c ****     #endif
  36:.\Generated_Source\PSoC5/cyfitter_cfg.c ****     
  37:.\Generated_Source\PSoC5/cyfitter_cfg.c ****     #if defined(__ARMCC_VERSION)
  38:.\Generated_Source\PSoC5/cyfitter_cfg.c ****         #define CY_CFG_MEMORY_BARRIER() __memory_changed()
  39:.\Generated_Source\PSoC5/cyfitter_cfg.c ****     #else
  40:.\Generated_Source\PSoC5/cyfitter_cfg.c ****         #define CY_CFG_MEMORY_BARRIER() __sync_synchronize()
  41:.\Generated_Source\PSoC5/cyfitter_cfg.c ****     #endif
  42:.\Generated_Source\PSoC5/cyfitter_cfg.c ****     
  43:.\Generated_Source\PSoC5/cyfitter_cfg.c **** #elif defined(__ICCARM__)
  44:.\Generated_Source\PSoC5/cyfitter_cfg.c ****     #include <intrinsics.h>
  45:.\Generated_Source\PSoC5/cyfitter_cfg.c **** 
  46:.\Generated_Source\PSoC5/cyfitter_cfg.c ****     #define CYPACKED __packed
  47:.\Generated_Source\PSoC5/cyfitter_cfg.c ****     #define CYPACKED_ATTR 
  48:.\Generated_Source\PSoC5/cyfitter_cfg.c ****     #define CYALIGNED _Pragma("data_alignment=4")
  49:.\Generated_Source\PSoC5/cyfitter_cfg.c ****     #define CY_CFG_UNUSED _Pragma("diag_suppress=Pe177")
  50:.\Generated_Source\PSoC5/cyfitter_cfg.c ****     #define CY_CFG_SECTION _Pragma("location=\".psocinit\"")
  51:.\Generated_Source\PSoC5/cyfitter_cfg.c ****     
  52:.\Generated_Source\PSoC5/cyfitter_cfg.c ****     #define CY_CFG_MEMORY_BARRIER() __DMB()
  53:.\Generated_Source\PSoC5/cyfitter_cfg.c ****     
  54:.\Generated_Source\PSoC5/cyfitter_cfg.c **** #else
  55:.\Generated_Source\PSoC5/cyfitter_cfg.c ****     #error Unsupported toolchain
  56:.\Generated_Source\PSoC5/cyfitter_cfg.c **** #endif
  57:.\Generated_Source\PSoC5/cyfitter_cfg.c **** 
  58:.\Generated_Source\PSoC5/cyfitter_cfg.c **** 
  59:.\Generated_Source\PSoC5/cyfitter_cfg.c **** CY_CFG_UNUSED
  60:.\Generated_Source\PSoC5/cyfitter_cfg.c **** static void CYMEMZERO(void *s, size_t n);
  61:.\Generated_Source\PSoC5/cyfitter_cfg.c **** CY_CFG_UNUSED
  62:.\Generated_Source\PSoC5/cyfitter_cfg.c **** static void CYMEMZERO(void *s, size_t n)
  63:.\Generated_Source\PSoC5/cyfitter_cfg.c **** {
  64:.\Generated_Source\PSoC5/cyfitter_cfg.c **** 	(void)memset(s, 0, n);
  65:.\Generated_Source\PSoC5/cyfitter_cfg.c **** }
  66:.\Generated_Source\PSoC5/cyfitter_cfg.c **** CY_CFG_UNUSED
  67:.\Generated_Source\PSoC5/cyfitter_cfg.c **** static void CYCONFIGCPY(void *dest, const void *src, size_t n);
  68:.\Generated_Source\PSoC5/cyfitter_cfg.c **** CY_CFG_UNUSED
  69:.\Generated_Source\PSoC5/cyfitter_cfg.c **** static void CYCONFIGCPY(void *dest, const void *src, size_t n)
  70:.\Generated_Source\PSoC5/cyfitter_cfg.c **** {
  71:.\Generated_Source\PSoC5/cyfitter_cfg.c **** 	(void)memcpy(dest, src, n);
  72:.\Generated_Source\PSoC5/cyfitter_cfg.c **** }
  73:.\Generated_Source\PSoC5/cyfitter_cfg.c **** CY_CFG_UNUSED
  74:.\Generated_Source\PSoC5/cyfitter_cfg.c **** static void CYCONFIGCPYCODE(void *dest, const void *src, size_t n);
  75:.\Generated_Source\PSoC5/cyfitter_cfg.c **** CY_CFG_UNUSED
  76:.\Generated_Source\PSoC5/cyfitter_cfg.c **** static void CYCONFIGCPYCODE(void *dest, const void *src, size_t n)
  77:.\Generated_Source\PSoC5/cyfitter_cfg.c **** {
  78:.\Generated_Source\PSoC5/cyfitter_cfg.c **** 	(void)memcpy(dest, src, n);
  79:.\Generated_Source\PSoC5/cyfitter_cfg.c **** }
  80:.\Generated_Source\PSoC5/cyfitter_cfg.c **** 
  81:.\Generated_Source\PSoC5/cyfitter_cfg.c **** 
  82:.\Generated_Source\PSoC5/cyfitter_cfg.c **** 
  83:.\Generated_Source\PSoC5/cyfitter_cfg.c **** /* Clock startup error codes                                                   */
  84:.\Generated_Source\PSoC5/cyfitter_cfg.c **** #define CYCLOCKSTART_NO_ERROR    0u
  85:.\Generated_Source\PSoC5/cyfitter_cfg.c **** #define CYCLOCKSTART_XTAL_ERROR  1u
  86:.\Generated_Source\PSoC5/cyfitter_cfg.c **** #define CYCLOCKSTART_32KHZ_ERROR 2u
  87:.\Generated_Source\PSoC5/cyfitter_cfg.c **** #define CYCLOCKSTART_PLL_ERROR   3u
  88:.\Generated_Source\PSoC5/cyfitter_cfg.c **** 
  89:.\Generated_Source\PSoC5/cyfitter_cfg.c **** #ifdef CY_NEED_CYCLOCKSTARTUPERROR
ARM GAS  C:\Users\cruiser\AppData\Local\Temp\ccBQR52R.s 			page 3


  90:.\Generated_Source\PSoC5/cyfitter_cfg.c **** /*******************************************************************************
  91:.\Generated_Source\PSoC5/cyfitter_cfg.c **** * Function Name: CyClockStartupError
  92:.\Generated_Source\PSoC5/cyfitter_cfg.c **** ********************************************************************************
  93:.\Generated_Source\PSoC5/cyfitter_cfg.c **** * Summary:
  94:.\Generated_Source\PSoC5/cyfitter_cfg.c **** *  If an error is encountered during clock configuration (crystal startup error,
  95:.\Generated_Source\PSoC5/cyfitter_cfg.c **** *  PLL lock error, etc.), the system will end up here.  Unless reimplemented by
  96:.\Generated_Source\PSoC5/cyfitter_cfg.c **** *  the customer, this function will stop in an infinite loop.
  97:.\Generated_Source\PSoC5/cyfitter_cfg.c **** *
  98:.\Generated_Source\PSoC5/cyfitter_cfg.c **** * Parameters:
  99:.\Generated_Source\PSoC5/cyfitter_cfg.c **** *   void
 100:.\Generated_Source\PSoC5/cyfitter_cfg.c **** *
 101:.\Generated_Source\PSoC5/cyfitter_cfg.c **** * Return:
 102:.\Generated_Source\PSoC5/cyfitter_cfg.c **** *   void
 103:.\Generated_Source\PSoC5/cyfitter_cfg.c **** *
 104:.\Generated_Source\PSoC5/cyfitter_cfg.c **** *******************************************************************************/
 105:.\Generated_Source\PSoC5/cyfitter_cfg.c **** CY_CFG_UNUSED
 106:.\Generated_Source\PSoC5/cyfitter_cfg.c **** static void CyClockStartupError(uint8 errorCode);
 107:.\Generated_Source\PSoC5/cyfitter_cfg.c **** CY_CFG_UNUSED
 108:.\Generated_Source\PSoC5/cyfitter_cfg.c **** static void CyClockStartupError(uint8 errorCode)
 109:.\Generated_Source\PSoC5/cyfitter_cfg.c **** {
  26              		.loc 1 109 0
  27              		.cfi_startproc
  28              		@ Volatile: function does not return.
  29              		@ args = 0, pretend = 0, frame = 0
  30              		@ frame_needed = 0, uses_anonymous_args = 0
  31              		@ link register save eliminated.
  32              	.LVL0:
  33              	.L2:
 110:.\Generated_Source\PSoC5/cyfitter_cfg.c ****     /* To remove the compiler warning if errorCode not used.                */
 111:.\Generated_Source\PSoC5/cyfitter_cfg.c ****     errorCode = errorCode;
 112:.\Generated_Source\PSoC5/cyfitter_cfg.c **** 
 113:.\Generated_Source\PSoC5/cyfitter_cfg.c ****     /* `#START CyClockStartupError` */
 114:.\Generated_Source\PSoC5/cyfitter_cfg.c **** 
 115:.\Generated_Source\PSoC5/cyfitter_cfg.c ****     /* If we have a clock startup error (bad MHz crystal, PLL lock, etc.),  */
 116:.\Generated_Source\PSoC5/cyfitter_cfg.c ****     /* we will end up here to allow the customer to implement something to  */
 117:.\Generated_Source\PSoC5/cyfitter_cfg.c ****     /* deal with the clock condition.                                       */
 118:.\Generated_Source\PSoC5/cyfitter_cfg.c **** 
 119:.\Generated_Source\PSoC5/cyfitter_cfg.c ****     /* `#END` */
 120:.\Generated_Source\PSoC5/cyfitter_cfg.c **** 
 121:.\Generated_Source\PSoC5/cyfitter_cfg.c ****     /* If nothing else, stop here since the clocks have not started         */
 122:.\Generated_Source\PSoC5/cyfitter_cfg.c ****     /* correctly.                                                           */
 123:.\Generated_Source\PSoC5/cyfitter_cfg.c ****     while(1) {}
  34              		.loc 1 123 0 discriminator 1
  35 0000 FEE7     		b	.L2
  36              		.cfi_endproc
  37              	.LFE3:
  38              		.size	CyClockStartupError, .-CyClockStartupError
  39 0002 00BF     		.section	.text.cfg_write_bytes32,"ax",%progbits
  40              		.align	2
  41              		.thumb
  42              		.thumb_func
  43              		.type	cfg_write_bytes32, %function
  44              	cfg_write_bytes32:
  45              	.LFB4:
 124:.\Generated_Source\PSoC5/cyfitter_cfg.c **** }
 125:.\Generated_Source\PSoC5/cyfitter_cfg.c **** #endif
 126:.\Generated_Source\PSoC5/cyfitter_cfg.c **** 
ARM GAS  C:\Users\cruiser\AppData\Local\Temp\ccBQR52R.s 			page 4


 127:.\Generated_Source\PSoC5/cyfitter_cfg.c **** #define CY_CFG_BASE_ADDR_COUNT 33u
 128:.\Generated_Source\PSoC5/cyfitter_cfg.c **** CYPACKED typedef struct
 129:.\Generated_Source\PSoC5/cyfitter_cfg.c **** {
 130:.\Generated_Source\PSoC5/cyfitter_cfg.c **** 	uint8 offset;
 131:.\Generated_Source\PSoC5/cyfitter_cfg.c **** 	uint8 value;
 132:.\Generated_Source\PSoC5/cyfitter_cfg.c **** } CYPACKED_ATTR cy_cfg_addrvalue_t;
 133:.\Generated_Source\PSoC5/cyfitter_cfg.c **** 
 134:.\Generated_Source\PSoC5/cyfitter_cfg.c **** #define cy_cfg_addr_table ((const uint32 CYFAR *)0x48000000u)
 135:.\Generated_Source\PSoC5/cyfitter_cfg.c **** #define cy_cfg_data_table ((const cy_cfg_addrvalue_t CYFAR *)0x48000084u)
 136:.\Generated_Source\PSoC5/cyfitter_cfg.c **** 
 137:.\Generated_Source\PSoC5/cyfitter_cfg.c **** /* IOPINS0_0 Address: CYREG_PRT0_DM0 Size (bytes): 8 */
 138:.\Generated_Source\PSoC5/cyfitter_cfg.c **** #define BS_IOPINS0_0_VAL ((const uint8 CYFAR *)0x4800039Cu)
 139:.\Generated_Source\PSoC5/cyfitter_cfg.c **** 
 140:.\Generated_Source\PSoC5/cyfitter_cfg.c **** /* IOPINS0_7 Address: CYREG_PRT12_DR Size (bytes): 10 */
 141:.\Generated_Source\PSoC5/cyfitter_cfg.c **** #define BS_IOPINS0_7_VAL ((const uint8 CYFAR *)0x480003A4u)
 142:.\Generated_Source\PSoC5/cyfitter_cfg.c **** 
 143:.\Generated_Source\PSoC5/cyfitter_cfg.c **** /* IOPINS1_7 Address: CYREG_PRT12_DR + 0x0000000Bu Size (bytes): 5 */
 144:.\Generated_Source\PSoC5/cyfitter_cfg.c **** #define BS_IOPINS1_7_VAL ((const uint8 CYFAR *)0x480003B0u)
 145:.\Generated_Source\PSoC5/cyfitter_cfg.c **** 
 146:.\Generated_Source\PSoC5/cyfitter_cfg.c **** /* IOPINS0_8 Address: CYREG_PRT15_DR Size (bytes): 10 */
 147:.\Generated_Source\PSoC5/cyfitter_cfg.c **** #define BS_IOPINS0_8_VAL ((const uint8 CYFAR *)0x480003B8u)
 148:.\Generated_Source\PSoC5/cyfitter_cfg.c **** 
 149:.\Generated_Source\PSoC5/cyfitter_cfg.c **** /* IOPINS0_1 Address: CYREG_PRT1_DM0 Size (bytes): 8 */
 150:.\Generated_Source\PSoC5/cyfitter_cfg.c **** #define BS_IOPINS0_1_VAL ((const uint8 CYFAR *)0x480003C4u)
 151:.\Generated_Source\PSoC5/cyfitter_cfg.c **** 
 152:.\Generated_Source\PSoC5/cyfitter_cfg.c **** /* IOPINS0_2 Address: CYREG_PRT2_DM0 Size (bytes): 8 */
 153:.\Generated_Source\PSoC5/cyfitter_cfg.c **** #define BS_IOPINS0_2_VAL ((const uint8 CYFAR *)0x480003CCu)
 154:.\Generated_Source\PSoC5/cyfitter_cfg.c **** 
 155:.\Generated_Source\PSoC5/cyfitter_cfg.c **** /* IOPINS0_3 Address: CYREG_PRT3_DM0 Size (bytes): 8 */
 156:.\Generated_Source\PSoC5/cyfitter_cfg.c **** #define BS_IOPINS0_3_VAL ((const uint8 CYFAR *)0x480003D4u)
 157:.\Generated_Source\PSoC5/cyfitter_cfg.c **** 
 158:.\Generated_Source\PSoC5/cyfitter_cfg.c **** /* CYDEV_CLKDIST_ACFG0_CFG0 Address: CYREG_CLKDIST_ACFG0_CFG0 Size (bytes): 4 */
 159:.\Generated_Source\PSoC5/cyfitter_cfg.c **** #define BS_CYDEV_CLKDIST_ACFG0_CFG0_VAL ((const uint8 CYFAR *)0x480003DCu)
 160:.\Generated_Source\PSoC5/cyfitter_cfg.c **** 
 161:.\Generated_Source\PSoC5/cyfitter_cfg.c **** /* PHUB_CFGMEM1 Address: CYREG_PHUB_CFGMEM1_CFG0 Size (bytes): 4 */
 162:.\Generated_Source\PSoC5/cyfitter_cfg.c **** #define BS_PHUB_CFGMEM1_VAL ((const uint8 CYFAR *)0x480003E0u)
 163:.\Generated_Source\PSoC5/cyfitter_cfg.c **** 
 164:.\Generated_Source\PSoC5/cyfitter_cfg.c **** /* PHUB_CFGMEM8 Address: CYREG_PHUB_CFGMEM8_CFG0 Size (bytes): 4 */
 165:.\Generated_Source\PSoC5/cyfitter_cfg.c **** #define BS_PHUB_CFGMEM8_VAL ((const uint8 CYFAR *)0x480003E4u)
 166:.\Generated_Source\PSoC5/cyfitter_cfg.c **** 
 167:.\Generated_Source\PSoC5/cyfitter_cfg.c **** /* PHUB_CFGMEM9 Address: CYREG_PHUB_CFGMEM9_CFG0 Size (bytes): 4 */
 168:.\Generated_Source\PSoC5/cyfitter_cfg.c **** #define BS_PHUB_CFGMEM9_VAL ((const uint8 CYFAR *)0x480003E8u)
 169:.\Generated_Source\PSoC5/cyfitter_cfg.c **** 
 170:.\Generated_Source\PSoC5/cyfitter_cfg.c **** 
 171:.\Generated_Source\PSoC5/cyfitter_cfg.c **** /*******************************************************************************
 172:.\Generated_Source\PSoC5/cyfitter_cfg.c **** * Function Name: cfg_write_bytes32
 173:.\Generated_Source\PSoC5/cyfitter_cfg.c **** ********************************************************************************
 174:.\Generated_Source\PSoC5/cyfitter_cfg.c **** * Summary:
 175:.\Generated_Source\PSoC5/cyfitter_cfg.c **** *  This function is used for setting up the chip configuration areas that
 176:.\Generated_Source\PSoC5/cyfitter_cfg.c **** *  contain relatively sparse data.
 177:.\Generated_Source\PSoC5/cyfitter_cfg.c **** *
 178:.\Generated_Source\PSoC5/cyfitter_cfg.c **** * Parameters:
 179:.\Generated_Source\PSoC5/cyfitter_cfg.c **** *   void
 180:.\Generated_Source\PSoC5/cyfitter_cfg.c **** *
 181:.\Generated_Source\PSoC5/cyfitter_cfg.c **** * Return:
 182:.\Generated_Source\PSoC5/cyfitter_cfg.c **** *   void
 183:.\Generated_Source\PSoC5/cyfitter_cfg.c **** *
ARM GAS  C:\Users\cruiser\AppData\Local\Temp\ccBQR52R.s 			page 5


 184:.\Generated_Source\PSoC5/cyfitter_cfg.c **** *******************************************************************************/
 185:.\Generated_Source\PSoC5/cyfitter_cfg.c **** static void cfg_write_bytes32(const uint32 addr_table[], const cy_cfg_addrvalue_t data_table[]);
 186:.\Generated_Source\PSoC5/cyfitter_cfg.c **** static void cfg_write_bytes32(const uint32 addr_table[], const cy_cfg_addrvalue_t data_table[])
 187:.\Generated_Source\PSoC5/cyfitter_cfg.c **** {
  46              		.loc 1 187 0
  47              		.cfi_startproc
  48              		@ args = 0, pretend = 0, frame = 0
  49              		@ frame_needed = 0, uses_anonymous_args = 0
  50              		@ link register save eliminated.
  51              	.LVL1:
  52 0000 F0B4     		push	{r4, r5, r6, r7}
  53              		.cfi_def_cfa_offset 16
  54              		.cfi_offset 4, -16
  55              		.cfi_offset 5, -12
  56              		.cfi_offset 6, -8
  57              		.cfi_offset 7, -4
  58              	.LVL2:
 188:.\Generated_Source\PSoC5/cyfitter_cfg.c **** 	/* For 32-bit little-endian architectures */
 189:.\Generated_Source\PSoC5/cyfitter_cfg.c **** 	uint32 i, j = 0u;
  59              		.loc 1 189 0
  60 0002 0022     		movs	r2, #0
 190:.\Generated_Source\PSoC5/cyfitter_cfg.c **** 	for (i = 0u; i < CY_CFG_BASE_ADDR_COUNT; i++)
  61              		.loc 1 190 0
  62 0004 1746     		mov	r7, r2
  63 0006 11E0     		b	.L4
  64              	.LVL3:
  65              	.L7:
  66              	.LBB2:
 191:.\Generated_Source\PSoC5/cyfitter_cfg.c **** 	{
 192:.\Generated_Source\PSoC5/cyfitter_cfg.c **** 		uint32 baseAddr = addr_table[i];
  67              		.loc 1 192 0
  68 0008 50F82760 		ldr	r6, [r0, r7, lsl #2]
  69              	.LVL4:
 193:.\Generated_Source\PSoC5/cyfitter_cfg.c **** 		uint8 count = (uint8)baseAddr;
  70              		.loc 1 193 0
  71 000c F3B2     		uxtb	r3, r6
  72              	.LVL5:
 194:.\Generated_Source\PSoC5/cyfitter_cfg.c **** 		baseAddr &= 0xFFFFFF00u;
  73              		.loc 1 194 0
  74 000e 26F0FF06 		bic	r6, r6, #255
  75              	.LVL6:
 195:.\Generated_Source\PSoC5/cyfitter_cfg.c **** 		while (count != 0u)
  76              		.loc 1 195 0
  77 0012 08E0     		b	.L5
  78              	.L6:
 196:.\Generated_Source\PSoC5/cyfitter_cfg.c **** 		{
 197:.\Generated_Source\PSoC5/cyfitter_cfg.c **** 			CY_SET_XTND_REG8((void CYFAR *)(baseAddr + data_table[j].offset), data_table[j].value);
  79              		.loc 1 197 0
  80 0014 01EB4205 		add	r5, r1, r2, lsl #1
  81 0018 11F81240 		ldrb	r4, [r1, r2, lsl #1]	@ zero_extendqisi2
  82 001c 6D78     		ldrb	r5, [r5, #1]	@ zero_extendqisi2
  83 001e A555     		strb	r5, [r4, r6]
 198:.\Generated_Source\PSoC5/cyfitter_cfg.c **** 			j++;
  84              		.loc 1 198 0
  85 0020 0132     		adds	r2, r2, #1
  86              	.LVL7:
 199:.\Generated_Source\PSoC5/cyfitter_cfg.c **** 			count--;
ARM GAS  C:\Users\cruiser\AppData\Local\Temp\ccBQR52R.s 			page 6


  87              		.loc 1 199 0
  88 0022 013B     		subs	r3, r3, #1
  89              	.LVL8:
  90 0024 DBB2     		uxtb	r3, r3
  91              	.LVL9:
  92              	.L5:
 195:.\Generated_Source\PSoC5/cyfitter_cfg.c **** 		{
  93              		.loc 1 195 0
  94 0026 002B     		cmp	r3, #0
  95 0028 F4D1     		bne	.L6
  96              	.LBE2:
 190:.\Generated_Source\PSoC5/cyfitter_cfg.c **** 	{
  97              		.loc 1 190 0 discriminator 2
  98 002a 0137     		adds	r7, r7, #1
  99              	.LVL10:
 100              	.L4:
 190:.\Generated_Source\PSoC5/cyfitter_cfg.c **** 	{
 101              		.loc 1 190 0 is_stmt 0 discriminator 1
 102 002c 202F     		cmp	r7, #32
 103 002e EBD9     		bls	.L7
 200:.\Generated_Source\PSoC5/cyfitter_cfg.c **** 		}
 201:.\Generated_Source\PSoC5/cyfitter_cfg.c **** 	}
 202:.\Generated_Source\PSoC5/cyfitter_cfg.c **** }
 104              		.loc 1 202 0 is_stmt 1
 105 0030 F0BC     		pop	{r4, r5, r6, r7}
 106              		.cfi_restore 7
 107              		.cfi_restore 6
 108              		.cfi_restore 5
 109              		.cfi_restore 4
 110              		.cfi_def_cfa_offset 0
 111              	.LVL11:
 112 0032 7047     		bx	lr
 113              		.cfi_endproc
 114              	.LFE4:
 115              		.size	cfg_write_bytes32, .-cfg_write_bytes32
 116              		.section	.text.CYMEMZERO,"ax",%progbits
 117              		.align	2
 118              		.thumb
 119              		.thumb_func
 120              		.type	CYMEMZERO, %function
 121              	CYMEMZERO:
 122              	.LFB0:
  63:.\Generated_Source\PSoC5/cyfitter_cfg.c **** 	(void)memset(s, 0, n);
 123              		.loc 1 63 0
 124              		.cfi_startproc
 125              		@ args = 0, pretend = 0, frame = 0
 126              		@ frame_needed = 0, uses_anonymous_args = 0
 127              	.LVL12:
 128 0000 08B5     		push	{r3, lr}
 129              		.cfi_def_cfa_offset 8
 130              		.cfi_offset 3, -8
 131              		.cfi_offset 14, -4
 132 0002 0A46     		mov	r2, r1
  64:.\Generated_Source\PSoC5/cyfitter_cfg.c **** }
 133              		.loc 1 64 0
 134 0004 0021     		movs	r1, #0
 135              	.LVL13:
ARM GAS  C:\Users\cruiser\AppData\Local\Temp\ccBQR52R.s 			page 7


 136 0006 FFF7FEFF 		bl	memset
 137              	.LVL14:
 138 000a 08BD     		pop	{r3, pc}
 139              		.cfi_endproc
 140              	.LFE0:
 141              		.size	CYMEMZERO, .-CYMEMZERO
 142              		.section	.text.AnalogSetDefault,"ax",%progbits
 143              		.align	2
 144              		.thumb
 145              		.thumb_func
 146              		.type	AnalogSetDefault, %function
 147              	AnalogSetDefault:
 148              	.LFB6:
 203:.\Generated_Source\PSoC5/cyfitter_cfg.c **** 
 204:.\Generated_Source\PSoC5/cyfitter_cfg.c **** /*******************************************************************************
 205:.\Generated_Source\PSoC5/cyfitter_cfg.c **** * Function Name: ClockSetup
 206:.\Generated_Source\PSoC5/cyfitter_cfg.c **** ********************************************************************************
 207:.\Generated_Source\PSoC5/cyfitter_cfg.c **** *
 208:.\Generated_Source\PSoC5/cyfitter_cfg.c **** * Summary:
 209:.\Generated_Source\PSoC5/cyfitter_cfg.c **** *  Performs the initialization of all of the clocks in the device based on the
 210:.\Generated_Source\PSoC5/cyfitter_cfg.c **** *  settings in the Clock tab of the DWR.  This includes enabling the requested
 211:.\Generated_Source\PSoC5/cyfitter_cfg.c **** *  clocks and setting the necessary dividers to produce the desired frequency. 
 212:.\Generated_Source\PSoC5/cyfitter_cfg.c **** *
 213:.\Generated_Source\PSoC5/cyfitter_cfg.c **** * Parameters:
 214:.\Generated_Source\PSoC5/cyfitter_cfg.c **** *  void
 215:.\Generated_Source\PSoC5/cyfitter_cfg.c **** *
 216:.\Generated_Source\PSoC5/cyfitter_cfg.c **** * Return:
 217:.\Generated_Source\PSoC5/cyfitter_cfg.c **** *  void
 218:.\Generated_Source\PSoC5/cyfitter_cfg.c **** *
 219:.\Generated_Source\PSoC5/cyfitter_cfg.c **** *******************************************************************************/
 220:.\Generated_Source\PSoC5/cyfitter_cfg.c **** static void ClockSetup(void);
 221:.\Generated_Source\PSoC5/cyfitter_cfg.c **** static void ClockSetup(void)
 222:.\Generated_Source\PSoC5/cyfitter_cfg.c **** {
 223:.\Generated_Source\PSoC5/cyfitter_cfg.c **** 	uint32 timeout;
 224:.\Generated_Source\PSoC5/cyfitter_cfg.c **** 	uint8 pllLock;
 225:.\Generated_Source\PSoC5/cyfitter_cfg.c **** 
 226:.\Generated_Source\PSoC5/cyfitter_cfg.c **** 
 227:.\Generated_Source\PSoC5/cyfitter_cfg.c **** 	/* Configure Digital Clocks based on settings from Clock DWR */
 228:.\Generated_Source\PSoC5/cyfitter_cfg.c **** 	CY_SET_XTND_REG16((void CYFAR *)(CYREG_CLKDIST_DCFG0_CFG0), 0x0000u);
 229:.\Generated_Source\PSoC5/cyfitter_cfg.c **** 	CY_SET_XTND_REG8((void CYFAR *)(CYREG_CLKDIST_DCFG0_CFG0 + 0x2u), 0x50u);
 230:.\Generated_Source\PSoC5/cyfitter_cfg.c **** 	CY_SET_XTND_REG16((void CYFAR *)(CYREG_CLKDIST_DCFG1_CFG0), 0x0003u);
 231:.\Generated_Source\PSoC5/cyfitter_cfg.c **** 	CY_SET_XTND_REG8((void CYFAR *)(CYREG_CLKDIST_DCFG1_CFG0 + 0x2u), 0x18u);
 232:.\Generated_Source\PSoC5/cyfitter_cfg.c **** 	CY_SET_XTND_REG16((void CYFAR *)(CYREG_CLKDIST_DCFG2_CFG0), 0x0003u);
 233:.\Generated_Source\PSoC5/cyfitter_cfg.c **** 	CY_SET_XTND_REG8((void CYFAR *)(CYREG_CLKDIST_DCFG2_CFG0 + 0x2u), 0x18u);
 234:.\Generated_Source\PSoC5/cyfitter_cfg.c **** 	CY_SET_XTND_REG16((void CYFAR *)(CYREG_CLKDIST_DCFG3_CFG0), 0x0008u);
 235:.\Generated_Source\PSoC5/cyfitter_cfg.c **** 	CY_SET_XTND_REG8((void CYFAR *)(CYREG_CLKDIST_DCFG3_CFG0 + 0x2u), 0x18u);
 236:.\Generated_Source\PSoC5/cyfitter_cfg.c **** 
 237:.\Generated_Source\PSoC5/cyfitter_cfg.c **** 	/* Configure Analog Clocks based on settings from Clock DWR */
 238:.\Generated_Source\PSoC5/cyfitter_cfg.c **** 	CYCONFIGCPY((void CYFAR *)(CYREG_CLKDIST_ACFG0_CFG0), (const void CYFAR *)(BS_CYDEV_CLKDIST_ACFG0_
 239:.\Generated_Source\PSoC5/cyfitter_cfg.c **** 
 240:.\Generated_Source\PSoC5/cyfitter_cfg.c **** 	/* Configure ILO based on settings from Clock DWR */
 241:.\Generated_Source\PSoC5/cyfitter_cfg.c **** 	CY_SET_XTND_REG8((void CYFAR *)(CYREG_SLOWCLK_ILO_CR0), 0x06u);
 242:.\Generated_Source\PSoC5/cyfitter_cfg.c **** 
 243:.\Generated_Source\PSoC5/cyfitter_cfg.c **** 	/* Configure IMO based on settings from Clock DWR */
 244:.\Generated_Source\PSoC5/cyfitter_cfg.c **** 	CY_SET_XTND_REG8((void CYFAR *)(CYREG_FASTCLK_IMO_CR), 0x52u);
 245:.\Generated_Source\PSoC5/cyfitter_cfg.c **** 	CY_SET_XTND_REG8((void CYFAR *)(CYREG_IMO_TR1), (CY_GET_XTND_REG8((void CYFAR *)CYREG_FLSHID_CUST_
 246:.\Generated_Source\PSoC5/cyfitter_cfg.c **** 
ARM GAS  C:\Users\cruiser\AppData\Local\Temp\ccBQR52R.s 			page 8


 247:.\Generated_Source\PSoC5/cyfitter_cfg.c **** 	/* Configure PLL based on settings from Clock DWR */
 248:.\Generated_Source\PSoC5/cyfitter_cfg.c **** 	CY_SET_XTND_REG16((void CYFAR *)(CYREG_FASTCLK_PLL_P), 0x0D2Au);
 249:.\Generated_Source\PSoC5/cyfitter_cfg.c **** 	CY_SET_XTND_REG16((void CYFAR *)(CYREG_FASTCLK_PLL_CFG0), 0x2251u);
 250:.\Generated_Source\PSoC5/cyfitter_cfg.c **** 	/* Wait up to 250us for the PLL to lock */
 251:.\Generated_Source\PSoC5/cyfitter_cfg.c **** 	pllLock = 0u;
 252:.\Generated_Source\PSoC5/cyfitter_cfg.c **** 	for (timeout = 250u / 10u; (timeout > 0u) && (pllLock != 0x03u); timeout--)
 253:.\Generated_Source\PSoC5/cyfitter_cfg.c **** 	{ 
 254:.\Generated_Source\PSoC5/cyfitter_cfg.c **** 		pllLock = 0x03u & ((uint8)((uint8)pllLock << 1) | ((CY_GET_XTND_REG8((void CYFAR *)CYREG_FASTCLK_
 255:.\Generated_Source\PSoC5/cyfitter_cfg.c **** 		CyDelayCycles(10u * 48u); /* Delay 10us based on 48MHz clock */
 256:.\Generated_Source\PSoC5/cyfitter_cfg.c **** 	}
 257:.\Generated_Source\PSoC5/cyfitter_cfg.c **** 	/* If we ran out of time the PLL didn't lock so go to the error function */
 258:.\Generated_Source\PSoC5/cyfitter_cfg.c **** 	if (timeout == 0u)
 259:.\Generated_Source\PSoC5/cyfitter_cfg.c **** 	{
 260:.\Generated_Source\PSoC5/cyfitter_cfg.c **** 		CyClockStartupError(CYCLOCKSTART_PLL_ERROR);
 261:.\Generated_Source\PSoC5/cyfitter_cfg.c **** 	}
 262:.\Generated_Source\PSoC5/cyfitter_cfg.c **** 
 263:.\Generated_Source\PSoC5/cyfitter_cfg.c **** 	/* Configure Bus/Master Clock based on settings from Clock DWR */
 264:.\Generated_Source\PSoC5/cyfitter_cfg.c **** 	CY_SET_XTND_REG16((void CYFAR *)(CYREG_CLKDIST_MSTR0), 0x0100u);
 265:.\Generated_Source\PSoC5/cyfitter_cfg.c **** 	CY_SET_XTND_REG8((void CYFAR *)(CYREG_CLKDIST_MSTR0), 0x07u);
 266:.\Generated_Source\PSoC5/cyfitter_cfg.c **** 	CY_SET_XTND_REG8((void CYFAR *)(CYREG_CLKDIST_BCFG0), 0x00u);
 267:.\Generated_Source\PSoC5/cyfitter_cfg.c **** 	CY_SET_XTND_REG8((void CYFAR *)(CYREG_CLKDIST_BCFG2), 0x48u);
 268:.\Generated_Source\PSoC5/cyfitter_cfg.c **** 	CY_SET_XTND_REG8((void CYFAR *)(CYREG_CLKDIST_MSTR0), 0x00u);
 269:.\Generated_Source\PSoC5/cyfitter_cfg.c **** 
 270:.\Generated_Source\PSoC5/cyfitter_cfg.c **** 	/* Configure USB Clock based on settings from Clock DWR */
 271:.\Generated_Source\PSoC5/cyfitter_cfg.c **** 	CY_SET_XTND_REG8((void CYFAR *)(CYREG_CLKDIST_UCFG), 0x00u);
 272:.\Generated_Source\PSoC5/cyfitter_cfg.c **** 	CY_SET_XTND_REG8((void CYFAR *)(CYREG_CLKDIST_LD), 0x02u);
 273:.\Generated_Source\PSoC5/cyfitter_cfg.c **** 	CY_SET_XTND_REG8((void CYFAR *)(CYREG_CLKDIST_DLY1), 0x04u);
 274:.\Generated_Source\PSoC5/cyfitter_cfg.c **** 
 275:.\Generated_Source\PSoC5/cyfitter_cfg.c **** 	CY_SET_XTND_REG8((void CYFAR *)(CYREG_PM_ACT_CFG2), ((CY_GET_XTND_REG8((void CYFAR *)CYREG_PM_ACT_
 276:.\Generated_Source\PSoC5/cyfitter_cfg.c **** 	CY_SET_XTND_REG8((void CYFAR *)(CYREG_PM_ACT_CFG1), ((CY_GET_XTND_REG8((void CYFAR *)CYREG_PM_ACT_
 277:.\Generated_Source\PSoC5/cyfitter_cfg.c **** 	CY_SET_XTND_REG8((void CYFAR *)(CYREG_PM_ACT_CFG0), ((CY_GET_XTND_REG8((void CYFAR *)CYREG_PM_ACT_
 278:.\Generated_Source\PSoC5/cyfitter_cfg.c **** }
 279:.\Generated_Source\PSoC5/cyfitter_cfg.c **** 
 280:.\Generated_Source\PSoC5/cyfitter_cfg.c **** 
 281:.\Generated_Source\PSoC5/cyfitter_cfg.c **** /* Analog API Functions */
 282:.\Generated_Source\PSoC5/cyfitter_cfg.c **** 
 283:.\Generated_Source\PSoC5/cyfitter_cfg.c **** 
 284:.\Generated_Source\PSoC5/cyfitter_cfg.c **** /*******************************************************************************
 285:.\Generated_Source\PSoC5/cyfitter_cfg.c **** * Function Name: AnalogSetDefault
 286:.\Generated_Source\PSoC5/cyfitter_cfg.c **** ********************************************************************************
 287:.\Generated_Source\PSoC5/cyfitter_cfg.c **** *
 288:.\Generated_Source\PSoC5/cyfitter_cfg.c **** * Summary:
 289:.\Generated_Source\PSoC5/cyfitter_cfg.c **** *  Sets up the analog portions of the chip to default values based on chip
 290:.\Generated_Source\PSoC5/cyfitter_cfg.c **** *  configuration options from the project.
 291:.\Generated_Source\PSoC5/cyfitter_cfg.c **** *
 292:.\Generated_Source\PSoC5/cyfitter_cfg.c **** * Parameters:
 293:.\Generated_Source\PSoC5/cyfitter_cfg.c **** *  void
 294:.\Generated_Source\PSoC5/cyfitter_cfg.c **** *
 295:.\Generated_Source\PSoC5/cyfitter_cfg.c **** * Return:
 296:.\Generated_Source\PSoC5/cyfitter_cfg.c **** *  void
 297:.\Generated_Source\PSoC5/cyfitter_cfg.c **** *
 298:.\Generated_Source\PSoC5/cyfitter_cfg.c **** *******************************************************************************/
 299:.\Generated_Source\PSoC5/cyfitter_cfg.c **** static void AnalogSetDefault(void);
 300:.\Generated_Source\PSoC5/cyfitter_cfg.c **** static void AnalogSetDefault(void)
 301:.\Generated_Source\PSoC5/cyfitter_cfg.c **** {
 149              		.loc 1 301 0
 150              		.cfi_startproc
ARM GAS  C:\Users\cruiser\AppData\Local\Temp\ccBQR52R.s 			page 9


 151              		@ args = 0, pretend = 0, frame = 0
 152              		@ frame_needed = 0, uses_anonymous_args = 0
 153 0000 F8B5     		push	{r3, r4, r5, r6, r7, lr}
 154              		.cfi_def_cfa_offset 24
 155              		.cfi_offset 3, -24
 156              		.cfi_offset 4, -20
 157              		.cfi_offset 5, -16
 158              		.cfi_offset 6, -12
 159              		.cfi_offset 7, -8
 160              		.cfi_offset 14, -4
 302:.\Generated_Source\PSoC5/cyfitter_cfg.c **** 	uint8 bg_xover_inl_trim = CY_GET_XTND_REG8((void CYFAR *)(CYREG_FLSHID_MFG_CFG_BG_XOVER_INL_TRIM +
 161              		.loc 1 302 0
 162 0002 3E4B     		ldr	r3, .L13
 163 0004 1B78     		ldrb	r3, [r3]	@ zero_extendqisi2
 164 0006 DBB2     		uxtb	r3, r3
 165              	.LVL15:
 303:.\Generated_Source\PSoC5/cyfitter_cfg.c **** 	uint8 cr4 = CY_GET_XTND_REG8((void CYFAR *)(CYREG_RESET_CR4));
 166              		.loc 1 303 0
 167 0008 3D4E     		ldr	r6, .L13+4
 168 000a 3478     		ldrb	r4, [r6]	@ zero_extendqisi2
 169 000c E4B2     		uxtb	r4, r4
 170              	.LVL16:
 304:.\Generated_Source\PSoC5/cyfitter_cfg.c **** 	uint8 cr5 = CY_GET_XTND_REG8((void CYFAR *)(CYREG_RESET_CR5));
 171              		.loc 1 304 0
 172 000e 3D4F     		ldr	r7, .L13+8
 173 0010 3D78     		ldrb	r5, [r7]	@ zero_extendqisi2
 174 0012 EDB2     		uxtb	r5, r5
 175              	.LVL17:
 305:.\Generated_Source\PSoC5/cyfitter_cfg.c **** 	CY_SET_XTND_REG8((void CYFAR *)(CYREG_BG_DFT0), (bg_xover_inl_trim & 0x07u));
 176              		.loc 1 305 0
 177 0014 03F00701 		and	r1, r3, #7
 178 0018 3B4A     		ldr	r2, .L13+12
 179 001a 1170     		strb	r1, [r2]
 306:.\Generated_Source\PSoC5/cyfitter_cfg.c **** 	CY_SET_XTND_REG8((void CYFAR *)(CYREG_BG_DFT1), ((bg_xover_inl_trim >> 4) & 0x0Fu));
 180              		.loc 1 306 0
 181 001c 1B09     		lsrs	r3, r3, #4
 182              	.LVL18:
 183 001e 0132     		adds	r2, r2, #1
 184 0020 1370     		strb	r3, [r2]
 307:.\Generated_Source\PSoC5/cyfitter_cfg.c **** 	/* Disable PRES while setting up SAR voltage reference */
 308:.\Generated_Source\PSoC5/cyfitter_cfg.c **** 	CY_SET_XTND_REG8((void CYFAR *)(CYREG_RESET_CR4), (cr4 | 0x03u));
 185              		.loc 1 308 0
 186 0022 44F00303 		orr	r3, r4, #3
 187 0026 3370     		strb	r3, [r6]
 309:.\Generated_Source\PSoC5/cyfitter_cfg.c **** 	CY_SET_XTND_REG8((void CYFAR *)(CYREG_RESET_CR5), (cr5 | 0x03u));
 188              		.loc 1 309 0
 189 0028 45F00303 		orr	r3, r5, #3
 190 002c 3B70     		strb	r3, [r7]
 310:.\Generated_Source\PSoC5/cyfitter_cfg.c **** 	CY_SET_XTND_REG16((void CYFAR *)CYREG_PRT0_AMUX, 0xA040u);
 191              		.loc 1 310 0
 192 002e 4AF24002 		movw	r2, #41024
 193 0032 364B     		ldr	r3, .L13+16
 194 0034 1A80     		strh	r2, [r3]	@ movhi
 311:.\Generated_Source\PSoC5/cyfitter_cfg.c **** 	CY_SET_XTND_REG8((void CYFAR *)CYREG_PRT1_AG, 0xF0u);
 195              		.loc 1 311 0
 196 0036 F022     		movs	r2, #240
 197 0038 1133     		adds	r3, r3, #17
ARM GAS  C:\Users\cruiser\AppData\Local\Temp\ccBQR52R.s 			page 10


 198 003a 1A70     		strb	r2, [r3]
 312:.\Generated_Source\PSoC5/cyfitter_cfg.c **** 	CY_SET_XTND_REG8((void CYFAR *)CYREG_PRT2_AG, 0x06u);
 199              		.loc 1 312 0
 200 003c 0622     		movs	r2, #6
 201 003e 1033     		adds	r3, r3, #16
 202 0040 1A70     		strb	r2, [r3]
 313:.\Generated_Source\PSoC5/cyfitter_cfg.c **** 	CY_SET_XTND_REG8((void CYFAR *)CYREG_PRT3_AG, 0x40u);
 203              		.loc 1 313 0
 204 0042 4023     		movs	r3, #64
 205 0044 324A     		ldr	r2, .L13+20
 206 0046 1370     		strb	r3, [r2]
 314:.\Generated_Source\PSoC5/cyfitter_cfg.c **** 	CY_SET_XTND_REG16((void CYFAR *)CYREG_PRT15_AMUX, 0x0102u);
 207              		.loc 1 314 0
 208 0048 4FF48171 		mov	r1, #258
 209 004c BF32     		adds	r2, r2, #191
 210 004e 1180     		strh	r1, [r2]	@ movhi
 315:.\Generated_Source\PSoC5/cyfitter_cfg.c **** 	CY_SET_XTND_REG8((void CYFAR *)CYREG_BG_CR0, 0x0Eu);
 211              		.loc 1 315 0
 212 0050 0E21     		movs	r1, #14
 213 0052 02F5CE62 		add	r2, r2, #1648
 214 0056 1170     		strb	r1, [r2]
 316:.\Generated_Source\PSoC5/cyfitter_cfg.c **** 	CY_SET_XTND_REG8((void CYFAR *)CYREG_SAR0_CSR1, 0x40u);
 215              		.loc 1 316 0
 216 0058 9532     		adds	r2, r2, #149
 217 005a 1370     		strb	r3, [r2]
 317:.\Generated_Source\PSoC5/cyfitter_cfg.c **** 	CY_SET_XTND_REG8((void CYFAR *)CYREG_SAR0_CSR3, 0x40u);
 218              		.loc 1 317 0
 219 005c 0232     		adds	r2, r2, #2
 220 005e 1370     		strb	r3, [r2]
 318:.\Generated_Source\PSoC5/cyfitter_cfg.c **** 	CY_SET_XTND_REG8((void CYFAR *)CYREG_SAR1_CSR1, 0x40u);
 221              		.loc 1 318 0
 222 0060 0632     		adds	r2, r2, #6
 223 0062 1370     		strb	r3, [r2]
 319:.\Generated_Source\PSoC5/cyfitter_cfg.c **** 	CY_SET_XTND_REG8((void CYFAR *)CYREG_SAR1_CSR3, 0x40u);
 224              		.loc 1 319 0
 225 0064 0232     		adds	r2, r2, #2
 226 0066 1370     		strb	r3, [r2]
 320:.\Generated_Source\PSoC5/cyfitter_cfg.c **** 	CY_SET_XTND_REG8((void CYFAR *)CYREG_SC0_SW0, 0x40u);
 227              		.loc 1 320 0
 228 0068 F532     		adds	r2, r2, #245
 229 006a 1370     		strb	r3, [r2]
 321:.\Generated_Source\PSoC5/cyfitter_cfg.c **** 	CY_SET_XTND_REG8((void CYFAR *)CYREG_SC0_SW4, 0x01u);
 230              		.loc 1 321 0
 231 006c 0122     		movs	r2, #1
 232 006e 2949     		ldr	r1, .L13+24
 233 0070 0A70     		strb	r2, [r1]
 322:.\Generated_Source\PSoC5/cyfitter_cfg.c **** 	CY_SET_XTND_REG8((void CYFAR *)CYREG_SC0_SW6, 0x01u);
 234              		.loc 1 322 0
 235 0072 0231     		adds	r1, r1, #2
 236 0074 0A70     		strb	r2, [r1]
 323:.\Generated_Source\PSoC5/cyfitter_cfg.c **** 	CY_SET_XTND_REG8((void CYFAR *)CYREG_SC0_SW10, 0x08u);
 237              		.loc 1 323 0
 238 0076 0821     		movs	r1, #8
 239 0078 2748     		ldr	r0, .L13+28
 240 007a 0170     		strb	r1, [r0]
 324:.\Generated_Source\PSoC5/cyfitter_cfg.c **** 	CY_SET_XTND_REG8((void CYFAR *)CYREG_SC1_SW0, 0x40u);
 241              		.loc 1 324 0
ARM GAS  C:\Users\cruiser\AppData\Local\Temp\ccBQR52R.s 			page 11


 242 007c 0630     		adds	r0, r0, #6
 243 007e 0370     		strb	r3, [r0]
 325:.\Generated_Source\PSoC5/cyfitter_cfg.c **** 	CY_SET_XTND_REG8((void CYFAR *)CYREG_SC1_SW4, 0x01u);
 244              		.loc 1 325 0
 245 0080 0430     		adds	r0, r0, #4
 246 0082 0270     		strb	r2, [r0]
 326:.\Generated_Source\PSoC5/cyfitter_cfg.c **** 	CY_SET_XTND_REG8((void CYFAR *)CYREG_SC1_SW8, 0x20u);
 247              		.loc 1 326 0
 248 0084 4FF0200E 		mov	lr, #32
 249 0088 0430     		adds	r0, r0, #4
 250 008a 80F800E0 		strb	lr, [r0]
 327:.\Generated_Source\PSoC5/cyfitter_cfg.c **** 	CY_SET_XTND_REG8((void CYFAR *)CYREG_SC2_SW0, 0x90u);
 251              		.loc 1 327 0
 252 008e 4FF0900E 		mov	lr, #144
 253 0092 0830     		adds	r0, r0, #8
 254 0094 80F800E0 		strb	lr, [r0]
 328:.\Generated_Source\PSoC5/cyfitter_cfg.c **** 	CY_SET_XTND_REG8((void CYFAR *)CYREG_DAC0_SW3, 0x01u);
 255              		.loc 1 328 0
 256 0098 6330     		adds	r0, r0, #99
 257 009a 0270     		strb	r2, [r0]
 329:.\Generated_Source\PSoC5/cyfitter_cfg.c **** 	CY_SET_XTND_REG8((void CYFAR *)CYREG_DAC1_SW3, 0x01u);
 258              		.loc 1 329 0
 259 009c 0830     		adds	r0, r0, #8
 260 009e 0270     		strb	r2, [r0]
 330:.\Generated_Source\PSoC5/cyfitter_cfg.c **** 	CY_SET_XTND_REG8((void CYFAR *)CYREG_DAC2_SW0, 0x10u);
 261              		.loc 1 330 0
 262 00a0 1020     		movs	r0, #16
 263 00a2 0EF1804E 		add	lr, lr, #1073741824
 264 00a6 0EF5B44E 		add	lr, lr, #23040
 265 00aa 8EF80000 		strb	r0, [lr]
 331:.\Generated_Source\PSoC5/cyfitter_cfg.c **** 	CY_SET_XTND_REG8((void CYFAR *)CYREG_DAC3_SW0, 0x10u);
 266              		.loc 1 331 0
 267 00ae 0EF1080E 		add	lr, lr, #8
 268 00b2 8EF80000 		strb	r0, [lr]
 332:.\Generated_Source\PSoC5/cyfitter_cfg.c **** 	CY_SET_XTND_REG8((void CYFAR *)CYREG_CMP3_SW3, 0x40u);
 269              		.loc 1 332 0
 270 00b6 1948     		ldr	r0, .L13+32
 271 00b8 0370     		strb	r3, [r0]
 333:.\Generated_Source\PSoC5/cyfitter_cfg.c **** 	CY_SET_XTND_REG8((void CYFAR *)CYREG_CMP3_SW4, 0x02u);
 272              		.loc 1 333 0
 273 00ba 0223     		movs	r3, #2
 274 00bc 0130     		adds	r0, r0, #1
 275 00be 0370     		strb	r3, [r0]
 334:.\Generated_Source\PSoC5/cyfitter_cfg.c **** 	CY_SET_XTND_REG8((void CYFAR *)CYREG_DSM0_SW0, 0x08u);
 276              		.loc 1 334 0
 277 00c0 2430     		adds	r0, r0, #36
 278 00c2 0170     		strb	r1, [r0]
 335:.\Generated_Source\PSoC5/cyfitter_cfg.c **** 	CY_SET_XTND_REG8((void CYFAR *)CYREG_DSM0_SW6, 0x02u);
 279              		.loc 1 335 0
 280 00c4 0630     		adds	r0, r0, #6
 281 00c6 0370     		strb	r3, [r0]
 336:.\Generated_Source\PSoC5/cyfitter_cfg.c **** 	CY_SET_XTND_REG8((void CYFAR *)CYREG_SAR0_SW0, 0x02u);
 282              		.loc 1 336 0
 283 00c8 1A30     		adds	r0, r0, #26
 284 00ca 0370     		strb	r3, [r0]
 337:.\Generated_Source\PSoC5/cyfitter_cfg.c **** 	CY_SET_XTND_REG8((void CYFAR *)CYREG_SAR0_SW4, 0x04u);
 285              		.loc 1 337 0
ARM GAS  C:\Users\cruiser\AppData\Local\Temp\ccBQR52R.s 			page 12


 286 00cc 0423     		movs	r3, #4
 287 00ce 0430     		adds	r0, r0, #4
 288 00d0 0370     		strb	r3, [r0]
 338:.\Generated_Source\PSoC5/cyfitter_cfg.c **** 	CY_SET_XTND_REG8((void CYFAR *)CYREG_SAR1_SW0, 0x08u);
 289              		.loc 1 338 0
 290 00d2 0430     		adds	r0, r0, #4
 291 00d4 0170     		strb	r1, [r0]
 339:.\Generated_Source\PSoC5/cyfitter_cfg.c **** 	CY_SET_XTND_REG8((void CYFAR *)CYREG_SAR1_SW4, 0x04u);
 292              		.loc 1 339 0
 293 00d6 1249     		ldr	r1, .L13+36
 294 00d8 0B70     		strb	r3, [r1]
 340:.\Generated_Source\PSoC5/cyfitter_cfg.c **** 	CY_SET_XTND_REG32((void CYFAR *)CYREG_OPAMP0_MX, 0x04200122u);
 295              		.loc 1 340 0
 296 00da 1249     		ldr	r1, .L13+40
 297 00dc 124B     		ldr	r3, .L13+44
 298 00de 1960     		str	r1, [r3]
 341:.\Generated_Source\PSoC5/cyfitter_cfg.c **** 	CY_SET_XTND_REG32((void CYFAR *)CYREG_OPAMP2_MX, 0x01020108u);
 299              		.loc 1 341 0
 300 00e0 1249     		ldr	r1, .L13+48
 301 00e2 0433     		adds	r3, r3, #4
 302 00e4 1960     		str	r1, [r3]
 342:.\Generated_Source\PSoC5/cyfitter_cfg.c **** 	CY_SET_XTND_REG8((void CYFAR *)CYREG_BUS_SW0, 0x01u);
 303              		.loc 1 342 0
 304 00e6 1433     		adds	r3, r3, #20
 305 00e8 1A70     		strb	r2, [r3]
 343:.\Generated_Source\PSoC5/cyfitter_cfg.c **** 	CyDelayUs(10u); /* Allow vref to settle before re-enabling PRES */
 306              		.loc 1 343 0
 307 00ea 0A20     		movs	r0, #10
 308 00ec FFF7FEFF 		bl	CyDelayUs
 309              	.LVL19:
 344:.\Generated_Source\PSoC5/cyfitter_cfg.c **** 	CY_SET_XTND_REG8((void CYFAR *)(CYREG_RESET_CR5), (cr5));
 310              		.loc 1 344 0
 311 00f0 3D70     		strb	r5, [r7]
 345:.\Generated_Source\PSoC5/cyfitter_cfg.c **** 	CY_SET_XTND_REG8((void CYFAR *)(CYREG_RESET_CR4), (cr4));
 312              		.loc 1 345 0
 313 00f2 3470     		strb	r4, [r6]
 346:.\Generated_Source\PSoC5/cyfitter_cfg.c **** 	CY_SET_XTND_REG8((void CYFAR *)CYREG_PUMP_CR0, 0x44u);
 314              		.loc 1 346 0
 315 00f4 4422     		movs	r2, #68
 316 00f6 0E4B     		ldr	r3, .L13+52
 317 00f8 1A70     		strb	r2, [r3]
 318 00fa F8BD     		pop	{r3, r4, r5, r6, r7, pc}
 319              	.LVL20:
 320              	.L14:
 321              		.align	2
 322              	.L13:
 323 00fc CF010049 		.word	1224737231
 324 0100 F8460040 		.word	1073759992
 325 0104 F9460040 		.word	1073759993
 326 0108 6E580040 		.word	1073764462
 327 010c 0C510040 		.word	1073762572
 328 0110 3D510040 		.word	1073762621
 329 0114 045A0040 		.word	1073764868
 330 0118 0A5A0040 		.word	1073764874
 331 011c DB5A0040 		.word	1073765083
 332 0120 2C5B0040 		.word	1073765164
 333 0124 22012004 		.word	69206306
ARM GAS  C:\Users\cruiser\AppData\Local\Temp\ccBQR52R.s 			page 13


 334 0128 405B0040 		.word	1073765184
 335 012c 08010201 		.word	16908552
 336 0130 76580040 		.word	1073764470
 337              		.cfi_endproc
 338              	.LFE6:
 339              		.size	AnalogSetDefault, .-AnalogSetDefault
 340              		.section	.text.CYCONFIGCPY,"ax",%progbits
 341              		.align	2
 342              		.thumb
 343              		.thumb_func
 344              		.type	CYCONFIGCPY, %function
 345              	CYCONFIGCPY:
 346              	.LFB1:
  70:.\Generated_Source\PSoC5/cyfitter_cfg.c **** 	(void)memcpy(dest, src, n);
 347              		.loc 1 70 0
 348              		.cfi_startproc
 349              		@ args = 0, pretend = 0, frame = 0
 350              		@ frame_needed = 0, uses_anonymous_args = 0
 351              	.LVL21:
 352 0000 08B5     		push	{r3, lr}
 353              		.cfi_def_cfa_offset 8
 354              		.cfi_offset 3, -8
 355              		.cfi_offset 14, -4
  71:.\Generated_Source\PSoC5/cyfitter_cfg.c **** }
 356              		.loc 1 71 0
 357 0002 FFF7FEFF 		bl	memcpy
 358              	.LVL22:
 359 0006 08BD     		pop	{r3, pc}
 360              		.cfi_endproc
 361              	.LFE1:
 362              		.size	CYCONFIGCPY, .-CYCONFIGCPY
 363              		.section	.text.ClockSetup,"ax",%progbits
 364              		.align	2
 365              		.thumb
 366              		.thumb_func
 367              		.type	ClockSetup, %function
 368              	ClockSetup:
 369              	.LFB5:
 222:.\Generated_Source\PSoC5/cyfitter_cfg.c **** 	uint32 timeout;
 370              		.loc 1 222 0
 371              		.cfi_startproc
 372              		@ args = 0, pretend = 0, frame = 0
 373              		@ frame_needed = 0, uses_anonymous_args = 0
 374 0000 38B5     		push	{r3, r4, r5, lr}
 375              		.cfi_def_cfa_offset 16
 376              		.cfi_offset 3, -16
 377              		.cfi_offset 4, -12
 378              		.cfi_offset 5, -8
 379              		.cfi_offset 14, -4
 228:.\Generated_Source\PSoC5/cyfitter_cfg.c **** 	CY_SET_XTND_REG8((void CYFAR *)(CYREG_CLKDIST_DCFG0_CFG0 + 0x2u), 0x50u);
 380              		.loc 1 228 0
 381 0002 0024     		movs	r4, #0
 382 0004 334B     		ldr	r3, .L23
 383 0006 1C80     		strh	r4, [r3]	@ movhi
 229:.\Generated_Source\PSoC5/cyfitter_cfg.c **** 	CY_SET_XTND_REG16((void CYFAR *)(CYREG_CLKDIST_DCFG1_CFG0), 0x0003u);
 384              		.loc 1 229 0
 385 0008 5022     		movs	r2, #80
ARM GAS  C:\Users\cruiser\AppData\Local\Temp\ccBQR52R.s 			page 14


 386 000a 0233     		adds	r3, r3, #2
 387 000c 1A70     		strb	r2, [r3]
 230:.\Generated_Source\PSoC5/cyfitter_cfg.c **** 	CY_SET_XTND_REG8((void CYFAR *)(CYREG_CLKDIST_DCFG1_CFG0 + 0x2u), 0x18u);
 388              		.loc 1 230 0
 389 000e 0322     		movs	r2, #3
 390 0010 0233     		adds	r3, r3, #2
 391 0012 1A80     		strh	r2, [r3]	@ movhi
 231:.\Generated_Source\PSoC5/cyfitter_cfg.c **** 	CY_SET_XTND_REG16((void CYFAR *)(CYREG_CLKDIST_DCFG2_CFG0), 0x0003u);
 392              		.loc 1 231 0
 393 0014 1823     		movs	r3, #24
 394 0016 3049     		ldr	r1, .L23+4
 395 0018 0B70     		strb	r3, [r1]
 232:.\Generated_Source\PSoC5/cyfitter_cfg.c **** 	CY_SET_XTND_REG8((void CYFAR *)(CYREG_CLKDIST_DCFG2_CFG0 + 0x2u), 0x18u);
 396              		.loc 1 232 0
 397 001a 0231     		adds	r1, r1, #2
 398 001c 0A80     		strh	r2, [r1]	@ movhi
 233:.\Generated_Source\PSoC5/cyfitter_cfg.c **** 	CY_SET_XTND_REG16((void CYFAR *)(CYREG_CLKDIST_DCFG3_CFG0), 0x0008u);
 399              		.loc 1 233 0
 400 001e 2F4A     		ldr	r2, .L23+8
 401 0020 1370     		strb	r3, [r2]
 234:.\Generated_Source\PSoC5/cyfitter_cfg.c **** 	CY_SET_XTND_REG8((void CYFAR *)(CYREG_CLKDIST_DCFG3_CFG0 + 0x2u), 0x18u);
 402              		.loc 1 234 0
 403 0022 0821     		movs	r1, #8
 404 0024 0232     		adds	r2, r2, #2
 405 0026 1180     		strh	r1, [r2]	@ movhi
 235:.\Generated_Source\PSoC5/cyfitter_cfg.c **** 
 406              		.loc 1 235 0
 407 0028 0232     		adds	r2, r2, #2
 408 002a 1370     		strb	r3, [r2]
 238:.\Generated_Source\PSoC5/cyfitter_cfg.c **** 
 409              		.loc 1 238 0
 410 002c 2C48     		ldr	r0, .L23+12
 411 002e 2D49     		ldr	r1, .L23+16
 412 0030 0422     		movs	r2, #4
 413 0032 FFF7FEFF 		bl	CYCONFIGCPY
 414              	.LVL23:
 241:.\Generated_Source\PSoC5/cyfitter_cfg.c **** 
 415              		.loc 1 241 0
 416 0036 0622     		movs	r2, #6
 417 0038 2B4B     		ldr	r3, .L23+20
 418 003a 1A70     		strb	r2, [r3]
 244:.\Generated_Source\PSoC5/cyfitter_cfg.c **** 	CY_SET_XTND_REG8((void CYFAR *)(CYREG_IMO_TR1), (CY_GET_XTND_REG8((void CYFAR *)CYREG_FLSHID_CUST_
 419              		.loc 1 244 0
 420 003c 5222     		movs	r2, #82
 421 003e A3F58073 		sub	r3, r3, #256
 422 0042 1A70     		strb	r2, [r3]
 245:.\Generated_Source\PSoC5/cyfitter_cfg.c **** 
 423              		.loc 1 245 0
 424 0044 294B     		ldr	r3, .L23+24
 425 0046 1B78     		ldrb	r3, [r3]	@ zero_extendqisi2
 426 0048 DBB2     		uxtb	r3, r3
 427 004a 294A     		ldr	r2, .L23+28
 428 004c 1370     		strb	r3, [r2]
 248:.\Generated_Source\PSoC5/cyfitter_cfg.c **** 	CY_SET_XTND_REG16((void CYFAR *)(CYREG_FASTCLK_PLL_CFG0), 0x2251u);
 429              		.loc 1 248 0
 430 004e 40F62A52 		movw	r2, #3370
 431 0052 284B     		ldr	r3, .L23+32
ARM GAS  C:\Users\cruiser\AppData\Local\Temp\ccBQR52R.s 			page 15


 432 0054 1A80     		strh	r2, [r3]	@ movhi
 249:.\Generated_Source\PSoC5/cyfitter_cfg.c **** 	/* Wait up to 250us for the PLL to lock */
 433              		.loc 1 249 0
 434 0056 42F25122 		movw	r2, #8785
 435 005a 023B     		subs	r3, r3, #2
 436 005c 1A80     		strh	r2, [r3]	@ movhi
 437              	.LVL24:
 252:.\Generated_Source\PSoC5/cyfitter_cfg.c **** 	{ 
 438              		.loc 1 252 0
 439 005e 1925     		movs	r5, #25
 440 0060 0CE0     		b	.L18
 441              	.LVL25:
 442              	.L20:
 254:.\Generated_Source\PSoC5/cyfitter_cfg.c **** 		CyDelayCycles(10u * 48u); /* Delay 10us based on 48MHz clock */
 443              		.loc 1 254 0 discriminator 4
 444 0062 254B     		ldr	r3, .L23+36
 445 0064 1B78     		ldrb	r3, [r3]	@ zero_extendqisi2
 446 0066 03F00103 		and	r3, r3, #1
 447 006a 43EA4404 		orr	r4, r3, r4, lsl #1
 448              	.LVL26:
 449 006e 04F00304 		and	r4, r4, #3
 450              	.LVL27:
 255:.\Generated_Source\PSoC5/cyfitter_cfg.c **** 	}
 451              		.loc 1 255 0 discriminator 4
 452 0072 4FF4F070 		mov	r0, #480
 453 0076 FFF7FEFF 		bl	CyDelayCycles
 454              	.LVL28:
 252:.\Generated_Source\PSoC5/cyfitter_cfg.c **** 	{ 
 455              		.loc 1 252 0 discriminator 4
 456 007a 013D     		subs	r5, r5, #1
 457              	.LVL29:
 458              	.L18:
 252:.\Generated_Source\PSoC5/cyfitter_cfg.c **** 	{ 
 459              		.loc 1 252 0 is_stmt 0 discriminator 1
 460 007c 0DB1     		cbz	r5, .L19
 252:.\Generated_Source\PSoC5/cyfitter_cfg.c **** 	{ 
 461              		.loc 1 252 0 discriminator 3
 462 007e 032C     		cmp	r4, #3
 463 0080 EFD1     		bne	.L20
 464              	.L19:
 258:.\Generated_Source\PSoC5/cyfitter_cfg.c **** 	{
 465              		.loc 1 258 0 is_stmt 1
 466 0082 15B9     		cbnz	r5, .L21
 260:.\Generated_Source\PSoC5/cyfitter_cfg.c **** 	}
 467              		.loc 1 260 0
 468 0084 0320     		movs	r0, #3
 469 0086 FFF7FEFF 		bl	CyClockStartupError
 470              	.LVL30:
 471              	.L21:
 264:.\Generated_Source\PSoC5/cyfitter_cfg.c **** 	CY_SET_XTND_REG8((void CYFAR *)(CYREG_CLKDIST_MSTR0), 0x07u);
 472              		.loc 1 264 0
 473 008a 1C4A     		ldr	r2, .L23+40
 474 008c 4FF48073 		mov	r3, #256
 475 0090 1380     		strh	r3, [r2]	@ movhi
 265:.\Generated_Source\PSoC5/cyfitter_cfg.c **** 	CY_SET_XTND_REG8((void CYFAR *)(CYREG_CLKDIST_BCFG0), 0x00u);
 476              		.loc 1 265 0
 477 0092 0723     		movs	r3, #7
ARM GAS  C:\Users\cruiser\AppData\Local\Temp\ccBQR52R.s 			page 16


 478 0094 1370     		strb	r3, [r2]
 266:.\Generated_Source\PSoC5/cyfitter_cfg.c **** 	CY_SET_XTND_REG8((void CYFAR *)(CYREG_CLKDIST_BCFG2), 0x48u);
 479              		.loc 1 266 0
 480 0096 0023     		movs	r3, #0
 481 0098 1949     		ldr	r1, .L23+44
 482 009a 0B70     		strb	r3, [r1]
 267:.\Generated_Source\PSoC5/cyfitter_cfg.c **** 	CY_SET_XTND_REG8((void CYFAR *)(CYREG_CLKDIST_MSTR0), 0x00u);
 483              		.loc 1 267 0
 484 009c 4820     		movs	r0, #72
 485 009e 0231     		adds	r1, r1, #2
 486 00a0 0870     		strb	r0, [r1]
 268:.\Generated_Source\PSoC5/cyfitter_cfg.c **** 
 487              		.loc 1 268 0
 488 00a2 1370     		strb	r3, [r2]
 271:.\Generated_Source\PSoC5/cyfitter_cfg.c **** 	CY_SET_XTND_REG8((void CYFAR *)(CYREG_CLKDIST_LD), 0x02u);
 489              		.loc 1 271 0
 490 00a4 0532     		adds	r2, r2, #5
 491 00a6 1370     		strb	r3, [r2]
 272:.\Generated_Source\PSoC5/cyfitter_cfg.c **** 	CY_SET_XTND_REG8((void CYFAR *)(CYREG_CLKDIST_DLY1), 0x04u);
 492              		.loc 1 272 0
 493 00a8 0222     		movs	r2, #2
 494 00aa 164B     		ldr	r3, .L23+48
 495 00ac 1A70     		strb	r2, [r3]
 273:.\Generated_Source\PSoC5/cyfitter_cfg.c **** 
 496              		.loc 1 273 0
 497 00ae 0422     		movs	r2, #4
 498 00b0 0A33     		adds	r3, r3, #10
 499 00b2 1A70     		strb	r2, [r3]
 275:.\Generated_Source\PSoC5/cyfitter_cfg.c **** 	CY_SET_XTND_REG8((void CYFAR *)(CYREG_PM_ACT_CFG1), ((CY_GET_XTND_REG8((void CYFAR *)CYREG_PM_ACT_
 500              		.loc 1 275 0
 501 00b4 144A     		ldr	r2, .L23+52
 502 00b6 1378     		ldrb	r3, [r2]	@ zero_extendqisi2
 503 00b8 43F00F03 		orr	r3, r3, #15
 504 00bc 1370     		strb	r3, [r2]
 276:.\Generated_Source\PSoC5/cyfitter_cfg.c **** 	CY_SET_XTND_REG8((void CYFAR *)(CYREG_PM_ACT_CFG0), ((CY_GET_XTND_REG8((void CYFAR *)CYREG_PM_ACT_
 505              		.loc 1 276 0
 506 00be 013A     		subs	r2, r2, #1
 507 00c0 1378     		ldrb	r3, [r2]	@ zero_extendqisi2
 508 00c2 43F00103 		orr	r3, r3, #1
 509 00c6 1370     		strb	r3, [r2]
 277:.\Generated_Source\PSoC5/cyfitter_cfg.c **** }
 510              		.loc 1 277 0
 511 00c8 013A     		subs	r2, r2, #1
 512 00ca 1378     		ldrb	r3, [r2]	@ zero_extendqisi2
 513 00cc 43F08003 		orr	r3, r3, #128
 514 00d0 1370     		strb	r3, [r2]
 515 00d2 38BD     		pop	{r3, r4, r5, pc}
 516              	.LVL31:
 517              	.L24:
 518              		.align	2
 519              	.L23:
 520 00d4 80400040 		.word	1073758336
 521 00d8 86400040 		.word	1073758342
 522 00dc 8A400040 		.word	1073758346
 523 00e0 00410040 		.word	1073758464
 524 00e4 DC030048 		.word	1207960540
 525 00e8 00430040 		.word	1073758976
ARM GAS  C:\Users\cruiser\AppData\Local\Temp\ccBQR52R.s 			page 17


 526 00ec 0F010049 		.word	1224737039
 527 00f0 A1460040 		.word	1073759905
 528 00f4 22420040 		.word	1073758754
 529 00f8 25420040 		.word	1073758757
 530 00fc 04400040 		.word	1073758212
 531 0100 06400040 		.word	1073758214
 532 0104 01400040 		.word	1073758209
 533 0108 A2430040 		.word	1073759138
 534              		.cfi_endproc
 535              	.LFE5:
 536              		.size	ClockSetup, .-ClockSetup
 537              		.section	.text.SetAnalogRoutingPumps,"ax",%progbits
 538              		.align	2
 539              		.global	SetAnalogRoutingPumps
 540              		.thumb
 541              		.thumb_func
 542              		.type	SetAnalogRoutingPumps, %function
 543              	SetAnalogRoutingPumps:
 544              	.LFB7:
 347:.\Generated_Source\PSoC5/cyfitter_cfg.c **** }
 348:.\Generated_Source\PSoC5/cyfitter_cfg.c **** 
 349:.\Generated_Source\PSoC5/cyfitter_cfg.c **** 
 350:.\Generated_Source\PSoC5/cyfitter_cfg.c **** /*******************************************************************************
 351:.\Generated_Source\PSoC5/cyfitter_cfg.c **** * Function Name: SetAnalogRoutingPumps
 352:.\Generated_Source\PSoC5/cyfitter_cfg.c **** ********************************************************************************
 353:.\Generated_Source\PSoC5/cyfitter_cfg.c **** *
 354:.\Generated_Source\PSoC5/cyfitter_cfg.c **** * Summary:
 355:.\Generated_Source\PSoC5/cyfitter_cfg.c **** * Enables or disables the analog pumps feeding analog routing switches.
 356:.\Generated_Source\PSoC5/cyfitter_cfg.c **** * Intended to be called at startup, based on the Vdda system configuration;
 357:.\Generated_Source\PSoC5/cyfitter_cfg.c **** * may be called during operation when the user informs us that the Vdda voltage
 358:.\Generated_Source\PSoC5/cyfitter_cfg.c **** * crossed the pump threshold.
 359:.\Generated_Source\PSoC5/cyfitter_cfg.c **** *
 360:.\Generated_Source\PSoC5/cyfitter_cfg.c **** * Parameters:
 361:.\Generated_Source\PSoC5/cyfitter_cfg.c **** *  enabled - 1 to enable the pumps, 0 to disable the pumps
 362:.\Generated_Source\PSoC5/cyfitter_cfg.c **** *
 363:.\Generated_Source\PSoC5/cyfitter_cfg.c **** * Return:
 364:.\Generated_Source\PSoC5/cyfitter_cfg.c **** *  void
 365:.\Generated_Source\PSoC5/cyfitter_cfg.c **** *
 366:.\Generated_Source\PSoC5/cyfitter_cfg.c **** *******************************************************************************/
 367:.\Generated_Source\PSoC5/cyfitter_cfg.c **** void SetAnalogRoutingPumps(uint8 enabled)
 368:.\Generated_Source\PSoC5/cyfitter_cfg.c **** {
 545              		.loc 1 368 0
 546              		.cfi_startproc
 547              		@ args = 0, pretend = 0, frame = 0
 548              		@ frame_needed = 0, uses_anonymous_args = 0
 549              		@ link register save eliminated.
 550              	.LVL32:
 369:.\Generated_Source\PSoC5/cyfitter_cfg.c **** 	uint8 regValue = CY_GET_XTND_REG8((void CYFAR *)CYREG_PUMP_CR0);
 551              		.loc 1 369 0
 552 0000 054B     		ldr	r3, .L28
 553 0002 1B78     		ldrb	r3, [r3]	@ zero_extendqisi2
 554 0004 DBB2     		uxtb	r3, r3
 555              	.LVL33:
 370:.\Generated_Source\PSoC5/cyfitter_cfg.c **** 	if (enabled != 0u)
 556              		.loc 1 370 0
 557 0006 10B1     		cbz	r0, .L26
 371:.\Generated_Source\PSoC5/cyfitter_cfg.c **** 	{
ARM GAS  C:\Users\cruiser\AppData\Local\Temp\ccBQR52R.s 			page 18


 372:.\Generated_Source\PSoC5/cyfitter_cfg.c **** 		regValue |= 0x22u;
 558              		.loc 1 372 0
 559 0008 43F02203 		orr	r3, r3, #34
 560              	.LVL34:
 561 000c 01E0     		b	.L27
 562              	.L26:
 373:.\Generated_Source\PSoC5/cyfitter_cfg.c **** 	}
 374:.\Generated_Source\PSoC5/cyfitter_cfg.c **** 	else
 375:.\Generated_Source\PSoC5/cyfitter_cfg.c **** 	{
 376:.\Generated_Source\PSoC5/cyfitter_cfg.c **** 		regValue &= (uint8)~0x22u;
 563              		.loc 1 376 0
 564 000e 03F0DD03 		and	r3, r3, #221
 565              	.LVL35:
 566              	.L27:
 377:.\Generated_Source\PSoC5/cyfitter_cfg.c **** 	}
 378:.\Generated_Source\PSoC5/cyfitter_cfg.c **** 	CY_SET_XTND_REG8((void CYFAR *)CYREG_PUMP_CR0, regValue);
 567              		.loc 1 378 0
 568 0012 014A     		ldr	r2, .L28
 569 0014 1370     		strb	r3, [r2]
 570 0016 7047     		bx	lr
 571              	.L29:
 572              		.align	2
 573              	.L28:
 574 0018 76580040 		.word	1073764470
 575              		.cfi_endproc
 576              	.LFE7:
 577              		.size	SetAnalogRoutingPumps, .-SetAnalogRoutingPumps
 578              		.section	.text.AMux_DelSig_CYAMUXSIDE_A_Set,"ax",%progbits
 579              		.align	2
 580              		.global	AMux_DelSig_CYAMUXSIDE_A_Set
 581              		.thumb
 582              		.thumb_func
 583              		.type	AMux_DelSig_CYAMUXSIDE_A_Set, %function
 584              	AMux_DelSig_CYAMUXSIDE_A_Set:
 585              	.LFB8:
 379:.\Generated_Source\PSoC5/cyfitter_cfg.c **** }
 380:.\Generated_Source\PSoC5/cyfitter_cfg.c **** 
 381:.\Generated_Source\PSoC5/cyfitter_cfg.c **** #define CY_AMUX_UNUSED CYREG_BOOST_SR
 382:.\Generated_Source\PSoC5/cyfitter_cfg.c **** /* This is an implementation detail of the AMux. Code that depends on it may be
 383:.\Generated_Source\PSoC5/cyfitter_cfg.c ****    incompatible with other versions of PSoC Creator. */
 384:.\Generated_Source\PSoC5/cyfitter_cfg.c **** uint8 CYXDATA * const CYCODE AMux_DelSig_CYAMUXSIDE_A__addrTable[4] = {
 385:.\Generated_Source\PSoC5/cyfitter_cfg.c **** 	(uint8 CYXDATA *)CYREG_SAR0_SW0, 
 386:.\Generated_Source\PSoC5/cyfitter_cfg.c **** 	(uint8 CYXDATA *)CYREG_BUS_SW0, 
 387:.\Generated_Source\PSoC5/cyfitter_cfg.c **** 	(uint8 CYXDATA *)CY_AMUX_UNUSED, 
 388:.\Generated_Source\PSoC5/cyfitter_cfg.c **** 	(uint8 CYXDATA *)CY_AMUX_UNUSED, 
 389:.\Generated_Source\PSoC5/cyfitter_cfg.c **** };
 390:.\Generated_Source\PSoC5/cyfitter_cfg.c **** 
 391:.\Generated_Source\PSoC5/cyfitter_cfg.c **** /* This is an implementation detail of the AMux. Code that depends on it may be
 392:.\Generated_Source\PSoC5/cyfitter_cfg.c ****    incompatible with other versions of PSoC Creator. */
 393:.\Generated_Source\PSoC5/cyfitter_cfg.c **** const uint8 CYCODE AMux_DelSig_CYAMUXSIDE_A__maskTable[4] = {
 394:.\Generated_Source\PSoC5/cyfitter_cfg.c **** 	0x08u, 
 395:.\Generated_Source\PSoC5/cyfitter_cfg.c **** 	0x08u, 
 396:.\Generated_Source\PSoC5/cyfitter_cfg.c **** 	0x00u, 
 397:.\Generated_Source\PSoC5/cyfitter_cfg.c **** 	0x00u, 
 398:.\Generated_Source\PSoC5/cyfitter_cfg.c **** };
 399:.\Generated_Source\PSoC5/cyfitter_cfg.c **** 
 400:.\Generated_Source\PSoC5/cyfitter_cfg.c **** /*******************************************************************************
ARM GAS  C:\Users\cruiser\AppData\Local\Temp\ccBQR52R.s 			page 19


 401:.\Generated_Source\PSoC5/cyfitter_cfg.c **** * Function Name: AMux_DelSig_CYAMUXSIDE_A_Set
 402:.\Generated_Source\PSoC5/cyfitter_cfg.c **** ********************************************************************************
 403:.\Generated_Source\PSoC5/cyfitter_cfg.c **** * Summary:
 404:.\Generated_Source\PSoC5/cyfitter_cfg.c **** *  This function is used to set a particular channel as active on the AMux.
 405:.\Generated_Source\PSoC5/cyfitter_cfg.c **** *
 406:.\Generated_Source\PSoC5/cyfitter_cfg.c **** * Parameters:  
 407:.\Generated_Source\PSoC5/cyfitter_cfg.c **** *   channel - The mux channel input to set as active
 408:.\Generated_Source\PSoC5/cyfitter_cfg.c **** *
 409:.\Generated_Source\PSoC5/cyfitter_cfg.c **** * Return:
 410:.\Generated_Source\PSoC5/cyfitter_cfg.c **** *   void
 411:.\Generated_Source\PSoC5/cyfitter_cfg.c **** *
 412:.\Generated_Source\PSoC5/cyfitter_cfg.c **** *******************************************************************************/
 413:.\Generated_Source\PSoC5/cyfitter_cfg.c **** void AMux_DelSig_CYAMUXSIDE_A_Set(uint8 channel)
 414:.\Generated_Source\PSoC5/cyfitter_cfg.c **** {
 586              		.loc 1 414 0
 587              		.cfi_startproc
 588              		@ args = 0, pretend = 0, frame = 0
 589              		@ frame_needed = 0, uses_anonymous_args = 0
 590              		@ link register save eliminated.
 591              	.LVL36:
 415:.\Generated_Source\PSoC5/cyfitter_cfg.c **** 	if (channel < 4)
 592              		.loc 1 415 0
 593 0000 0328     		cmp	r0, #3
 594 0002 07D8     		bhi	.L30
 416:.\Generated_Source\PSoC5/cyfitter_cfg.c **** 	{
 417:.\Generated_Source\PSoC5/cyfitter_cfg.c **** 		*AMux_DelSig_CYAMUXSIDE_A__addrTable[channel] |= AMux_DelSig_CYAMUXSIDE_A__maskTable[channel];
 595              		.loc 1 417 0
 596 0004 044B     		ldr	r3, .L32
 597 0006 53F82020 		ldr	r2, [r3, r0, lsl #2]
 598 000a 1844     		add	r0, r0, r3
 599              	.LVL37:
 600 000c 017C     		ldrb	r1, [r0, #16]	@ zero_extendqisi2
 601 000e 1378     		ldrb	r3, [r2]	@ zero_extendqisi2
 602 0010 0B43     		orrs	r3, r3, r1
 603 0012 1370     		strb	r3, [r2]
 604              	.L30:
 605 0014 7047     		bx	lr
 606              	.L33:
 607 0016 00BF     		.align	2
 608              	.L32:
 609 0018 00000000 		.word	.LANCHOR0
 610              		.cfi_endproc
 611              	.LFE8:
 612              		.size	AMux_DelSig_CYAMUXSIDE_A_Set, .-AMux_DelSig_CYAMUXSIDE_A_Set
 613              		.section	.text.AMux_DelSig_CYAMUXSIDE_A_Unset,"ax",%progbits
 614              		.align	2
 615              		.global	AMux_DelSig_CYAMUXSIDE_A_Unset
 616              		.thumb
 617              		.thumb_func
 618              		.type	AMux_DelSig_CYAMUXSIDE_A_Unset, %function
 619              	AMux_DelSig_CYAMUXSIDE_A_Unset:
 620              	.LFB9:
 418:.\Generated_Source\PSoC5/cyfitter_cfg.c **** 	}
 419:.\Generated_Source\PSoC5/cyfitter_cfg.c **** }
 420:.\Generated_Source\PSoC5/cyfitter_cfg.c **** 
 421:.\Generated_Source\PSoC5/cyfitter_cfg.c **** /*******************************************************************************
 422:.\Generated_Source\PSoC5/cyfitter_cfg.c **** * Function Name: AMux_DelSig_CYAMUXSIDE_A_Unset
ARM GAS  C:\Users\cruiser\AppData\Local\Temp\ccBQR52R.s 			page 20


 423:.\Generated_Source\PSoC5/cyfitter_cfg.c **** ********************************************************************************
 424:.\Generated_Source\PSoC5/cyfitter_cfg.c **** * Summary:
 425:.\Generated_Source\PSoC5/cyfitter_cfg.c **** *  This function is used to clear a particular channel from being active on the
 426:.\Generated_Source\PSoC5/cyfitter_cfg.c **** *  AMux.
 427:.\Generated_Source\PSoC5/cyfitter_cfg.c **** *
 428:.\Generated_Source\PSoC5/cyfitter_cfg.c **** * Parameters:  
 429:.\Generated_Source\PSoC5/cyfitter_cfg.c **** *   channel - The mux channel input to mark inactive
 430:.\Generated_Source\PSoC5/cyfitter_cfg.c **** *
 431:.\Generated_Source\PSoC5/cyfitter_cfg.c **** * Return:
 432:.\Generated_Source\PSoC5/cyfitter_cfg.c **** *   void
 433:.\Generated_Source\PSoC5/cyfitter_cfg.c **** *
 434:.\Generated_Source\PSoC5/cyfitter_cfg.c **** *******************************************************************************/
 435:.\Generated_Source\PSoC5/cyfitter_cfg.c **** void AMux_DelSig_CYAMUXSIDE_A_Unset(uint8 channel)
 436:.\Generated_Source\PSoC5/cyfitter_cfg.c **** {
 621              		.loc 1 436 0
 622              		.cfi_startproc
 623              		@ args = 0, pretend = 0, frame = 0
 624              		@ frame_needed = 0, uses_anonymous_args = 0
 625              		@ link register save eliminated.
 626              	.LVL38:
 437:.\Generated_Source\PSoC5/cyfitter_cfg.c **** 	if (channel < 4)
 627              		.loc 1 437 0
 628 0000 0328     		cmp	r0, #3
 629 0002 08D8     		bhi	.L34
 438:.\Generated_Source\PSoC5/cyfitter_cfg.c **** 	{
 439:.\Generated_Source\PSoC5/cyfitter_cfg.c **** 		*AMux_DelSig_CYAMUXSIDE_A__addrTable[channel] &= (uint8)~AMux_DelSig_CYAMUXSIDE_A__maskTable[chan
 630              		.loc 1 439 0
 631 0004 044B     		ldr	r3, .L36
 632 0006 53F82020 		ldr	r2, [r3, r0, lsl #2]
 633 000a 1844     		add	r0, r0, r3
 634              	.LVL39:
 635 000c 017C     		ldrb	r1, [r0, #16]	@ zero_extendqisi2
 636 000e 1378     		ldrb	r3, [r2]	@ zero_extendqisi2
 637 0010 23EA0103 		bic	r3, r3, r1
 638 0014 1370     		strb	r3, [r2]
 639              	.L34:
 640 0016 7047     		bx	lr
 641              	.L37:
 642              		.align	2
 643              	.L36:
 644 0018 00000000 		.word	.LANCHOR0
 645              		.cfi_endproc
 646              	.LFE9:
 647              		.size	AMux_DelSig_CYAMUXSIDE_A_Unset, .-AMux_DelSig_CYAMUXSIDE_A_Unset
 648              		.section	.text.AMux_DelSig_CYAMUXSIDE_B_Set,"ax",%progbits
 649              		.align	2
 650              		.global	AMux_DelSig_CYAMUXSIDE_B_Set
 651              		.thumb
 652              		.thumb_func
 653              		.type	AMux_DelSig_CYAMUXSIDE_B_Set, %function
 654              	AMux_DelSig_CYAMUXSIDE_B_Set:
 655              	.LFB10:
 440:.\Generated_Source\PSoC5/cyfitter_cfg.c **** 	}
 441:.\Generated_Source\PSoC5/cyfitter_cfg.c **** }
 442:.\Generated_Source\PSoC5/cyfitter_cfg.c **** 
 443:.\Generated_Source\PSoC5/cyfitter_cfg.c **** /* This is an implementation detail of the AMux. Code that depends on it may be
 444:.\Generated_Source\PSoC5/cyfitter_cfg.c ****    incompatible with other versions of PSoC Creator. */
ARM GAS  C:\Users\cruiser\AppData\Local\Temp\ccBQR52R.s 			page 21


 445:.\Generated_Source\PSoC5/cyfitter_cfg.c **** uint8 CYXDATA * const CYCODE AMux_DelSig_CYAMUXSIDE_B__addrTable[8] = {
 446:.\Generated_Source\PSoC5/cyfitter_cfg.c **** 	(uint8 CYXDATA *)CYREG_SAR0_SW6, (uint8 CYXDATA *)CY_AMUX_UNUSED, 
 447:.\Generated_Source\PSoC5/cyfitter_cfg.c **** 	(uint8 CYXDATA *)CYREG_SAR1_SW6, (uint8 CYXDATA *)CYREG_BUS_SW2, 
 448:.\Generated_Source\PSoC5/cyfitter_cfg.c **** 	(uint8 CYXDATA *)CY_AMUX_UNUSED, (uint8 CYXDATA *)CY_AMUX_UNUSED, 
 449:.\Generated_Source\PSoC5/cyfitter_cfg.c **** 	(uint8 CYXDATA *)CY_AMUX_UNUSED, (uint8 CYXDATA *)CY_AMUX_UNUSED, 
 450:.\Generated_Source\PSoC5/cyfitter_cfg.c **** };
 451:.\Generated_Source\PSoC5/cyfitter_cfg.c **** 
 452:.\Generated_Source\PSoC5/cyfitter_cfg.c **** /* This is an implementation detail of the AMux. Code that depends on it may be
 453:.\Generated_Source\PSoC5/cyfitter_cfg.c ****    incompatible with other versions of PSoC Creator. */
 454:.\Generated_Source\PSoC5/cyfitter_cfg.c **** const uint8 CYCODE AMux_DelSig_CYAMUXSIDE_B__maskTable[8] = {
 455:.\Generated_Source\PSoC5/cyfitter_cfg.c **** 	0x02u, 0x00u, 
 456:.\Generated_Source\PSoC5/cyfitter_cfg.c **** 	0x02u, 0x02u, 
 457:.\Generated_Source\PSoC5/cyfitter_cfg.c **** 	0x00u, 0x00u, 
 458:.\Generated_Source\PSoC5/cyfitter_cfg.c **** 	0x00u, 0x00u, 
 459:.\Generated_Source\PSoC5/cyfitter_cfg.c **** };
 460:.\Generated_Source\PSoC5/cyfitter_cfg.c **** 
 461:.\Generated_Source\PSoC5/cyfitter_cfg.c **** /*******************************************************************************
 462:.\Generated_Source\PSoC5/cyfitter_cfg.c **** * Function Name: AMux_DelSig_CYAMUXSIDE_B_Set
 463:.\Generated_Source\PSoC5/cyfitter_cfg.c **** ********************************************************************************
 464:.\Generated_Source\PSoC5/cyfitter_cfg.c **** * Summary:
 465:.\Generated_Source\PSoC5/cyfitter_cfg.c **** *  This function is used to set a particular channel as active on the AMux.
 466:.\Generated_Source\PSoC5/cyfitter_cfg.c **** *
 467:.\Generated_Source\PSoC5/cyfitter_cfg.c **** * Parameters:  
 468:.\Generated_Source\PSoC5/cyfitter_cfg.c **** *   channel - The mux channel input to set as active
 469:.\Generated_Source\PSoC5/cyfitter_cfg.c **** *
 470:.\Generated_Source\PSoC5/cyfitter_cfg.c **** * Return:
 471:.\Generated_Source\PSoC5/cyfitter_cfg.c **** *   void
 472:.\Generated_Source\PSoC5/cyfitter_cfg.c **** *
 473:.\Generated_Source\PSoC5/cyfitter_cfg.c **** *******************************************************************************/
 474:.\Generated_Source\PSoC5/cyfitter_cfg.c **** void AMux_DelSig_CYAMUXSIDE_B_Set(uint8 channel)
 475:.\Generated_Source\PSoC5/cyfitter_cfg.c **** {
 656              		.loc 1 475 0
 657              		.cfi_startproc
 658              		@ args = 0, pretend = 0, frame = 0
 659              		@ frame_needed = 0, uses_anonymous_args = 0
 660              		@ link register save eliminated.
 476:.\Generated_Source\PSoC5/cyfitter_cfg.c **** 	if (channel < 4)
 661              		.loc 1 476 0
 662 0000 0328     		cmp	r0, #3
 663 0002 19D8     		bhi	.L42
 475:.\Generated_Source\PSoC5/cyfitter_cfg.c **** 	if (channel < 4)
 664              		.loc 1 475 0
 665 0004 10B4     		push	{r4}
 666              		.cfi_def_cfa_offset 4
 667              		.cfi_offset 4, -4
 477:.\Generated_Source\PSoC5/cyfitter_cfg.c **** 	{
 478:.\Generated_Source\PSoC5/cyfitter_cfg.c **** 		channel += channel;
 668              		.loc 1 478 0
 669 0006 4000     		lsls	r0, r0, #1
 670 0008 C0B2     		uxtb	r0, r0
 479:.\Generated_Source\PSoC5/cyfitter_cfg.c **** 		*AMux_DelSig_CYAMUXSIDE_B__addrTable[channel] |= AMux_DelSig_CYAMUXSIDE_B__maskTable[channel];
 671              		.loc 1 479 0
 672 000a 0C4B     		ldr	r3, .L43
 673 000c 03EB8002 		add	r2, r3, r0, lsl #2
 674 0010 5169     		ldr	r1, [r2, #20]
 675 0012 1A18     		adds	r2, r3, r0
 676 0014 92F83440 		ldrb	r4, [r2, #52]	@ zero_extendqisi2
ARM GAS  C:\Users\cruiser\AppData\Local\Temp\ccBQR52R.s 			page 22


 677 0018 0A78     		ldrb	r2, [r1]	@ zero_extendqisi2
 678 001a 2243     		orrs	r2, r2, r4
 679 001c 0A70     		strb	r2, [r1]
 480:.\Generated_Source\PSoC5/cyfitter_cfg.c **** 		channel++;
 680              		.loc 1 480 0
 681 001e 0130     		adds	r0, r0, #1
 682 0020 C0B2     		uxtb	r0, r0
 481:.\Generated_Source\PSoC5/cyfitter_cfg.c **** 		*AMux_DelSig_CYAMUXSIDE_B__addrTable[channel] |= AMux_DelSig_CYAMUXSIDE_B__maskTable[channel];
 683              		.loc 1 481 0
 684 0022 03EB8002 		add	r2, r3, r0, lsl #2
 685 0026 5269     		ldr	r2, [r2, #20]
 686 0028 1844     		add	r0, r0, r3
 687 002a 90F83410 		ldrb	r1, [r0, #52]	@ zero_extendqisi2
 688 002e 1378     		ldrb	r3, [r2]	@ zero_extendqisi2
 689 0030 0B43     		orrs	r3, r3, r1
 690 0032 1370     		strb	r3, [r2]
 482:.\Generated_Source\PSoC5/cyfitter_cfg.c **** 	}
 483:.\Generated_Source\PSoC5/cyfitter_cfg.c **** }
 691              		.loc 1 483 0
 692 0034 5DF8044B 		ldr	r4, [sp], #4
 693              		.cfi_restore 4
 694              		.cfi_def_cfa_offset 0
 695              	.L42:
 696 0038 7047     		bx	lr
 697              	.L44:
 698 003a 00BF     		.align	2
 699              	.L43:
 700 003c 00000000 		.word	.LANCHOR0
 701              		.cfi_endproc
 702              	.LFE10:
 703              		.size	AMux_DelSig_CYAMUXSIDE_B_Set, .-AMux_DelSig_CYAMUXSIDE_B_Set
 704              		.section	.text.AMux_DelSig_CYAMUXSIDE_B_Unset,"ax",%progbits
 705              		.align	2
 706              		.global	AMux_DelSig_CYAMUXSIDE_B_Unset
 707              		.thumb
 708              		.thumb_func
 709              		.type	AMux_DelSig_CYAMUXSIDE_B_Unset, %function
 710              	AMux_DelSig_CYAMUXSIDE_B_Unset:
 711              	.LFB11:
 484:.\Generated_Source\PSoC5/cyfitter_cfg.c **** 
 485:.\Generated_Source\PSoC5/cyfitter_cfg.c **** /*******************************************************************************
 486:.\Generated_Source\PSoC5/cyfitter_cfg.c **** * Function Name: AMux_DelSig_CYAMUXSIDE_B_Unset
 487:.\Generated_Source\PSoC5/cyfitter_cfg.c **** ********************************************************************************
 488:.\Generated_Source\PSoC5/cyfitter_cfg.c **** * Summary:
 489:.\Generated_Source\PSoC5/cyfitter_cfg.c **** *  This function is used to clear a particular channel from being active on the
 490:.\Generated_Source\PSoC5/cyfitter_cfg.c **** *  AMux.
 491:.\Generated_Source\PSoC5/cyfitter_cfg.c **** *
 492:.\Generated_Source\PSoC5/cyfitter_cfg.c **** * Parameters:  
 493:.\Generated_Source\PSoC5/cyfitter_cfg.c **** *   channel - The mux channel input to mark inactive
 494:.\Generated_Source\PSoC5/cyfitter_cfg.c **** *
 495:.\Generated_Source\PSoC5/cyfitter_cfg.c **** * Return:
 496:.\Generated_Source\PSoC5/cyfitter_cfg.c **** *   void
 497:.\Generated_Source\PSoC5/cyfitter_cfg.c **** *
 498:.\Generated_Source\PSoC5/cyfitter_cfg.c **** *******************************************************************************/
 499:.\Generated_Source\PSoC5/cyfitter_cfg.c **** void AMux_DelSig_CYAMUXSIDE_B_Unset(uint8 channel)
 500:.\Generated_Source\PSoC5/cyfitter_cfg.c **** {
 712              		.loc 1 500 0
ARM GAS  C:\Users\cruiser\AppData\Local\Temp\ccBQR52R.s 			page 23


 713              		.cfi_startproc
 714              		@ args = 0, pretend = 0, frame = 0
 715              		@ frame_needed = 0, uses_anonymous_args = 0
 716              		@ link register save eliminated.
 501:.\Generated_Source\PSoC5/cyfitter_cfg.c **** 	if (channel < 4)
 717              		.loc 1 501 0
 718 0000 0328     		cmp	r0, #3
 719 0002 1BD8     		bhi	.L49
 500:.\Generated_Source\PSoC5/cyfitter_cfg.c **** 	if (channel < 4)
 720              		.loc 1 500 0
 721 0004 10B4     		push	{r4}
 722              		.cfi_def_cfa_offset 4
 723              		.cfi_offset 4, -4
 502:.\Generated_Source\PSoC5/cyfitter_cfg.c **** 	{
 503:.\Generated_Source\PSoC5/cyfitter_cfg.c **** 		channel += channel;
 724              		.loc 1 503 0
 725 0006 4000     		lsls	r0, r0, #1
 726 0008 C0B2     		uxtb	r0, r0
 504:.\Generated_Source\PSoC5/cyfitter_cfg.c **** 		*AMux_DelSig_CYAMUXSIDE_B__addrTable[channel] &= (uint8)~AMux_DelSig_CYAMUXSIDE_B__maskTable[chan
 727              		.loc 1 504 0
 728 000a 0D4B     		ldr	r3, .L50
 729 000c 03EB8002 		add	r2, r3, r0, lsl #2
 730 0010 5169     		ldr	r1, [r2, #20]
 731 0012 1A18     		adds	r2, r3, r0
 732 0014 92F83440 		ldrb	r4, [r2, #52]	@ zero_extendqisi2
 733 0018 0A78     		ldrb	r2, [r1]	@ zero_extendqisi2
 734 001a 22EA0402 		bic	r2, r2, r4
 735 001e 0A70     		strb	r2, [r1]
 505:.\Generated_Source\PSoC5/cyfitter_cfg.c **** 		channel++;
 736              		.loc 1 505 0
 737 0020 0130     		adds	r0, r0, #1
 738 0022 C0B2     		uxtb	r0, r0
 506:.\Generated_Source\PSoC5/cyfitter_cfg.c **** 		*AMux_DelSig_CYAMUXSIDE_B__addrTable[channel] &= (uint8)~AMux_DelSig_CYAMUXSIDE_B__maskTable[chan
 739              		.loc 1 506 0
 740 0024 03EB8002 		add	r2, r3, r0, lsl #2
 741 0028 5269     		ldr	r2, [r2, #20]
 742 002a 1844     		add	r0, r0, r3
 743 002c 90F83410 		ldrb	r1, [r0, #52]	@ zero_extendqisi2
 744 0030 1378     		ldrb	r3, [r2]	@ zero_extendqisi2
 745 0032 23EA0103 		bic	r3, r3, r1
 746 0036 1370     		strb	r3, [r2]
 507:.\Generated_Source\PSoC5/cyfitter_cfg.c **** 	}
 508:.\Generated_Source\PSoC5/cyfitter_cfg.c **** }
 747              		.loc 1 508 0
 748 0038 5DF8044B 		ldr	r4, [sp], #4
 749              		.cfi_restore 4
 750              		.cfi_def_cfa_offset 0
 751              	.L49:
 752 003c 7047     		bx	lr
 753              	.L51:
 754 003e 00BF     		.align	2
 755              	.L50:
 756 0040 00000000 		.word	.LANCHOR0
 757              		.cfi_endproc
 758              	.LFE11:
 759              		.size	AMux_DelSig_CYAMUXSIDE_B_Unset, .-AMux_DelSig_CYAMUXSIDE_B_Unset
 760              		.section	.text.cyfitter_cfg,"ax",%progbits
ARM GAS  C:\Users\cruiser\AppData\Local\Temp\ccBQR52R.s 			page 24


 761              		.align	2
 762              		.global	cyfitter_cfg
 763              		.thumb
 764              		.thumb_func
 765              		.type	cyfitter_cfg, %function
 766              	cyfitter_cfg:
 767              	.LFB12:
 509:.\Generated_Source\PSoC5/cyfitter_cfg.c **** 
 510:.\Generated_Source\PSoC5/cyfitter_cfg.c **** 
 511:.\Generated_Source\PSoC5/cyfitter_cfg.c **** 
 512:.\Generated_Source\PSoC5/cyfitter_cfg.c **** /*******************************************************************************
 513:.\Generated_Source\PSoC5/cyfitter_cfg.c **** * Function Name: cyfitter_cfg
 514:.\Generated_Source\PSoC5/cyfitter_cfg.c **** ********************************************************************************
 515:.\Generated_Source\PSoC5/cyfitter_cfg.c **** * Summary:
 516:.\Generated_Source\PSoC5/cyfitter_cfg.c **** *  This function is called by the start-up code for the selected device. It
 517:.\Generated_Source\PSoC5/cyfitter_cfg.c **** *  performs all of the necessary device configuration based on the design
 518:.\Generated_Source\PSoC5/cyfitter_cfg.c **** *  settings.  This includes settings from the Design Wide Resources (DWR) such
 519:.\Generated_Source\PSoC5/cyfitter_cfg.c **** *  as Clocks and Pins as well as any component configuration that is necessary.
 520:.\Generated_Source\PSoC5/cyfitter_cfg.c **** *
 521:.\Generated_Source\PSoC5/cyfitter_cfg.c **** * Parameters:  
 522:.\Generated_Source\PSoC5/cyfitter_cfg.c **** *   void
 523:.\Generated_Source\PSoC5/cyfitter_cfg.c **** *
 524:.\Generated_Source\PSoC5/cyfitter_cfg.c **** * Return:
 525:.\Generated_Source\PSoC5/cyfitter_cfg.c **** *   void
 526:.\Generated_Source\PSoC5/cyfitter_cfg.c **** *
 527:.\Generated_Source\PSoC5/cyfitter_cfg.c **** *******************************************************************************/
 528:.\Generated_Source\PSoC5/cyfitter_cfg.c **** 
 529:.\Generated_Source\PSoC5/cyfitter_cfg.c **** void cyfitter_cfg(void)
 530:.\Generated_Source\PSoC5/cyfitter_cfg.c **** {
 768              		.loc 1 530 0
 769              		.cfi_startproc
 770              		@ args = 0, pretend = 0, frame = 0
 771              		@ frame_needed = 0, uses_anonymous_args = 0
 772 0000 38B5     		push	{r3, r4, r5, lr}
 773              		.cfi_def_cfa_offset 16
 774              		.cfi_offset 3, -16
 775              		.cfi_offset 4, -12
 776              		.cfi_offset 5, -8
 777              		.cfi_offset 14, -4
 531:.\Generated_Source\PSoC5/cyfitter_cfg.c **** #ifdef CYGlobalIntDisable
 532:.\Generated_Source\PSoC5/cyfitter_cfg.c **** 	/* Disable interrupts by default. Let user enable if/when they want. */
 533:.\Generated_Source\PSoC5/cyfitter_cfg.c **** 	CYGlobalIntDisable
 778              		.loc 1 533 0
 779              	@ 533 ".\Generated_Source\PSoC5\cyfitter_cfg.c" 1
 780 0002 72B6     		CPSID   i
 781              	@ 0 "" 2
 534:.\Generated_Source\PSoC5/cyfitter_cfg.c **** #endif
 535:.\Generated_Source\PSoC5/cyfitter_cfg.c **** 
 536:.\Generated_Source\PSoC5/cyfitter_cfg.c **** 
 537:.\Generated_Source\PSoC5/cyfitter_cfg.c **** 	/* Set Flash Cycles based on max possible frequency in case a glitch occurs during ClockSetup(). *
 538:.\Generated_Source\PSoC5/cyfitter_cfg.c **** 	CY_SET_XTND_REG8((void CYFAR *)(CYREG_CACHE_CC_CTL), (((CYDEV_INSTRUCT_CACHE_ENABLED) != 0) ? 0x61
 782              		.loc 1 538 0
 783              		.thumb
 784 0004 6122     		movs	r2, #97
 785 0006 464B     		ldr	r3, .L56
 786 0008 1A70     		strb	r2, [r3]
 539:.\Generated_Source\PSoC5/cyfitter_cfg.c **** 	/* Setup clocks based on selections from Clock DWR */
ARM GAS  C:\Users\cruiser\AppData\Local\Temp\ccBQR52R.s 			page 25


 540:.\Generated_Source\PSoC5/cyfitter_cfg.c **** 	ClockSetup();
 787              		.loc 1 540 0
 788 000a FFF7FEFF 		bl	ClockSetup
 789              	.LVL40:
 541:.\Generated_Source\PSoC5/cyfitter_cfg.c **** 	/* Enable/Disable Debug functionality based on settings from System DWR */
 542:.\Generated_Source\PSoC5/cyfitter_cfg.c **** 	CY_SET_XTND_REG8((void CYFAR *)CYREG_MLOGIC_DEBUG, (CY_GET_XTND_REG8((void CYFAR *)CYREG_MLOGIC_DE
 790              		.loc 1 542 0
 791 000e 454A     		ldr	r2, .L56+4
 792 0010 1378     		ldrb	r3, [r2]	@ zero_extendqisi2
 793 0012 43F00403 		orr	r3, r3, #4
 794 0016 1370     		strb	r3, [r2]
 795              	.LVL41:
 796              	.LBB3:
 543:.\Generated_Source\PSoC5/cyfitter_cfg.c **** 
 544:.\Generated_Source\PSoC5/cyfitter_cfg.c **** 	{
 545:.\Generated_Source\PSoC5/cyfitter_cfg.c **** 
 546:.\Generated_Source\PSoC5/cyfitter_cfg.c **** 		CYPACKED typedef struct {
 547:.\Generated_Source\PSoC5/cyfitter_cfg.c **** 			void CYFAR *address;
 548:.\Generated_Source\PSoC5/cyfitter_cfg.c **** 			uint16 size;
 549:.\Generated_Source\PSoC5/cyfitter_cfg.c **** 		} CYPACKED_ATTR cfg_memset_t;
 550:.\Generated_Source\PSoC5/cyfitter_cfg.c **** 
 551:.\Generated_Source\PSoC5/cyfitter_cfg.c **** 		static const cfg_memset_t CYCODE cfg_memset_list [] = {
 552:.\Generated_Source\PSoC5/cyfitter_cfg.c **** 			/* address, size */
 553:.\Generated_Source\PSoC5/cyfitter_cfg.c **** 			{(void CYFAR *)(CYREG_I2C_XCFG), 25u},
 554:.\Generated_Source\PSoC5/cyfitter_cfg.c **** 			{(void CYFAR *)(CYREG_TMR0_CFG0), 24u},
 555:.\Generated_Source\PSoC5/cyfitter_cfg.c **** 			{(void CYFAR *)(CYREG_PRT4_DR), 48u},
 556:.\Generated_Source\PSoC5/cyfitter_cfg.c **** 			{(void CYFAR *)(CYDEV_UCFG_B0_P0_U0_BASE), 4096u},
 557:.\Generated_Source\PSoC5/cyfitter_cfg.c **** 			{(void CYFAR *)(CYDEV_UCFG_B1_P2_U0_BASE), 2048u},
 558:.\Generated_Source\PSoC5/cyfitter_cfg.c **** 			{(void CYFAR *)(CYDEV_UCFG_DSI0_BASE), 2560u},
 559:.\Generated_Source\PSoC5/cyfitter_cfg.c **** 			{(void CYFAR *)(CYDEV_UCFG_DSI12_BASE), 512u},
 560:.\Generated_Source\PSoC5/cyfitter_cfg.c **** 			{(void CYFAR *)(CYREG_BCTL0_MDCLK_EN), 32u},
 561:.\Generated_Source\PSoC5/cyfitter_cfg.c **** 		};
 562:.\Generated_Source\PSoC5/cyfitter_cfg.c **** 
 563:.\Generated_Source\PSoC5/cyfitter_cfg.c **** 		uint8 CYDATA i;
 564:.\Generated_Source\PSoC5/cyfitter_cfg.c **** 
 565:.\Generated_Source\PSoC5/cyfitter_cfg.c **** 		/* Zero out critical memory blocks before beginning configuration */
 566:.\Generated_Source\PSoC5/cyfitter_cfg.c **** 		for (i = 0u; i < (sizeof(cfg_memset_list)/sizeof(cfg_memset_list[0])); i++)
 797              		.loc 1 566 0
 798 0018 0024     		movs	r4, #0
 799 001a 0BE0     		b	.L53
 800              	.LVL42:
 801              	.L54:
 802              	.LBB4:
 567:.\Generated_Source\PSoC5/cyfitter_cfg.c **** 		{
 568:.\Generated_Source\PSoC5/cyfitter_cfg.c **** 			const cfg_memset_t CYCODE * CYDATA ms = &cfg_memset_list[i];
 569:.\Generated_Source\PSoC5/cyfitter_cfg.c **** 			CYMEMZERO(ms->address, (size_t)(uint32)(ms->size));
 803              		.loc 1 569 0 discriminator 3
 804 001c 4249     		ldr	r1, .L56+8
 805 001e 6300     		lsls	r3, r4, #1
 806 0020 1A19     		adds	r2, r3, r4
 807 0022 5200     		lsls	r2, r2, #1
 808 0024 0A44     		add	r2, r2, r1
 809 0026 D06B     		ldr	r0, [r2, #60]	@ unaligned
 810 0028 B2F84010 		ldrh	r1, [r2, #64]
 811 002c FFF7FEFF 		bl	CYMEMZERO
 812              	.LVL43:
 813              	.LBE4:
ARM GAS  C:\Users\cruiser\AppData\Local\Temp\ccBQR52R.s 			page 26


 566:.\Generated_Source\PSoC5/cyfitter_cfg.c **** 		{
 814              		.loc 1 566 0 discriminator 3
 815 0030 0134     		adds	r4, r4, #1
 816              	.LVL44:
 817 0032 E4B2     		uxtb	r4, r4
 818              	.LVL45:
 819              	.L53:
 566:.\Generated_Source\PSoC5/cyfitter_cfg.c **** 		{
 820              		.loc 1 566 0 is_stmt 0 discriminator 1
 821 0034 072C     		cmp	r4, #7
 822 0036 F1D9     		bls	.L54
 570:.\Generated_Source\PSoC5/cyfitter_cfg.c **** 		}
 571:.\Generated_Source\PSoC5/cyfitter_cfg.c **** 
 572:.\Generated_Source\PSoC5/cyfitter_cfg.c **** 		cfg_write_bytes32(cy_cfg_addr_table, cy_cfg_data_table);
 823              		.loc 1 572 0 is_stmt 1
 824 0038 4FF09040 		mov	r0, #1207959552
 825 003c 3B49     		ldr	r1, .L56+12
 826 003e FFF7FEFF 		bl	cfg_write_bytes32
 827              	.LVL46:
 573:.\Generated_Source\PSoC5/cyfitter_cfg.c **** 
 574:.\Generated_Source\PSoC5/cyfitter_cfg.c **** 		/* Perform normal device configuration. Order is not critical for these items. */
 575:.\Generated_Source\PSoC5/cyfitter_cfg.c **** 		CY_SET_XTND_REG8((void CYFAR *)(CYREG_DSM0_CR3), 0x0Au);
 828              		.loc 1 575 0
 829 0042 0A25     		movs	r5, #10
 830 0044 3A4B     		ldr	r3, .L56+16
 831 0046 1D70     		strb	r5, [r3]
 576:.\Generated_Source\PSoC5/cyfitter_cfg.c **** 		CYMEMZERO((void CYFAR *)(CYREG_PHUB_CFGMEM0_CFG0), 4u);
 832              		.loc 1 576 0
 833 0048 3A48     		ldr	r0, .L56+20
 834 004a 0421     		movs	r1, #4
 835 004c FFF7FEFF 		bl	CYMEMZERO
 836              	.LVL47:
 577:.\Generated_Source\PSoC5/cyfitter_cfg.c **** 		CYCONFIGCPY((void CYFAR *)(CYREG_PHUB_CFGMEM1_CFG0), (const void CYFAR *)(BS_PHUB_CFGMEM1_VAL), 4
 837              		.loc 1 577 0
 838 0050 3948     		ldr	r0, .L56+24
 839 0052 3A49     		ldr	r1, .L56+28
 840 0054 0422     		movs	r2, #4
 841 0056 FFF7FEFF 		bl	CYCONFIGCPY
 842              	.LVL48:
 578:.\Generated_Source\PSoC5/cyfitter_cfg.c **** 		CYMEMZERO((void CYFAR *)(CYREG_PHUB_CFGMEM2_CFG0), 4u);
 843              		.loc 1 578 0
 844 005a 3948     		ldr	r0, .L56+32
 845 005c 0421     		movs	r1, #4
 846 005e FFF7FEFF 		bl	CYMEMZERO
 847              	.LVL49:
 579:.\Generated_Source\PSoC5/cyfitter_cfg.c **** 		CYMEMZERO((void CYFAR *)(CYREG_PHUB_CFGMEM3_CFG0), 4u);
 848              		.loc 1 579 0
 849 0062 3848     		ldr	r0, .L56+36
 850 0064 0421     		movs	r1, #4
 851 0066 FFF7FEFF 		bl	CYMEMZERO
 852              	.LVL50:
 580:.\Generated_Source\PSoC5/cyfitter_cfg.c **** 		CYMEMZERO((void CYFAR *)(CYREG_PHUB_CFGMEM4_CFG0), 4u);
 853              		.loc 1 580 0
 854 006a 3748     		ldr	r0, .L56+40
 855 006c 0421     		movs	r1, #4
 856 006e FFF7FEFF 		bl	CYMEMZERO
 857              	.LVL51:
ARM GAS  C:\Users\cruiser\AppData\Local\Temp\ccBQR52R.s 			page 27


 581:.\Generated_Source\PSoC5/cyfitter_cfg.c **** 		CYMEMZERO((void CYFAR *)(CYREG_PHUB_CFGMEM5_CFG0), 4u);
 858              		.loc 1 581 0
 859 0072 3648     		ldr	r0, .L56+44
 860 0074 0421     		movs	r1, #4
 861 0076 FFF7FEFF 		bl	CYMEMZERO
 862              	.LVL52:
 582:.\Generated_Source\PSoC5/cyfitter_cfg.c **** 		CYCONFIGCPY((void CYFAR *)(CYREG_PHUB_CFGMEM8_CFG0), (const void CYFAR *)(BS_PHUB_CFGMEM8_VAL), 4
 863              		.loc 1 582 0
 864 007a 3548     		ldr	r0, .L56+48
 865 007c 3549     		ldr	r1, .L56+52
 866 007e 0422     		movs	r2, #4
 867 0080 FFF7FEFF 		bl	CYCONFIGCPY
 868              	.LVL53:
 583:.\Generated_Source\PSoC5/cyfitter_cfg.c **** 		CYCONFIGCPY((void CYFAR *)(CYREG_PHUB_CFGMEM9_CFG0), (const void CYFAR *)(BS_PHUB_CFGMEM9_VAL), 4
 869              		.loc 1 583 0
 870 0084 3448     		ldr	r0, .L56+56
 871 0086 3549     		ldr	r1, .L56+60
 872 0088 0422     		movs	r2, #4
 873 008a FFF7FEFF 		bl	CYCONFIGCPY
 874              	.LVL54:
 584:.\Generated_Source\PSoC5/cyfitter_cfg.c **** 
 585:.\Generated_Source\PSoC5/cyfitter_cfg.c **** 		/* Enable digital routing */
 586:.\Generated_Source\PSoC5/cyfitter_cfg.c **** 		CY_SET_XTND_REG8((void CYFAR *)CYREG_BCTL0_BANK_CTL, CY_GET_XTND_REG8((void CYFAR *)CYREG_BCTL0_B
 875              		.loc 1 586 0
 876 008e 344A     		ldr	r2, .L56+64
 877 0090 1378     		ldrb	r3, [r2]	@ zero_extendqisi2
 878 0092 43F00203 		orr	r3, r3, #2
 879 0096 1370     		strb	r3, [r2]
 587:.\Generated_Source\PSoC5/cyfitter_cfg.c **** 		CY_SET_XTND_REG8((void CYFAR *)CYREG_BCTL1_BANK_CTL, CY_GET_XTND_REG8((void CYFAR *)CYREG_BCTL1_B
 880              		.loc 1 587 0
 881 0098 1032     		adds	r2, r2, #16
 882 009a 1378     		ldrb	r3, [r2]	@ zero_extendqisi2
 883 009c 43F00203 		orr	r3, r3, #2
 884 00a0 1370     		strb	r3, [r2]
 588:.\Generated_Source\PSoC5/cyfitter_cfg.c **** 
 589:.\Generated_Source\PSoC5/cyfitter_cfg.c **** 		/* Enable UDB array */
 590:.\Generated_Source\PSoC5/cyfitter_cfg.c **** 		CY_SET_XTND_REG8((void CYFAR *)CYREG_PM_ACT_CFG0, CY_GET_XTND_REG8((void CYFAR *)CYREG_PM_ACT_CFG
 885              		.loc 1 590 0
 886 00a2 304C     		ldr	r4, .L56+68
 887              	.LVL55:
 888 00a4 2378     		ldrb	r3, [r4]	@ zero_extendqisi2
 889 00a6 43F04003 		orr	r3, r3, #64
 890 00aa 2370     		strb	r3, [r4]
 591:.\Generated_Source\PSoC5/cyfitter_cfg.c **** 		CY_SET_XTND_REG8((void CYFAR *)CYREG_PM_AVAIL_CR2, CY_GET_XTND_REG8((void CYFAR *)CYREG_PM_AVAIL_
 891              		.loc 1 591 0
 892 00ac A2F58632 		sub	r2, r2, #68608
 893 00b0 513A     		subs	r2, r2, #81
 894 00b2 1378     		ldrb	r3, [r2]	@ zero_extendqisi2
 895 00b4 43F01003 		orr	r3, r3, #16
 896 00b8 1370     		strb	r3, [r2]
 897              	.LBE3:
 592:.\Generated_Source\PSoC5/cyfitter_cfg.c **** 	}
 593:.\Generated_Source\PSoC5/cyfitter_cfg.c **** 
 594:.\Generated_Source\PSoC5/cyfitter_cfg.c **** 
 595:.\Generated_Source\PSoC5/cyfitter_cfg.c **** 	/* Perform second pass device configuration. These items must be configured in specific order afte
 596:.\Generated_Source\PSoC5/cyfitter_cfg.c **** 	CYCONFIGCPY((void CYFAR *)(CYREG_PRT0_DM0), (const void CYFAR *)(BS_IOPINS0_0_VAL), 8u);
 898              		.loc 1 596 0
ARM GAS  C:\Users\cruiser\AppData\Local\Temp\ccBQR52R.s 			page 28


 899 00ba 2B48     		ldr	r0, .L56+72
 900 00bc 2B49     		ldr	r1, .L56+76
 901 00be 0822     		movs	r2, #8
 902 00c0 FFF7FEFF 		bl	CYCONFIGCPY
 903              	.LVL56:
 597:.\Generated_Source\PSoC5/cyfitter_cfg.c **** 	CYCONFIGCPY((void CYFAR *)(CYREG_PRT12_DR), (const void CYFAR *)(BS_IOPINS0_7_VAL), 10u);
 904              		.loc 1 597 0
 905 00c4 2A48     		ldr	r0, .L56+80
 906 00c6 2B49     		ldr	r1, .L56+84
 907 00c8 2A46     		mov	r2, r5
 908 00ca FFF7FEFF 		bl	CYCONFIGCPY
 909              	.LVL57:
 598:.\Generated_Source\PSoC5/cyfitter_cfg.c **** 	CYCONFIGCPY((void CYFAR *)(CYREG_PRT12_DR + 0x0000000Bu), (const void CYFAR *)(BS_IOPINS1_7_VAL), 
 910              		.loc 1 598 0
 911 00ce 2A48     		ldr	r0, .L56+88
 912 00d0 2A49     		ldr	r1, .L56+92
 913 00d2 0522     		movs	r2, #5
 914 00d4 FFF7FEFF 		bl	CYCONFIGCPY
 915              	.LVL58:
 599:.\Generated_Source\PSoC5/cyfitter_cfg.c **** 	CYCONFIGCPY((void CYFAR *)(CYREG_PRT15_DR), (const void CYFAR *)(BS_IOPINS0_8_VAL), 10u);
 916              		.loc 1 599 0
 917 00d8 2948     		ldr	r0, .L56+96
 918 00da 2A49     		ldr	r1, .L56+100
 919 00dc 2A46     		mov	r2, r5
 920 00de FFF7FEFF 		bl	CYCONFIGCPY
 921              	.LVL59:
 600:.\Generated_Source\PSoC5/cyfitter_cfg.c **** 	CYCONFIGCPY((void CYFAR *)(CYREG_PRT1_DM0), (const void CYFAR *)(BS_IOPINS0_1_VAL), 8u);
 922              		.loc 1 600 0
 923 00e2 2948     		ldr	r0, .L56+104
 924 00e4 2949     		ldr	r1, .L56+108
 925 00e6 0822     		movs	r2, #8
 926 00e8 FFF7FEFF 		bl	CYCONFIGCPY
 927              	.LVL60:
 601:.\Generated_Source\PSoC5/cyfitter_cfg.c **** 	CYCONFIGCPY((void CYFAR *)(CYREG_PRT2_DM0), (const void CYFAR *)(BS_IOPINS0_2_VAL), 8u);
 928              		.loc 1 601 0
 929 00ec 2848     		ldr	r0, .L56+112
 930 00ee 2949     		ldr	r1, .L56+116
 931 00f0 0822     		movs	r2, #8
 932 00f2 FFF7FEFF 		bl	CYCONFIGCPY
 933              	.LVL61:
 602:.\Generated_Source\PSoC5/cyfitter_cfg.c **** 	CYCONFIGCPY((void CYFAR *)(CYREG_PRT3_DM0), (const void CYFAR *)(BS_IOPINS0_3_VAL), 8u);
 934              		.loc 1 602 0
 935 00f6 2848     		ldr	r0, .L56+120
 936 00f8 2849     		ldr	r1, .L56+124
 937 00fa 0822     		movs	r2, #8
 938 00fc FFF7FEFF 		bl	CYCONFIGCPY
 939              	.LVL62:
 603:.\Generated_Source\PSoC5/cyfitter_cfg.c **** 	CY_SET_XTND_REG8((void CYFAR *)(CYREG_B0_P6_U1_CFG27), 0x64u);
 940              		.loc 1 603 0
 941 0100 6422     		movs	r2, #100
 942 0102 274B     		ldr	r3, .L56+128
 943 0104 1A70     		strb	r2, [r3]
 604:.\Generated_Source\PSoC5/cyfitter_cfg.c **** 	/* Switch Boost to the precision bandgap reference from its internal reference */
 605:.\Generated_Source\PSoC5/cyfitter_cfg.c **** 	CY_SET_REG8((void CYXDATA *)CYREG_BOOST_CR2, (CY_GET_REG8((void CYXDATA *)CYREG_BOOST_CR2) | 0x08u
 944              		.loc 1 605 0
 945 0106 274A     		ldr	r2, .L56+132
 946 0108 1378     		ldrb	r3, [r2]	@ zero_extendqisi2
ARM GAS  C:\Users\cruiser\AppData\Local\Temp\ccBQR52R.s 			page 29


 947 010a 43F00803 		orr	r3, r3, #8
 948 010e 1370     		strb	r3, [r2]
 606:.\Generated_Source\PSoC5/cyfitter_cfg.c **** 
 607:.\Generated_Source\PSoC5/cyfitter_cfg.c **** 	/* Perform basic analog initialization to defaults */
 608:.\Generated_Source\PSoC5/cyfitter_cfg.c **** 	AnalogSetDefault();
 949              		.loc 1 608 0
 950 0110 FFF7FEFF 		bl	AnalogSetDefault
 951              	.LVL63:
 609:.\Generated_Source\PSoC5/cyfitter_cfg.c **** 
 610:.\Generated_Source\PSoC5/cyfitter_cfg.c **** 	/* Configure alternate active mode */
 611:.\Generated_Source\PSoC5/cyfitter_cfg.c **** 	CYCONFIGCPY((void CYFAR *)CYDEV_PM_STBY_BASE, (const void CYFAR *)CYDEV_PM_ACT_BASE, 14u);
 952              		.loc 1 611 0
 953 0114 2448     		ldr	r0, .L56+136
 954 0116 2146     		mov	r1, r4
 955 0118 0E22     		movs	r2, #14
 956 011a FFF7FEFF 		bl	CYCONFIGCPY
 957              	.LVL64:
 958 011e 38BD     		pop	{r3, r4, r5, pc}
 959              	.L57:
 960              		.align	2
 961              	.L56:
 962 0120 00480040 		.word	1073760256
 963 0124 E8460040 		.word	1073759976
 964 0128 00000000 		.word	.LANCHOR0
 965 012c 84000048 		.word	1207959684
 966 0130 83580040 		.word	1073764483
 967 0134 00760040 		.word	1073772032
 968 0138 08760040 		.word	1073772040
 969 013c E0030048 		.word	1207960544
 970 0140 10760040 		.word	1073772048
 971 0144 18760040 		.word	1073772056
 972 0148 20760040 		.word	1073772064
 973 014c 28760040 		.word	1073772072
 974 0150 40760040 		.word	1073772096
 975 0154 E4030048 		.word	1207960548
 976 0158 48760040 		.word	1073772104
 977 015c E8030048 		.word	1207960552
 978 0160 03500140 		.word	1073827843
 979 0164 A0430040 		.word	1073759136
 980 0168 02510040 		.word	1073762562
 981 016c 9C030048 		.word	1207960476
 982 0170 C0510040 		.word	1073762752
 983 0174 A4030048 		.word	1207960484
 984 0178 CB510040 		.word	1073762763
 985 017c B0030048 		.word	1207960496
 986 0180 F0510040 		.word	1073762800
 987 0184 B8030048 		.word	1207960504
 988 0188 12510040 		.word	1073762578
 989 018c C4030048 		.word	1207960516
 990 0190 22510040 		.word	1073762594
 991 0194 CC030048 		.word	1207960524
 992 0198 32510040 		.word	1073762610
 993 019c D4030048 		.word	1207960532
 994 01a0 DB0C0140 		.word	1073810651
 995 01a4 22430040 		.word	1073759010
 996 01a8 B0430040 		.word	1073759152
 997              		.cfi_endproc
ARM GAS  C:\Users\cruiser\AppData\Local\Temp\ccBQR52R.s 			page 30


 998              	.LFE12:
 999              		.size	cyfitter_cfg, .-cyfitter_cfg
 1000              		.global	AMux_DelSig_CYAMUXSIDE_B__maskTable
 1001              		.global	AMux_DelSig_CYAMUXSIDE_B__addrTable
 1002              		.global	AMux_DelSig_CYAMUXSIDE_A__maskTable
 1003              		.global	AMux_DelSig_CYAMUXSIDE_A__addrTable
 1004              		.section	.rodata
 1005              		.align	2
 1006              		.set	.LANCHOR0,. + 0
 1007              		.type	AMux_DelSig_CYAMUXSIDE_A__addrTable, %object
 1008              		.size	AMux_DelSig_CYAMUXSIDE_A__addrTable, 16
 1009              	AMux_DelSig_CYAMUXSIDE_A__addrTable:
 1010 0000 205B0040 		.word	1073765152
 1011 0004 585B0040 		.word	1073765208
 1012 0008 24430040 		.word	1073759012
 1013 000c 24430040 		.word	1073759012
 1014              		.type	AMux_DelSig_CYAMUXSIDE_A__maskTable, %object
 1015              		.size	AMux_DelSig_CYAMUXSIDE_A__maskTable, 4
 1016              	AMux_DelSig_CYAMUXSIDE_A__maskTable:
 1017 0010 08       		.byte	8
 1018 0011 08       		.byte	8
 1019 0012 00       		.byte	0
 1020 0013 00       		.byte	0
 1021              		.type	AMux_DelSig_CYAMUXSIDE_B__addrTable, %object
 1022              		.size	AMux_DelSig_CYAMUXSIDE_B__addrTable, 32
 1023              	AMux_DelSig_CYAMUXSIDE_B__addrTable:
 1024 0014 265B0040 		.word	1073765158
 1025 0018 24430040 		.word	1073759012
 1026 001c 2E5B0040 		.word	1073765166
 1027 0020 5A5B0040 		.word	1073765210
 1028 0024 24430040 		.word	1073759012
 1029 0028 24430040 		.word	1073759012
 1030 002c 24430040 		.word	1073759012
 1031 0030 24430040 		.word	1073759012
 1032              		.type	AMux_DelSig_CYAMUXSIDE_B__maskTable, %object
 1033              		.size	AMux_DelSig_CYAMUXSIDE_B__maskTable, 8
 1034              	AMux_DelSig_CYAMUXSIDE_B__maskTable:
 1035 0034 02       		.byte	2
 1036 0035 00       		.byte	0
 1037 0036 02       		.byte	2
 1038 0037 02       		.byte	2
 1039 0038 00       		.byte	0
 1040 0039 00       		.byte	0
 1041 003a 00       		.byte	0
 1042 003b 00       		.byte	0
 1043              		.type	cfg_memset_list.4910, %object
 1044              		.size	cfg_memset_list.4910, 48
 1045              	cfg_memset_list.4910:
 1046 003c C8490040 		.word	1073760712
 1047 0040 1900     		.short	25
 1048 0042 004F0040 		.4byte	1073762048
 1049 0046 1800     		.short	24
 1050 0048 40510040 		.word	1073762624
 1051 004c 3000     		.short	48
 1052 004e 00000140 		.4byte	1073807360
 1053 0052 0010     		.short	4096
 1054 0054 00140140 		.word	1073812480
ARM GAS  C:\Users\cruiser\AppData\Local\Temp\ccBQR52R.s 			page 31


 1055 0058 0008     		.short	2048
 1056 005a 00400140 		.4byte	1073823744
 1057 005e 000A     		.short	2560
 1058 0060 004C0140 		.word	1073826816
 1059 0064 0002     		.short	512
 1060 0066 00500140 		.4byte	1073827840
 1061 006a 2000     		.short	32
 1062              		.text
 1063              	.Letext0:
 1064              		.file 2 "c:\\program files (x86)\\cypress\\psoc creator\\3.3\\psoc creator\\import\\gnu\\arm\\4.9.
 1065              		.file 3 ".\\Generated_Source\\PSoC5\\cytypes.h"
 1066              		.file 4 ".\\Generated_Source\\PSoC5\\CyLib.h"