ARM GAS  C:\Users\cruiser\AppData\Local\Temp\ccTybGgx.s 			page 1


   1              		.syntax unified
   2              		.cpu cortex-m3
   3              		.fpu softvfp
   4              		.eabi_attribute 20, 1
   5              		.eabi_attribute 21, 1
   6              		.eabi_attribute 23, 3
   7              		.eabi_attribute 24, 1
   8              		.eabi_attribute 25, 1
   9              		.eabi_attribute 26, 1
  10              		.eabi_attribute 30, 1
  11              		.eabi_attribute 34, 1
  12              		.eabi_attribute 18, 4
  13              		.thumb
  14              		.file	"main.c"
  15              		.text
  16              	.Ltext0:
  17              		.cfi_sections	.debug_frame
  18              		.section	.text.filter_ready1_handler,"ax",%progbits
  19              		.align	2
  20              		.global	filter_ready1_handler
  21              		.thumb
  22              		.thumb_func
  23              		.type	filter_ready1_handler, %function
  24              	filter_ready1_handler:
  25              	.LFB66:
  26              		.file 1 ".\\main.c"
   1:.\main.c      **** /* ========================================
   2:.\main.c      ****  *
   3:.\main.c      ****  * Jay Lin
   4:.\main.c      ****  * Copyright ALCH3MY, 2016
   5:.\main.c      ****  * All Rights Reserved
   6:.\main.c      ****  * UNPUBLISHED, LICENSED SOFTWARE.
   7:.\main.c      ****  *
   8:.\main.c      ****  * CONFIDENTIAL AND PROPRIETARY INFORMATION
   9:.\main.c      ****  * WHICH IS THE PROPERTY OF ALCH3MY.
  10:.\main.c      ****  *
  11:.\main.c      ****  * ========================================
  12:.\main.c      **** */
  13:.\main.c      **** #include <project.h>
  14:.\main.c      **** #include <math.h>
  15:.\main.c      **** 
  16:.\main.c      **** #define DECIMATION 25
  17:.\main.c      **** 
  18:.\main.c      **** //I2C
  19:.\main.c      **** uint8 i2cbuf[4] = {0,0,0,0};
  20:.\main.c      **** 
  21:.\main.c      **** //SPI
  22:.\main.c      **** uint32 spimem[1] = {0};
  23:.\main.c      **** 
  24:.\main.c      **** //SAR variables
  25:.\main.c      **** uint32 sarmem1[1] = {0};
  26:.\main.c      **** uint32 sarmem2[1] = {0};
  27:.\main.c      **** 
  28:.\main.c      **** //4^N samples for decimation
  29:.\main.c      **** uint16 filtermem1[DECIMATION];
  30:.\main.c      **** uint16 filtermem2[DECIMATION];
  31:.\main.c      **** 
ARM GAS  C:\Users\cruiser\AppData\Local\Temp\ccTybGgx.s 			page 2


  32:.\main.c      **** //DMA channels
  33:.\main.c      **** uint8 RAM2FILTER1_Chan;
  34:.\main.c      **** uint8 RAM2FILTER2_Chan;
  35:.\main.c      **** 
  36:.\main.c      **** 
  37:.\main.c      **** 
  38:.\main.c      **** void start_resources()
  39:.\main.c      **** {
  40:.\main.c      ****     I2C_Start();
  41:.\main.c      ****     
  42:.\main.c      ****     I2C_SetBuffer1(4, 4, i2cbuf);
  43:.\main.c      ****     
  44:.\main.c      ****     PWM1_Start();
  45:.\main.c      ****     PWM2_Start();
  46:.\main.c      ****     
  47:.\main.c      ****     VDAC1_Start();
  48:.\main.c      ****     VDAC2_Start();
  49:.\main.c      ****     VDAC3_Start();
  50:.\main.c      ****     VDAC4_Start();
  51:.\main.c      ****     VDAC1_SetValue(127);
  52:.\main.c      ****     VDAC2_SetValue(127);
  53:.\main.c      ****     VDAC3_SetValue(127);
  54:.\main.c      ****     VDAC4_SetValue(127);
  55:.\main.c      ****     
  56:.\main.c      ****     SAR1_Start();
  57:.\main.c      ****     SAR2_Start();
  58:.\main.c      ****     SAR1_StartConvert();
  59:.\main.c      ****     SAR2_StartConvert();
  60:.\main.c      ****     
  61:.\main.c      ****     Filter_Start();
  62:.\main.c      ****     Filter_SetDalign(Filter_STAGEA_DALIGN, Filter_ENABLED);
  63:.\main.c      ****     Filter_SetDalign(Filter_HOLDA_DALIGN, Filter_ENABLED);
  64:.\main.c      ****     Filter_SetCoherency(Filter_CHANNEL_A, Filter_KEY_MID);
  65:.\main.c      ****     
  66:.\main.c      ****     Filter_SetDalign(Filter_STAGEB_DALIGN, Filter_ENABLED);
  67:.\main.c      ****     Filter_SetDalign(Filter_HOLDB_DALIGN, Filter_ENABLED);
  68:.\main.c      ****     Filter_SetCoherency(Filter_CHANNEL_B, Filter_KEY_MID);
  69:.\main.c      ****     
  70:.\main.c      ****     SPIS_Start();
  71:.\main.c      ****     
  72:.\main.c      **** }
  73:.\main.c      **** 
  74:.\main.c      **** CY_ISR(shift_sar1_handler) 
  75:.\main.c      **** {
  76:.\main.c      ****     //sarmem1[0] = sarmem1[0] << 3;
  77:.\main.c      ****     //Filter_Write16(Filter_CHANNEL_A, sarmem1[0]);
  78:.\main.c      ****     //CyDmaChSetRequest(RAM2FILTER1_Chan, CPU_REQ);
  79:.\main.c      **** }
  80:.\main.c      **** 
  81:.\main.c      **** CY_ISR(shift_sar2_handler) 
  82:.\main.c      **** {
  83:.\main.c      ****     //sarmem2[0] = sarmem2[0] << 3;
  84:.\main.c      ****     //Filter_Write16(Filter_CHANNEL_B, sarmem2[0]);
  85:.\main.c      ****     //CyDmaChSetRequest(RAM2FILTER2_Chan, CPU_REQ);
  86:.\main.c      **** }
  87:.\main.c      **** 
  88:.\main.c      **** CY_ISR(filter_ready1_handler) 
ARM GAS  C:\Users\cruiser\AppData\Local\Temp\ccTybGgx.s 			page 3


  89:.\main.c      **** {
  27              		.loc 1 89 0
  28              		.cfi_startproc
  29              		@ args = 0, pretend = 0, frame = 0
  30              		@ frame_needed = 0, uses_anonymous_args = 0
  31              		@ link register save eliminated.
  90:.\main.c      ****     i2cbuf[0] = filtermem1[DECIMATION - 1] >> 8;
  32              		.loc 1 90 0
  33 0000 034B     		ldr	r3, .L2
  34 0002 1A8E     		ldrh	r2, [r3, #48]
  35 0004 034B     		ldr	r3, .L2+4
  36 0006 110A     		lsrs	r1, r2, #8
  37 0008 1970     		strb	r1, [r3]
  91:.\main.c      ****     i2cbuf[1] = filtermem1[DECIMATION - 1];
  38              		.loc 1 91 0
  39 000a 5A70     		strb	r2, [r3, #1]
  40 000c 7047     		bx	lr
  41              	.L3:
  42 000e 00BF     		.align	2
  43              	.L2:
  44 0010 00000000 		.word	filtermem1
  45 0014 00000000 		.word	.LANCHOR0
  46              		.cfi_endproc
  47              	.LFE66:
  48              		.size	filter_ready1_handler, .-filter_ready1_handler
  49              		.section	.text.filter_ready2_handler,"ax",%progbits
  50              		.align	2
  51              		.global	filter_ready2_handler
  52              		.thumb
  53              		.thumb_func
  54              		.type	filter_ready2_handler, %function
  55              	filter_ready2_handler:
  56              	.LFB67:
  92:.\main.c      **** }
  93:.\main.c      **** 
  94:.\main.c      **** CY_ISR(filter_ready2_handler) 
  95:.\main.c      **** {
  57              		.loc 1 95 0
  58              		.cfi_startproc
  59              		@ args = 0, pretend = 0, frame = 0
  60              		@ frame_needed = 0, uses_anonymous_args = 0
  61              		@ link register save eliminated.
  96:.\main.c      ****     i2cbuf[2] = filtermem2[DECIMATION - 1] >> 8;
  62              		.loc 1 96 0
  63 0000 034B     		ldr	r3, .L5
  64 0002 1A8E     		ldrh	r2, [r3, #48]
  65 0004 034B     		ldr	r3, .L5+4
  66 0006 110A     		lsrs	r1, r2, #8
  67 0008 9970     		strb	r1, [r3, #2]
  97:.\main.c      ****     i2cbuf[3] = filtermem2[DECIMATION - 1];
  68              		.loc 1 97 0
  69 000a DA70     		strb	r2, [r3, #3]
  70 000c 7047     		bx	lr
  71              	.L6:
  72 000e 00BF     		.align	2
  73              	.L5:
  74 0010 00000000 		.word	filtermem2
ARM GAS  C:\Users\cruiser\AppData\Local\Temp\ccTybGgx.s 			page 4


  75 0014 00000000 		.word	.LANCHOR0
  76              		.cfi_endproc
  77              	.LFE67:
  78              		.size	filter_ready2_handler, .-filter_ready2_handler
  79              		.section	.text.spi_rx_handler,"ax",%progbits
  80              		.align	2
  81              		.global	spi_rx_handler
  82              		.thumb
  83              		.thumb_func
  84              		.type	spi_rx_handler, %function
  85              	spi_rx_handler:
  86              	.LFB68:
  98:.\main.c      **** }
  99:.\main.c      **** 
 100:.\main.c      **** CY_ISR(spi_rx_handler)
 101:.\main.c      **** {
  87              		.loc 1 101 0
  88              		.cfi_startproc
  89              		@ args = 0, pretend = 0, frame = 0
  90              		@ frame_needed = 0, uses_anonymous_args = 0
  91 0000 08B5     		push	{r3, lr}
  92              		.cfi_def_cfa_offset 8
  93              		.cfi_offset 3, -8
  94              		.cfi_offset 14, -4
 102:.\main.c      ****     VDAC1_SetValue(spimem[0]);
  95              		.loc 1 102 0
  96 0002 024B     		ldr	r3, .L9
  97 0004 1879     		ldrb	r0, [r3, #4]	@ zero_extendqisi2
  98 0006 FFF7FEFF 		bl	VDAC1_SetValue
  99              	.LVL0:
 100 000a 08BD     		pop	{r3, pc}
 101              	.L10:
 102              		.align	2
 103              	.L9:
 104 000c 00000000 		.word	.LANCHOR0
 105              		.cfi_endproc
 106              	.LFE68:
 107              		.size	spi_rx_handler, .-spi_rx_handler
 108              		.section	.text.start_resources,"ax",%progbits
 109              		.align	2
 110              		.global	start_resources
 111              		.thumb
 112              		.thumb_func
 113              		.type	start_resources, %function
 114              	start_resources:
 115              	.LFB63:
  39:.\main.c      ****     I2C_Start();
 116              		.loc 1 39 0
 117              		.cfi_startproc
 118              		@ args = 0, pretend = 0, frame = 0
 119              		@ frame_needed = 0, uses_anonymous_args = 0
 120 0000 08B5     		push	{r3, lr}
 121              		.cfi_def_cfa_offset 8
 122              		.cfi_offset 3, -8
 123              		.cfi_offset 14, -4
  40:.\main.c      ****     
 124              		.loc 1 40 0
ARM GAS  C:\Users\cruiser\AppData\Local\Temp\ccTybGgx.s 			page 5


 125 0002 FFF7FEFF 		bl	I2C_Start
 126              	.LVL1:
  42:.\main.c      ****     
 127              		.loc 1 42 0
 128 0006 0420     		movs	r0, #4
 129 0008 0146     		mov	r1, r0
 130 000a 204A     		ldr	r2, .L13
 131 000c FFF7FEFF 		bl	I2C_SetBuffer1
 132              	.LVL2:
  44:.\main.c      ****     PWM2_Start();
 133              		.loc 1 44 0
 134 0010 FFF7FEFF 		bl	PWM1_Start
 135              	.LVL3:
  45:.\main.c      ****     
 136              		.loc 1 45 0
 137 0014 FFF7FEFF 		bl	PWM2_Start
 138              	.LVL4:
  47:.\main.c      ****     VDAC2_Start();
 139              		.loc 1 47 0
 140 0018 FFF7FEFF 		bl	VDAC1_Start
 141              	.LVL5:
  48:.\main.c      ****     VDAC3_Start();
 142              		.loc 1 48 0
 143 001c FFF7FEFF 		bl	VDAC2_Start
 144              	.LVL6:
  49:.\main.c      ****     VDAC4_Start();
 145              		.loc 1 49 0
 146 0020 FFF7FEFF 		bl	VDAC3_Start
 147              	.LVL7:
  50:.\main.c      ****     VDAC1_SetValue(127);
 148              		.loc 1 50 0
 149 0024 FFF7FEFF 		bl	VDAC4_Start
 150              	.LVL8:
  51:.\main.c      ****     VDAC2_SetValue(127);
 151              		.loc 1 51 0
 152 0028 7F20     		movs	r0, #127
 153 002a FFF7FEFF 		bl	VDAC1_SetValue
 154              	.LVL9:
  52:.\main.c      ****     VDAC3_SetValue(127);
 155              		.loc 1 52 0
 156 002e 7F20     		movs	r0, #127
 157 0030 FFF7FEFF 		bl	VDAC2_SetValue
 158              	.LVL10:
  53:.\main.c      ****     VDAC4_SetValue(127);
 159              		.loc 1 53 0
 160 0034 7F20     		movs	r0, #127
 161 0036 FFF7FEFF 		bl	VDAC3_SetValue
 162              	.LVL11:
  54:.\main.c      ****     
 163              		.loc 1 54 0
 164 003a 7F20     		movs	r0, #127
 165 003c FFF7FEFF 		bl	VDAC4_SetValue
 166              	.LVL12:
  56:.\main.c      ****     SAR2_Start();
 167              		.loc 1 56 0
 168 0040 FFF7FEFF 		bl	SAR1_Start
 169              	.LVL13:
ARM GAS  C:\Users\cruiser\AppData\Local\Temp\ccTybGgx.s 			page 6


  57:.\main.c      ****     SAR1_StartConvert();
 170              		.loc 1 57 0
 171 0044 FFF7FEFF 		bl	SAR2_Start
 172              	.LVL14:
  58:.\main.c      ****     SAR2_StartConvert();
 173              		.loc 1 58 0
 174 0048 FFF7FEFF 		bl	SAR1_StartConvert
 175              	.LVL15:
  59:.\main.c      ****     
 176              		.loc 1 59 0
 177 004c FFF7FEFF 		bl	SAR2_StartConvert
 178              	.LVL16:
  61:.\main.c      ****     Filter_SetDalign(Filter_STAGEA_DALIGN, Filter_ENABLED);
 179              		.loc 1 61 0
 180 0050 FFF7FEFF 		bl	Filter_Start
 181              	.LVL17:
  62:.\main.c      ****     Filter_SetDalign(Filter_HOLDA_DALIGN, Filter_ENABLED);
 182              		.loc 1 62 0
 183 0054 0120     		movs	r0, #1
 184 0056 0146     		mov	r1, r0
 185 0058 FFF7FEFF 		bl	Filter_SetDalign
 186              	.LVL18:
  63:.\main.c      ****     Filter_SetCoherency(Filter_CHANNEL_A, Filter_KEY_MID);
 187              		.loc 1 63 0
 188 005c 0420     		movs	r0, #4
 189 005e 0121     		movs	r1, #1
 190 0060 FFF7FEFF 		bl	Filter_SetDalign
 191              	.LVL19:
  64:.\main.c      ****     
 192              		.loc 1 64 0
 193 0064 0020     		movs	r0, #0
 194 0066 0121     		movs	r1, #1
 195 0068 FFF7FEFF 		bl	Filter_SetCoherency
 196              	.LVL20:
  66:.\main.c      ****     Filter_SetDalign(Filter_HOLDB_DALIGN, Filter_ENABLED);
 197              		.loc 1 66 0
 198 006c 0220     		movs	r0, #2
 199 006e 0121     		movs	r1, #1
 200 0070 FFF7FEFF 		bl	Filter_SetDalign
 201              	.LVL21:
  67:.\main.c      ****     Filter_SetCoherency(Filter_CHANNEL_B, Filter_KEY_MID);
 202              		.loc 1 67 0
 203 0074 0820     		movs	r0, #8
 204 0076 0121     		movs	r1, #1
 205 0078 FFF7FEFF 		bl	Filter_SetDalign
 206              	.LVL22:
  68:.\main.c      ****     
 207              		.loc 1 68 0
 208 007c 0120     		movs	r0, #1
 209 007e 0146     		mov	r1, r0
 210 0080 FFF7FEFF 		bl	Filter_SetCoherency
 211              	.LVL23:
  70:.\main.c      ****     
 212              		.loc 1 70 0
 213 0084 FFF7FEFF 		bl	SPIS_Start
 214              	.LVL24:
 215 0088 08BD     		pop	{r3, pc}
ARM GAS  C:\Users\cruiser\AppData\Local\Temp\ccTybGgx.s 			page 7


 216              	.L14:
 217 008a 00BF     		.align	2
 218              	.L13:
 219 008c 00000000 		.word	.LANCHOR0
 220              		.cfi_endproc
 221              	.LFE63:
 222              		.size	start_resources, .-start_resources
 223              		.section	.text.shift_sar1_handler,"ax",%progbits
 224              		.align	2
 225              		.global	shift_sar1_handler
 226              		.thumb
 227              		.thumb_func
 228              		.type	shift_sar1_handler, %function
 229              	shift_sar1_handler:
 230              	.LFB64:
  75:.\main.c      ****     //sarmem1[0] = sarmem1[0] << 3;
 231              		.loc 1 75 0
 232              		.cfi_startproc
 233              		@ args = 0, pretend = 0, frame = 0
 234              		@ frame_needed = 0, uses_anonymous_args = 0
 235              		@ link register save eliminated.
 236 0000 7047     		bx	lr
 237              		.cfi_endproc
 238              	.LFE64:
 239              		.size	shift_sar1_handler, .-shift_sar1_handler
 240 0002 00BF     		.section	.text.shift_sar2_handler,"ax",%progbits
 241              		.align	2
 242              		.global	shift_sar2_handler
 243              		.thumb
 244              		.thumb_func
 245              		.type	shift_sar2_handler, %function
 246              	shift_sar2_handler:
 247              	.LFB65:
  82:.\main.c      ****     //sarmem2[0] = sarmem2[0] << 3;
 248              		.loc 1 82 0
 249              		.cfi_startproc
 250              		@ args = 0, pretend = 0, frame = 0
 251              		@ frame_needed = 0, uses_anonymous_args = 0
 252              		@ link register save eliminated.
 253 0000 7047     		bx	lr
 254              		.cfi_endproc
 255              	.LFE65:
 256              		.size	shift_sar2_handler, .-shift_sar2_handler
 257 0002 00BF     		.section	.text.start_interrupts,"ax",%progbits
 258              		.align	2
 259              		.global	start_interrupts
 260              		.thumb
 261              		.thumb_func
 262              		.type	start_interrupts, %function
 263              	start_interrupts:
 264              	.LFB69:
 103:.\main.c      **** }
 104:.\main.c      **** 
 105:.\main.c      **** 
 106:.\main.c      **** 
 107:.\main.c      **** void start_interrupts()
 108:.\main.c      **** {
ARM GAS  C:\Users\cruiser\AppData\Local\Temp\ccTybGgx.s 			page 8


 265              		.loc 1 108 0
 266              		.cfi_startproc
 267              		@ args = 0, pretend = 0, frame = 0
 268              		@ frame_needed = 0, uses_anonymous_args = 0
 269              		.loc 1 108 0
 270 0000 08B5     		push	{r3, lr}
 271              		.cfi_def_cfa_offset 8
 272              		.cfi_offset 3, -8
 273              		.cfi_offset 14, -4
 109:.\main.c      ****     //isr_shift_sar1_StartEx(shift_sar1_handler);
 110:.\main.c      ****     //isr_shift_sar2_StartEx(shift_sar2_handler);
 111:.\main.c      ****     isr_filter_ready1_StartEx(filter_ready1_handler);
 274              		.loc 1 111 0
 275 0002 0648     		ldr	r0, .L19
 276 0004 FFF7FEFF 		bl	isr_filter_ready1_StartEx
 277              	.LVL25:
 112:.\main.c      ****     isr_filter_ready2_StartEx(filter_ready2_handler);
 278              		.loc 1 112 0
 279 0008 0548     		ldr	r0, .L19+4
 280 000a FFF7FEFF 		bl	isr_filter_ready2_StartEx
 281              	.LVL26:
 113:.\main.c      ****     isr_spi_rx_StartEx(spi_rx_handler);
 282              		.loc 1 113 0
 283 000e 0548     		ldr	r0, .L19+8
 284 0010 FFF7FEFF 		bl	isr_spi_rx_StartEx
 285              	.LVL27:
 114:.\main.c      ****     
 115:.\main.c      ****     SPIS_EnableRxInt();
 286              		.loc 1 115 0
 287 0014 FFF7FEFF 		bl	SPIS_EnableRxInt
 288              	.LVL28:
 289 0018 08BD     		pop	{r3, pc}
 290              	.L20:
 291 001a 00BF     		.align	2
 292              	.L19:
 293 001c 00000000 		.word	filter_ready1_handler
 294 0020 00000000 		.word	filter_ready2_handler
 295 0024 00000000 		.word	spi_rx_handler
 296              		.cfi_endproc
 297              	.LFE69:
 298              		.size	start_interrupts, .-start_interrupts
 299              		.section	.text.DMA_SAR2FILTER1_config,"ax",%progbits
 300              		.align	2
 301              		.global	DMA_SAR2FILTER1_config
 302              		.thumb
 303              		.thumb_func
 304              		.type	DMA_SAR2FILTER1_config, %function
 305              	DMA_SAR2FILTER1_config:
 306              	.LFB70:
 116:.\main.c      **** }
 117:.\main.c      **** 
 118:.\main.c      **** 
 119:.\main.c      **** void DMA_SAR2FILTER1_config()
 120:.\main.c      **** {
 307              		.loc 1 120 0
 308              		.cfi_startproc
 309              		@ args = 0, pretend = 0, frame = 0
ARM GAS  C:\Users\cruiser\AppData\Local\Temp\ccTybGgx.s 			page 9


 310              		@ frame_needed = 0, uses_anonymous_args = 0
 311 0000 38B5     		push	{r3, r4, r5, lr}
 312              		.cfi_def_cfa_offset 16
 313              		.cfi_offset 3, -16
 314              		.cfi_offset 4, -12
 315              		.cfi_offset 5, -8
 316              		.cfi_offset 14, -4
 121:.\main.c      ****     /* Defines for SAR2FILTER1 */
 122:.\main.c      ****     #define SAR2FILTER1_BYTES_PER_BURST 2
 123:.\main.c      ****     #define SAR2FILTER1_REQUEST_PER_BURST 1
 124:.\main.c      ****     #define SAR2FILTER1_SRC_BASE (CYDEV_PERIPH_BASE)
 125:.\main.c      ****     #define SAR2FILTER1_DST_BASE (CYDEV_PERIPH_BASE)
 126:.\main.c      **** 
 127:.\main.c      ****     /* Variable declarations for SAR2FILTER1 */
 128:.\main.c      ****     /* Move these variable declarations to the top of the function */
 129:.\main.c      ****     uint8 SAR2FILTER1_Chan;
 130:.\main.c      ****     uint8 SAR2FILTER1_TD[1];
 131:.\main.c      **** 
 132:.\main.c      ****     /* DMA Configuration for SAR2FILTER1 */
 133:.\main.c      ****     SAR2FILTER1_Chan = SAR2FILTER1_DmaInitialize(SAR2FILTER1_BYTES_PER_BURST, SAR2FILTER1_REQUEST_P
 317              		.loc 1 133 0
 318 0002 0220     		movs	r0, #2
 319 0004 0121     		movs	r1, #1
 320 0006 4FF48042 		mov	r2, #16384
 321 000a 1346     		mov	r3, r2
 322 000c FFF7FEFF 		bl	SAR2FILTER1_DmaInitialize
 323              	.LVL29:
 324 0010 0546     		mov	r5, r0
 325              	.LVL30:
 134:.\main.c      ****         HI16(SAR2FILTER1_SRC_BASE), HI16(SAR2FILTER1_DST_BASE));
 135:.\main.c      ****     SAR2FILTER1_TD[0] = CyDmaTdAllocate();
 326              		.loc 1 135 0
 327 0012 FFF7FEFF 		bl	CyDmaTdAllocate
 328              	.LVL31:
 329 0016 0446     		mov	r4, r0
 136:.\main.c      ****     CyDmaTdSetConfiguration(SAR2FILTER1_TD[0], 2, SAR2FILTER1_TD[0], SAR2FILTER1__TD_TERMOUT_EN); /
 330              		.loc 1 136 0
 331 0018 0221     		movs	r1, #2
 332 001a 0246     		mov	r2, r0
 333 001c 0023     		movs	r3, #0
 334 001e FFF7FEFF 		bl	CyDmaTdSetConfiguration
 335              	.LVL32:
 137:.\main.c      ****     CyDmaTdSetAddress(SAR2FILTER1_TD[0], LO16((uint32)SAR1_SAR_WRK0_PTR), LO16((uint32)Filter_STAGE
 336              		.loc 1 137 0
 337 0022 2046     		mov	r0, r4
 338 0024 45F6A031 		movw	r1, #23456
 339 0028 4CF2A072 		movw	r2, #51104
 340 002c FFF7FEFF 		bl	CyDmaTdSetAddress
 341              	.LVL33:
 138:.\main.c      ****     CyDmaChSetInitialTd(SAR2FILTER1_Chan, SAR2FILTER1_TD[0]);
 342              		.loc 1 138 0
 343 0030 2846     		mov	r0, r5
 344 0032 2146     		mov	r1, r4
 345 0034 FFF7FEFF 		bl	CyDmaChSetInitialTd
 346              	.LVL34:
 139:.\main.c      ****     CyDmaChEnable(SAR2FILTER1_Chan, 1);
 347              		.loc 1 139 0
ARM GAS  C:\Users\cruiser\AppData\Local\Temp\ccTybGgx.s 			page 10


 348 0038 2846     		mov	r0, r5
 349 003a 0121     		movs	r1, #1
 350 003c FFF7FEFF 		bl	CyDmaChEnable
 351              	.LVL35:
 352 0040 38BD     		pop	{r3, r4, r5, pc}
 353              		.cfi_endproc
 354              	.LFE70:
 355              		.size	DMA_SAR2FILTER1_config, .-DMA_SAR2FILTER1_config
 356 0042 00BF     		.section	.text.DMA_SAR2FILTER2_config,"ax",%progbits
 357              		.align	2
 358              		.global	DMA_SAR2FILTER2_config
 359              		.thumb
 360              		.thumb_func
 361              		.type	DMA_SAR2FILTER2_config, %function
 362              	DMA_SAR2FILTER2_config:
 363              	.LFB71:
 140:.\main.c      **** 
 141:.\main.c      **** }
 142:.\main.c      **** 
 143:.\main.c      **** void DMA_SAR2FILTER2_config()
 144:.\main.c      **** {
 364              		.loc 1 144 0
 365              		.cfi_startproc
 366              		@ args = 0, pretend = 0, frame = 0
 367              		@ frame_needed = 0, uses_anonymous_args = 0
 368 0000 38B5     		push	{r3, r4, r5, lr}
 369              		.cfi_def_cfa_offset 16
 370              		.cfi_offset 3, -16
 371              		.cfi_offset 4, -12
 372              		.cfi_offset 5, -8
 373              		.cfi_offset 14, -4
 145:.\main.c      ****     /* Defines for SAR2FILTER2 */
 146:.\main.c      ****     #define SAR2FILTER2_BYTES_PER_BURST 2
 147:.\main.c      ****     #define SAR2FILTER2_REQUEST_PER_BURST 1
 148:.\main.c      ****     #define SAR2FILTER2_SRC_BASE (CYDEV_PERIPH_BASE)
 149:.\main.c      ****     #define SAR2FILTER2_DST_BASE (CYDEV_PERIPH_BASE)
 150:.\main.c      **** 
 151:.\main.c      ****     /* Variable declarations for SAR2FILTER1 */
 152:.\main.c      ****     /* Move these variable declarations to the top of the function */
 153:.\main.c      ****     uint8 SAR2FILTER2_Chan;
 154:.\main.c      ****     uint8 SAR2FILTER2_TD[1];
 155:.\main.c      **** 
 156:.\main.c      ****     /* DMA Configuration for SAR2FILTER1 */
 157:.\main.c      ****     SAR2FILTER2_Chan = SAR2FILTER2_DmaInitialize(SAR2FILTER2_BYTES_PER_BURST, SAR2FILTER2_REQUEST_P
 374              		.loc 1 157 0
 375 0002 0220     		movs	r0, #2
 376 0004 0121     		movs	r1, #1
 377 0006 4FF48042 		mov	r2, #16384
 378 000a 1346     		mov	r3, r2
 379 000c FFF7FEFF 		bl	SAR2FILTER2_DmaInitialize
 380              	.LVL36:
 381 0010 0546     		mov	r5, r0
 382              	.LVL37:
 158:.\main.c      ****         HI16(SAR2FILTER2_SRC_BASE), HI16(SAR2FILTER2_DST_BASE));
 159:.\main.c      ****     SAR2FILTER2_TD[0] = CyDmaTdAllocate();
 383              		.loc 1 159 0
 384 0012 FFF7FEFF 		bl	CyDmaTdAllocate
ARM GAS  C:\Users\cruiser\AppData\Local\Temp\ccTybGgx.s 			page 11


 385              	.LVL38:
 386 0016 0446     		mov	r4, r0
 160:.\main.c      ****     CyDmaTdSetConfiguration(SAR2FILTER2_TD[0], 2, SAR2FILTER2_TD[0], SAR2FILTER2__TD_TERMOUT_EN); /
 387              		.loc 1 160 0
 388 0018 0221     		movs	r1, #2
 389 001a 0246     		mov	r2, r0
 390 001c 0023     		movs	r3, #0
 391 001e FFF7FEFF 		bl	CyDmaTdSetConfiguration
 392              	.LVL39:
 161:.\main.c      ****     CyDmaTdSetAddress(SAR2FILTER2_TD[0], LO16((uint32)SAR2_SAR_WRK0_PTR), LO16((uint32)Filter_STAGE
 393              		.loc 1 161 0
 394 0022 2046     		mov	r0, r4
 395 0024 45F6A231 		movw	r1, #23458
 396 0028 4CF2A472 		movw	r2, #51108
 397 002c FFF7FEFF 		bl	CyDmaTdSetAddress
 398              	.LVL40:
 162:.\main.c      ****     CyDmaChSetInitialTd(SAR2FILTER2_Chan, SAR2FILTER2_TD[0]);
 399              		.loc 1 162 0
 400 0030 2846     		mov	r0, r5
 401 0032 2146     		mov	r1, r4
 402 0034 FFF7FEFF 		bl	CyDmaChSetInitialTd
 403              	.LVL41:
 163:.\main.c      ****     CyDmaChEnable(SAR2FILTER2_Chan, 1);
 404              		.loc 1 163 0
 405 0038 2846     		mov	r0, r5
 406 003a 0121     		movs	r1, #1
 407 003c FFF7FEFF 		bl	CyDmaChEnable
 408              	.LVL42:
 409 0040 38BD     		pop	{r3, r4, r5, pc}
 410              		.cfi_endproc
 411              	.LFE71:
 412              		.size	DMA_SAR2FILTER2_config, .-DMA_SAR2FILTER2_config
 413 0042 00BF     		.section	.text.DMA_FILTER2RAM1_config,"ax",%progbits
 414              		.align	2
 415              		.global	DMA_FILTER2RAM1_config
 416              		.thumb
 417              		.thumb_func
 418              		.type	DMA_FILTER2RAM1_config, %function
 419              	DMA_FILTER2RAM1_config:
 420              	.LFB72:
 164:.\main.c      **** 
 165:.\main.c      **** }
 166:.\main.c      **** 
 167:.\main.c      **** void DMA_FILTER2RAM1_config()
 168:.\main.c      **** {
 421              		.loc 1 168 0
 422              		.cfi_startproc
 423              		@ args = 0, pretend = 0, frame = 0
 424              		@ frame_needed = 0, uses_anonymous_args = 0
 425 0000 38B5     		push	{r3, r4, r5, lr}
 426              		.cfi_def_cfa_offset 16
 427              		.cfi_offset 3, -16
 428              		.cfi_offset 4, -12
 429              		.cfi_offset 5, -8
 430              		.cfi_offset 14, -4
 169:.\main.c      ****     /* Defines for FILTER2RAM1 */
 170:.\main.c      ****     #define FILTER2RAM1_BYTES_PER_BURST 2
ARM GAS  C:\Users\cruiser\AppData\Local\Temp\ccTybGgx.s 			page 12


 171:.\main.c      ****     #define FILTER2RAM1_REQUEST_PER_BURST 1
 172:.\main.c      ****     #define FILTER2RAM1_SRC_BASE (CYDEV_PERIPH_BASE)
 173:.\main.c      ****     #define FILTER2RAM1_DST_BASE (CYDEV_SRAM_BASE)
 174:.\main.c      **** 
 175:.\main.c      ****     /* Variable declarations for FILTER2RAM1 */
 176:.\main.c      ****     /* Move these variable declarations to the top of the function */
 177:.\main.c      ****     uint8 FILTER2RAM1_Chan;
 178:.\main.c      ****     uint8 FILTER2RAM1_TD[1];
 179:.\main.c      **** 
 180:.\main.c      ****     /* DMA Configuration for FILTER2RAM1 */
 181:.\main.c      ****     FILTER2RAM1_Chan = FILTER2RAM1_DmaInitialize(FILTER2RAM1_BYTES_PER_BURST, FILTER2RAM1_REQUEST_P
 431              		.loc 1 181 0
 432 0002 0220     		movs	r0, #2
 433 0004 0121     		movs	r1, #1
 434 0006 4FF48042 		mov	r2, #16384
 435 000a 41F6FF73 		movw	r3, #8191
 436 000e FFF7FEFF 		bl	FILTER2RAM1_DmaInitialize
 437              	.LVL43:
 438 0012 0546     		mov	r5, r0
 439              	.LVL44:
 182:.\main.c      ****         HI16(FILTER2RAM1_SRC_BASE), HI16(FILTER2RAM1_DST_BASE));
 183:.\main.c      ****     FILTER2RAM1_TD[0] = CyDmaTdAllocate();
 440              		.loc 1 183 0
 441 0014 FFF7FEFF 		bl	CyDmaTdAllocate
 442              	.LVL45:
 443 0018 0446     		mov	r4, r0
 184:.\main.c      ****     CyDmaTdSetConfiguration(FILTER2RAM1_TD[0], DECIMATION*2, FILTER2RAM1_TD[0], FILTER2RAM1__TD_TER
 444              		.loc 1 184 0
 445 001a 3221     		movs	r1, #50
 446 001c 0246     		mov	r2, r0
 447 001e 0623     		movs	r3, #6
 448 0020 FFF7FEFF 		bl	CyDmaTdSetConfiguration
 449              	.LVL46:
 185:.\main.c      ****     CyDmaTdSetAddress(FILTER2RAM1_TD[0], LO16((uint32)Filter_HOLDA_PTR), LO16((uint32)filtermem1));
 450              		.loc 1 185 0
 451 0024 2046     		mov	r0, r4
 452 0026 4CF2A871 		movw	r1, #51112
 453 002a 064A     		ldr	r2, .L27
 454 002c 92B2     		uxth	r2, r2
 455 002e FFF7FEFF 		bl	CyDmaTdSetAddress
 456              	.LVL47:
 186:.\main.c      ****     CyDmaChSetInitialTd(FILTER2RAM1_Chan, FILTER2RAM1_TD[0]);
 457              		.loc 1 186 0
 458 0032 2846     		mov	r0, r5
 459 0034 2146     		mov	r1, r4
 460 0036 FFF7FEFF 		bl	CyDmaChSetInitialTd
 461              	.LVL48:
 187:.\main.c      ****     CyDmaChEnable(FILTER2RAM1_Chan, 1);
 462              		.loc 1 187 0
 463 003a 2846     		mov	r0, r5
 464 003c 0121     		movs	r1, #1
 465 003e FFF7FEFF 		bl	CyDmaChEnable
 466              	.LVL49:
 467 0042 38BD     		pop	{r3, r4, r5, pc}
 468              	.LVL50:
 469              	.L28:
 470              		.align	2
ARM GAS  C:\Users\cruiser\AppData\Local\Temp\ccTybGgx.s 			page 13


 471              	.L27:
 472 0044 00000000 		.word	filtermem1
 473              		.cfi_endproc
 474              	.LFE72:
 475              		.size	DMA_FILTER2RAM1_config, .-DMA_FILTER2RAM1_config
 476              		.section	.text.DMA_FILTER2RAM2_config,"ax",%progbits
 477              		.align	2
 478              		.global	DMA_FILTER2RAM2_config
 479              		.thumb
 480              		.thumb_func
 481              		.type	DMA_FILTER2RAM2_config, %function
 482              	DMA_FILTER2RAM2_config:
 483              	.LFB73:
 188:.\main.c      **** }
 189:.\main.c      **** 
 190:.\main.c      **** void DMA_FILTER2RAM2_config()
 191:.\main.c      **** {
 484              		.loc 1 191 0
 485              		.cfi_startproc
 486              		@ args = 0, pretend = 0, frame = 0
 487              		@ frame_needed = 0, uses_anonymous_args = 0
 488 0000 38B5     		push	{r3, r4, r5, lr}
 489              		.cfi_def_cfa_offset 16
 490              		.cfi_offset 3, -16
 491              		.cfi_offset 4, -12
 492              		.cfi_offset 5, -8
 493              		.cfi_offset 14, -4
 192:.\main.c      ****     /* Defines for FILTER2RAM2 */
 193:.\main.c      ****     #define FILTER2RAM2_BYTES_PER_BURST 2
 194:.\main.c      ****     #define FILTER2RAM2_REQUEST_PER_BURST 1
 195:.\main.c      ****     #define FILTER2RAM2_SRC_BASE (CYDEV_PERIPH_BASE)
 196:.\main.c      ****     #define FILTER2RAM2_DST_BASE (CYDEV_SRAM_BASE)
 197:.\main.c      **** 
 198:.\main.c      ****     /* Variable declarations for FILTER2RAM1 */
 199:.\main.c      ****     /* Move these variable declarations to the top of the function */
 200:.\main.c      ****     uint8 FILTER2RAM2_Chan;
 201:.\main.c      ****     uint8 FILTER2RAM2_TD[1];
 202:.\main.c      **** 
 203:.\main.c      ****     /* DMA Configuration for FILTER2RAM1 */
 204:.\main.c      ****     FILTER2RAM2_Chan = FILTER2RAM2_DmaInitialize(FILTER2RAM2_BYTES_PER_BURST, FILTER2RAM2_REQUEST_P
 494              		.loc 1 204 0
 495 0002 0220     		movs	r0, #2
 496 0004 0121     		movs	r1, #1
 497 0006 4FF48042 		mov	r2, #16384
 498 000a 41F6FF73 		movw	r3, #8191
 499 000e FFF7FEFF 		bl	FILTER2RAM2_DmaInitialize
 500              	.LVL51:
 501 0012 0546     		mov	r5, r0
 502              	.LVL52:
 205:.\main.c      ****         HI16(FILTER2RAM2_SRC_BASE), HI16(FILTER2RAM2_DST_BASE));
 206:.\main.c      ****     FILTER2RAM2_TD[0] = CyDmaTdAllocate();
 503              		.loc 1 206 0
 504 0014 FFF7FEFF 		bl	CyDmaTdAllocate
 505              	.LVL53:
 506 0018 0446     		mov	r4, r0
 207:.\main.c      ****     CyDmaTdSetConfiguration(FILTER2RAM2_TD[0], DECIMATION*2, FILTER2RAM2_TD[0], FILTER2RAM2__TD_TER
 507              		.loc 1 207 0
ARM GAS  C:\Users\cruiser\AppData\Local\Temp\ccTybGgx.s 			page 14


 508 001a 3221     		movs	r1, #50
 509 001c 0246     		mov	r2, r0
 510 001e 0623     		movs	r3, #6
 511 0020 FFF7FEFF 		bl	CyDmaTdSetConfiguration
 512              	.LVL54:
 208:.\main.c      ****     CyDmaTdSetAddress(FILTER2RAM2_TD[0], LO16((uint32)Filter_HOLDB_PTR), LO16((uint32)filtermem2));
 513              		.loc 1 208 0
 514 0024 2046     		mov	r0, r4
 515 0026 4CF2AC71 		movw	r1, #51116
 516 002a 064A     		ldr	r2, .L31
 517 002c 92B2     		uxth	r2, r2
 518 002e FFF7FEFF 		bl	CyDmaTdSetAddress
 519              	.LVL55:
 209:.\main.c      ****     CyDmaChSetInitialTd(FILTER2RAM2_Chan, FILTER2RAM2_TD[0]);
 520              		.loc 1 209 0
 521 0032 2846     		mov	r0, r5
 522 0034 2146     		mov	r1, r4
 523 0036 FFF7FEFF 		bl	CyDmaChSetInitialTd
 524              	.LVL56:
 210:.\main.c      ****     CyDmaChEnable(FILTER2RAM2_Chan, 1);
 525              		.loc 1 210 0
 526 003a 2846     		mov	r0, r5
 527 003c 0121     		movs	r1, #1
 528 003e FFF7FEFF 		bl	CyDmaChEnable
 529              	.LVL57:
 530 0042 38BD     		pop	{r3, r4, r5, pc}
 531              	.LVL58:
 532              	.L32:
 533              		.align	2
 534              	.L31:
 535 0044 00000000 		.word	filtermem2
 536              		.cfi_endproc
 537              	.LFE73:
 538              		.size	DMA_FILTER2RAM2_config, .-DMA_FILTER2RAM2_config
 539              		.section	.text.DMA_SPI2RAM_config,"ax",%progbits
 540              		.align	2
 541              		.global	DMA_SPI2RAM_config
 542              		.thumb
 543              		.thumb_func
 544              		.type	DMA_SPI2RAM_config, %function
 545              	DMA_SPI2RAM_config:
 546              	.LFB74:
 211:.\main.c      **** }
 212:.\main.c      **** 
 213:.\main.c      **** void DMA_SPI2RAM_config()
 214:.\main.c      **** {
 547              		.loc 1 214 0
 548              		.cfi_startproc
 549              		@ args = 0, pretend = 0, frame = 0
 550              		@ frame_needed = 0, uses_anonymous_args = 0
 551 0000 38B5     		push	{r3, r4, r5, lr}
 552              		.cfi_def_cfa_offset 16
 553              		.cfi_offset 3, -16
 554              		.cfi_offset 4, -12
 555              		.cfi_offset 5, -8
 556              		.cfi_offset 14, -4
 215:.\main.c      ****     /* Defines for SPI2RAM */
ARM GAS  C:\Users\cruiser\AppData\Local\Temp\ccTybGgx.s 			page 15


 216:.\main.c      ****     #define SPI2RAM_BYTES_PER_BURST 1
 217:.\main.c      ****     #define SPI2RAM_REQUEST_PER_BURST 1
 218:.\main.c      ****     #define SPI2RAM_SRC_BASE (CYDEV_PERIPH_BASE)
 219:.\main.c      ****     #define SPI2RAM_DST_BASE (CYDEV_SRAM_BASE)
 220:.\main.c      ****     
 221:.\main.c      ****     uint8 SPI2RAM_Chan;
 222:.\main.c      ****     uint8 SPI2RAM_TD[1];
 223:.\main.c      ****     
 224:.\main.c      ****     SPI2RAM_Chan = SPI2RAM_DmaInitialize(SPI2RAM_BYTES_PER_BURST, SPI2RAM_REQUEST_PER_BURST,
 557              		.loc 1 224 0
 558 0002 0120     		movs	r0, #1
 559 0004 0146     		mov	r1, r0
 560 0006 4FF48042 		mov	r2, #16384
 561 000a 41F6FF73 		movw	r3, #8191
 562 000e FFF7FEFF 		bl	SPI2RAM_DmaInitialize
 563              	.LVL59:
 564 0012 0546     		mov	r5, r0
 565              	.LVL60:
 225:.\main.c      ****         HI16(SPI2RAM_SRC_BASE), HI16(SPI2RAM_DST_BASE));
 226:.\main.c      **** 
 227:.\main.c      ****     SPI2RAM_TD[0] = CyDmaTdAllocate();
 566              		.loc 1 227 0
 567 0014 FFF7FEFF 		bl	CyDmaTdAllocate
 568              	.LVL61:
 569 0018 0446     		mov	r4, r0
 228:.\main.c      ****     CyDmaTdSetConfiguration(SPI2RAM_TD[0], 1, SPI2RAM_TD[0], SPI2RAM__TD_TERMOUT_EN);
 570              		.loc 1 228 0
 571 001a 0121     		movs	r1, #1
 572 001c 0246     		mov	r2, r0
 573 001e 0423     		movs	r3, #4
 574 0020 FFF7FEFF 		bl	CyDmaTdSetConfiguration
 575              	.LVL62:
 229:.\main.c      ****     CyDmaTdSetAddress(SPI2RAM_TD[0], LO16((uint32)SPIS_RXDATA_PTR), LO16((uint32)spimem));
 576              		.loc 1 229 0
 577 0024 2046     		mov	r0, r4
 578 0026 46F25441 		movw	r1, #25684
 579 002a 064A     		ldr	r2, .L35
 580 002c 92B2     		uxth	r2, r2
 581 002e FFF7FEFF 		bl	CyDmaTdSetAddress
 582              	.LVL63:
 230:.\main.c      ****     CyDmaChSetInitialTd(SPI2RAM_Chan, SPI2RAM_TD[0]);
 583              		.loc 1 230 0
 584 0032 2846     		mov	r0, r5
 585 0034 2146     		mov	r1, r4
 586 0036 FFF7FEFF 		bl	CyDmaChSetInitialTd
 587              	.LVL64:
 231:.\main.c      ****     CyDmaChEnable(SPI2RAM_Chan, 1);
 588              		.loc 1 231 0
 589 003a 2846     		mov	r0, r5
 590 003c 0121     		movs	r1, #1
 591 003e FFF7FEFF 		bl	CyDmaChEnable
 592              	.LVL65:
 593 0042 38BD     		pop	{r3, r4, r5, pc}
 594              	.LVL66:
 595              	.L36:
 596              		.align	2
 597              	.L35:
ARM GAS  C:\Users\cruiser\AppData\Local\Temp\ccTybGgx.s 			page 16


 598 0044 04000000 		.word	.LANCHOR0+4
 599              		.cfi_endproc
 600              	.LFE74:
 601              		.size	DMA_SPI2RAM_config, .-DMA_SPI2RAM_config
 602              		.section	.text.DMA_SAR2SHIFT1_config,"ax",%progbits
 603              		.align	2
 604              		.global	DMA_SAR2SHIFT1_config
 605              		.thumb
 606              		.thumb_func
 607              		.type	DMA_SAR2SHIFT1_config, %function
 608              	DMA_SAR2SHIFT1_config:
 609              	.LFB75:
 232:.\main.c      **** }
 233:.\main.c      **** 
 234:.\main.c      **** 
 235:.\main.c      **** void DMA_SAR2SHIFT1_config()
 236:.\main.c      **** {
 610              		.loc 1 236 0
 611              		.cfi_startproc
 612              		@ args = 0, pretend = 0, frame = 0
 613              		@ frame_needed = 0, uses_anonymous_args = 0
 614 0000 38B5     		push	{r3, r4, r5, lr}
 615              		.cfi_def_cfa_offset 16
 616              		.cfi_offset 3, -16
 617              		.cfi_offset 4, -12
 618              		.cfi_offset 5, -8
 619              		.cfi_offset 14, -4
 237:.\main.c      ****     /* Defines for SAR2SHIFT1 */
 238:.\main.c      ****     #define SAR2SHIFT1_BYTES_PER_BURST 2
 239:.\main.c      ****     #define SAR2SHIFT1_REQUEST_PER_BURST 1
 240:.\main.c      ****     #define SAR2SHIFT1_SRC_BASE (CYDEV_PERIPH_BASE)
 241:.\main.c      ****     #define SAR2SHIFT1_DST_BASE (CYDEV_PERIPH_BASE)
 242:.\main.c      **** 
 243:.\main.c      ****     /* Variable declarations for SAR2SHIFT1 */
 244:.\main.c      ****     /* Move these variable declarations to the top of the function */
 245:.\main.c      ****     uint8 SAR2SHIFT1_Chan;
 246:.\main.c      ****     uint8 SAR2SHIFT1_TD[1];
 247:.\main.c      **** 
 248:.\main.c      ****     /* DMA Configuration for SAR2SHIFT1 */
 249:.\main.c      ****     SAR2SHIFT1_Chan = SAR2SHIFT1_DmaInitialize(SAR2SHIFT1_BYTES_PER_BURST, SAR2SHIFT1_REQUEST_PER_B
 620              		.loc 1 249 0
 621 0002 0220     		movs	r0, #2
 622 0004 0121     		movs	r1, #1
 623 0006 4FF48042 		mov	r2, #16384
 624 000a 1346     		mov	r3, r2
 625 000c FFF7FEFF 		bl	SAR2SHIFT1_DmaInitialize
 626              	.LVL67:
 627 0010 0546     		mov	r5, r0
 628              	.LVL68:
 250:.\main.c      ****         HI16(SAR2SHIFT1_SRC_BASE), HI16(SAR2SHIFT1_DST_BASE));
 251:.\main.c      ****     SAR2SHIFT1_TD[0] = CyDmaTdAllocate();
 629              		.loc 1 251 0
 630 0012 FFF7FEFF 		bl	CyDmaTdAllocate
 631              	.LVL69:
 632 0016 0446     		mov	r4, r0
 252:.\main.c      ****     CyDmaTdSetConfiguration(SAR2SHIFT1_TD[0], 2, SAR2SHIFT1_TD[0], SAR2SHIFT1__TD_TERMOUT_EN);
 633              		.loc 1 252 0
ARM GAS  C:\Users\cruiser\AppData\Local\Temp\ccTybGgx.s 			page 17


 634 0018 0221     		movs	r1, #2
 635 001a 0246     		mov	r2, r0
 636 001c 0423     		movs	r3, #4
 637 001e FFF7FEFF 		bl	CyDmaTdSetConfiguration
 638              	.LVL70:
 253:.\main.c      ****     CyDmaTdSetAddress(SAR2SHIFT1_TD[0], LO16((uint32)SAR1_SAR_WRK0_PTR), LO16((uint32)ShiftBy2_1_IN
 639              		.loc 1 253 0
 640 0022 2046     		mov	r0, r4
 641 0024 45F6A031 		movw	r1, #23456
 642 0028 46F60822 		movw	r2, #27144
 643 002c FFF7FEFF 		bl	CyDmaTdSetAddress
 644              	.LVL71:
 254:.\main.c      ****     CyDmaChSetInitialTd(SAR2SHIFT1_Chan, SAR2SHIFT1_TD[0]);
 645              		.loc 1 254 0
 646 0030 2846     		mov	r0, r5
 647 0032 2146     		mov	r1, r4
 648 0034 FFF7FEFF 		bl	CyDmaChSetInitialTd
 649              	.LVL72:
 255:.\main.c      ****     CyDmaChEnable(SAR2SHIFT1_Chan, 1);
 650              		.loc 1 255 0
 651 0038 2846     		mov	r0, r5
 652 003a 0121     		movs	r1, #1
 653 003c FFF7FEFF 		bl	CyDmaChEnable
 654              	.LVL73:
 655 0040 38BD     		pop	{r3, r4, r5, pc}
 656              		.cfi_endproc
 657              	.LFE75:
 658              		.size	DMA_SAR2SHIFT1_config, .-DMA_SAR2SHIFT1_config
 659 0042 00BF     		.section	.text.DMA_SAR2SHIFT2_config,"ax",%progbits
 660              		.align	2
 661              		.global	DMA_SAR2SHIFT2_config
 662              		.thumb
 663              		.thumb_func
 664              		.type	DMA_SAR2SHIFT2_config, %function
 665              	DMA_SAR2SHIFT2_config:
 666              	.LFB76:
 256:.\main.c      **** }
 257:.\main.c      **** 
 258:.\main.c      **** void DMA_SAR2SHIFT2_config()
 259:.\main.c      **** {
 667              		.loc 1 259 0
 668              		.cfi_startproc
 669              		@ args = 0, pretend = 0, frame = 0
 670              		@ frame_needed = 0, uses_anonymous_args = 0
 671 0000 38B5     		push	{r3, r4, r5, lr}
 672              		.cfi_def_cfa_offset 16
 673              		.cfi_offset 3, -16
 674              		.cfi_offset 4, -12
 675              		.cfi_offset 5, -8
 676              		.cfi_offset 14, -4
 260:.\main.c      ****     /* Defines for SAR2SHIFT2 */
 261:.\main.c      ****     #define SAR2SHIFT2_BYTES_PER_BURST 2
 262:.\main.c      ****     #define SAR2SHIFT2_REQUEST_PER_BURST 1
 263:.\main.c      ****     #define SAR2SHIFT2_SRC_BASE (CYDEV_PERIPH_BASE)
 264:.\main.c      ****     #define SAR2SHIFT2_DST_BASE (CYDEV_PERIPH_BASE)
 265:.\main.c      **** 
 266:.\main.c      ****     /* Variable declarations for SAR2SHIFT2 */
ARM GAS  C:\Users\cruiser\AppData\Local\Temp\ccTybGgx.s 			page 18


 267:.\main.c      ****     /* Move these variable declarations to the top of the function */
 268:.\main.c      ****     uint8 SAR2SHIFT2_Chan;
 269:.\main.c      ****     uint8 SAR2SHIFT2_TD[1];
 270:.\main.c      **** 
 271:.\main.c      ****     /* DMA Configuration for SAR2SHIFT2 */
 272:.\main.c      ****     SAR2SHIFT2_Chan = SAR2SHIFT2_DmaInitialize(SAR2SHIFT2_BYTES_PER_BURST, SAR2SHIFT2_REQUEST_PER_B
 677              		.loc 1 272 0
 678 0002 0220     		movs	r0, #2
 679 0004 0121     		movs	r1, #1
 680 0006 4FF48042 		mov	r2, #16384
 681 000a 1346     		mov	r3, r2
 682 000c FFF7FEFF 		bl	SAR2SHIFT2_DmaInitialize
 683              	.LVL74:
 684 0010 0546     		mov	r5, r0
 685              	.LVL75:
 273:.\main.c      ****         HI16(SAR2SHIFT2_SRC_BASE), HI16(SAR2SHIFT2_DST_BASE));
 274:.\main.c      ****     SAR2SHIFT2_TD[0] = CyDmaTdAllocate();
 686              		.loc 1 274 0
 687 0012 FFF7FEFF 		bl	CyDmaTdAllocate
 688              	.LVL76:
 689 0016 0446     		mov	r4, r0
 275:.\main.c      ****     CyDmaTdSetConfiguration(SAR2SHIFT2_TD[0], 2, SAR2SHIFT2_TD[0], SAR2SHIFT2__TD_TERMOUT_EN);
 690              		.loc 1 275 0
 691 0018 0221     		movs	r1, #2
 692 001a 0246     		mov	r2, r0
 693 001c 0423     		movs	r3, #4
 694 001e FFF7FEFF 		bl	CyDmaTdSetConfiguration
 695              	.LVL77:
 276:.\main.c      ****     CyDmaTdSetAddress(SAR2SHIFT2_TD[0], LO16((uint32)SAR2_SAR_WRK0_PTR), LO16((uint32)ShiftBy2_2_IN
 696              		.loc 1 276 0
 697 0022 2046     		mov	r0, r4
 698 0024 45F6A231 		movw	r1, #23458
 699 0028 46F60C02 		movw	r2, #26636
 700 002c FFF7FEFF 		bl	CyDmaTdSetAddress
 701              	.LVL78:
 277:.\main.c      ****     CyDmaChSetInitialTd(SAR2SHIFT2_Chan, SAR2SHIFT2_TD[0]);
 702              		.loc 1 277 0
 703 0030 2846     		mov	r0, r5
 704 0032 2146     		mov	r1, r4
 705 0034 FFF7FEFF 		bl	CyDmaChSetInitialTd
 706              	.LVL79:
 278:.\main.c      ****     CyDmaChEnable(SAR2SHIFT2_Chan, 1);
 707              		.loc 1 278 0
 708 0038 2846     		mov	r0, r5
 709 003a 0121     		movs	r1, #1
 710 003c FFF7FEFF 		bl	CyDmaChEnable
 711              	.LVL80:
 712 0040 38BD     		pop	{r3, r4, r5, pc}
 713              		.cfi_endproc
 714              	.LFE76:
 715              		.size	DMA_SAR2SHIFT2_config, .-DMA_SAR2SHIFT2_config
 716 0042 00BF     		.section	.text.DMA_SHIFT2FILTER1_config,"ax",%progbits
 717              		.align	2
 718              		.global	DMA_SHIFT2FILTER1_config
 719              		.thumb
 720              		.thumb_func
 721              		.type	DMA_SHIFT2FILTER1_config, %function
ARM GAS  C:\Users\cruiser\AppData\Local\Temp\ccTybGgx.s 			page 19


 722              	DMA_SHIFT2FILTER1_config:
 723              	.LFB77:
 279:.\main.c      **** }
 280:.\main.c      **** 
 281:.\main.c      **** void DMA_SHIFT2FILTER1_config()
 282:.\main.c      **** {
 724              		.loc 1 282 0
 725              		.cfi_startproc
 726              		@ args = 0, pretend = 0, frame = 0
 727              		@ frame_needed = 0, uses_anonymous_args = 0
 728 0000 38B5     		push	{r3, r4, r5, lr}
 729              		.cfi_def_cfa_offset 16
 730              		.cfi_offset 3, -16
 731              		.cfi_offset 4, -12
 732              		.cfi_offset 5, -8
 733              		.cfi_offset 14, -4
 283:.\main.c      ****     /* Defines for SHIFT2FILTER1 */
 284:.\main.c      ****     #define SHIFT2FILTER1_BYTES_PER_BURST 2
 285:.\main.c      ****     #define SHIFT2FILTER1_REQUEST_PER_BURST 1
 286:.\main.c      ****     #define SHIFT2FILTER1_SRC_BASE (CYDEV_PERIPH_BASE)
 287:.\main.c      ****     #define SHIFT2FILTER1_DST_BASE (CYDEV_PERIPH_BASE)
 288:.\main.c      **** 
 289:.\main.c      ****     /* Variable declarations for SHIFT2FILTER1 */
 290:.\main.c      ****     /* Move these variable declarations to the top of the function */
 291:.\main.c      ****     uint8 SHIFT2FILTER1_Chan;
 292:.\main.c      ****     uint8 SHIFT2FILTER1_TD[1];
 293:.\main.c      **** 
 294:.\main.c      ****     /* DMA Configuration for SHIFT2FILTER1 */
 295:.\main.c      ****     SHIFT2FILTER1_Chan = SHIFT2FILTER1_DmaInitialize(SHIFT2FILTER1_BYTES_PER_BURST, SHIFT2FILTER1_R
 734              		.loc 1 295 0
 735 0002 0220     		movs	r0, #2
 736 0004 0121     		movs	r1, #1
 737 0006 4FF48042 		mov	r2, #16384
 738 000a 1346     		mov	r3, r2
 739 000c FFF7FEFF 		bl	SHIFT2FILTER1_DmaInitialize
 740              	.LVL81:
 741 0010 0546     		mov	r5, r0
 742              	.LVL82:
 296:.\main.c      ****         HI16(SHIFT2FILTER1_SRC_BASE), HI16(SHIFT2FILTER1_DST_BASE));
 297:.\main.c      ****     SHIFT2FILTER1_TD[0] = CyDmaTdAllocate();
 743              		.loc 1 297 0
 744 0012 FFF7FEFF 		bl	CyDmaTdAllocate
 745              	.LVL83:
 746 0016 0446     		mov	r4, r0
 298:.\main.c      ****     CyDmaTdSetConfiguration(SHIFT2FILTER1_TD[0], 2, SHIFT2FILTER1_TD[0], SHIFT2FILTER1__TD_TERMOUT_
 747              		.loc 1 298 0
 748 0018 0221     		movs	r1, #2
 749 001a 0246     		mov	r2, r0
 750 001c 0023     		movs	r3, #0
 751 001e FFF7FEFF 		bl	CyDmaTdSetConfiguration
 752              	.LVL84:
 299:.\main.c      ****     CyDmaTdSetAddress(SHIFT2FILTER1_TD[0], LO16((uint32)ShiftBy2_1_OUTPUT_PTR), LO16((uint32)Filter
 753              		.loc 1 299 0
 754 0022 2046     		mov	r0, r4
 755 0024 46F62821 		movw	r1, #27176
 756 0028 4CF2A072 		movw	r2, #51104
 757 002c FFF7FEFF 		bl	CyDmaTdSetAddress
ARM GAS  C:\Users\cruiser\AppData\Local\Temp\ccTybGgx.s 			page 20


 758              	.LVL85:
 300:.\main.c      ****     CyDmaChSetInitialTd(SHIFT2FILTER1_Chan, SHIFT2FILTER1_TD[0]);
 759              		.loc 1 300 0
 760 0030 2846     		mov	r0, r5
 761 0032 2146     		mov	r1, r4
 762 0034 FFF7FEFF 		bl	CyDmaChSetInitialTd
 763              	.LVL86:
 301:.\main.c      ****     CyDmaChEnable(SHIFT2FILTER1_Chan, 1);
 764              		.loc 1 301 0
 765 0038 2846     		mov	r0, r5
 766 003a 0121     		movs	r1, #1
 767 003c FFF7FEFF 		bl	CyDmaChEnable
 768              	.LVL87:
 769 0040 38BD     		pop	{r3, r4, r5, pc}
 770              		.cfi_endproc
 771              	.LFE77:
 772              		.size	DMA_SHIFT2FILTER1_config, .-DMA_SHIFT2FILTER1_config
 773 0042 00BF     		.section	.text.DMA_SHIFT2FILTER2_config,"ax",%progbits
 774              		.align	2
 775              		.global	DMA_SHIFT2FILTER2_config
 776              		.thumb
 777              		.thumb_func
 778              		.type	DMA_SHIFT2FILTER2_config, %function
 779              	DMA_SHIFT2FILTER2_config:
 780              	.LFB78:
 302:.\main.c      **** 
 303:.\main.c      **** }
 304:.\main.c      **** 
 305:.\main.c      **** void DMA_SHIFT2FILTER2_config()
 306:.\main.c      **** {
 781              		.loc 1 306 0
 782              		.cfi_startproc
 783              		@ args = 0, pretend = 0, frame = 0
 784              		@ frame_needed = 0, uses_anonymous_args = 0
 785 0000 38B5     		push	{r3, r4, r5, lr}
 786              		.cfi_def_cfa_offset 16
 787              		.cfi_offset 3, -16
 788              		.cfi_offset 4, -12
 789              		.cfi_offset 5, -8
 790              		.cfi_offset 14, -4
 307:.\main.c      ****     /* Defines for SHIFT2FILTER2 */
 308:.\main.c      ****     #define SHIFT2FILTER2_BYTES_PER_BURST 2
 309:.\main.c      ****     #define SHIFT2FILTER2_REQUEST_PER_BURST 1
 310:.\main.c      ****     #define SHIFT2FILTER2_SRC_BASE (CYDEV_PERIPH_BASE)
 311:.\main.c      ****     #define SHIFT2FILTER2_DST_BASE (CYDEV_PERIPH_BASE)
 312:.\main.c      **** 
 313:.\main.c      ****     /* Variable declarations for SHIFT2FILTER2 */
 314:.\main.c      ****     /* Move these variable declarations to the top of the function */
 315:.\main.c      ****     uint8 SHIFT2FILTER2_Chan;
 316:.\main.c      ****     uint8 SHIFT2FILTER2_TD[1];
 317:.\main.c      **** 
 318:.\main.c      ****     /* DMA Configuration for SHIFT2FILTER2 */
 319:.\main.c      ****     SHIFT2FILTER2_Chan = SHIFT2FILTER2_DmaInitialize(SHIFT2FILTER2_BYTES_PER_BURST, SHIFT2FILTER2_R
 791              		.loc 1 319 0
 792 0002 0220     		movs	r0, #2
 793 0004 0121     		movs	r1, #1
 794 0006 4FF48042 		mov	r2, #16384
ARM GAS  C:\Users\cruiser\AppData\Local\Temp\ccTybGgx.s 			page 21


 795 000a 1346     		mov	r3, r2
 796 000c FFF7FEFF 		bl	SHIFT2FILTER2_DmaInitialize
 797              	.LVL88:
 798 0010 0546     		mov	r5, r0
 799              	.LVL89:
 320:.\main.c      ****         HI16(SHIFT2FILTER2_SRC_BASE), HI16(SHIFT2FILTER2_DST_BASE));
 321:.\main.c      ****     SHIFT2FILTER2_TD[0] = CyDmaTdAllocate();
 800              		.loc 1 321 0
 801 0012 FFF7FEFF 		bl	CyDmaTdAllocate
 802              	.LVL90:
 803 0016 0446     		mov	r4, r0
 322:.\main.c      ****     CyDmaTdSetConfiguration(SHIFT2FILTER2_TD[0], 2, SHIFT2FILTER2_TD[0], SHIFT2FILTER2__TD_TERMOUT_
 804              		.loc 1 322 0
 805 0018 0221     		movs	r1, #2
 806 001a 0246     		mov	r2, r0
 807 001c 0023     		movs	r3, #0
 808 001e FFF7FEFF 		bl	CyDmaTdSetConfiguration
 809              	.LVL91:
 323:.\main.c      ****     CyDmaTdSetAddress(SHIFT2FILTER2_TD[0], LO16((uint32)ShiftBy2_2_OUTPUT_PTR), LO16((uint32)Filter
 810              		.loc 1 323 0
 811 0022 2046     		mov	r0, r4
 812 0024 46F62C01 		movw	r1, #26668
 813 0028 4CF2A472 		movw	r2, #51108
 814 002c FFF7FEFF 		bl	CyDmaTdSetAddress
 815              	.LVL92:
 324:.\main.c      ****     CyDmaChSetInitialTd(SHIFT2FILTER2_Chan, SHIFT2FILTER2_TD[0]);
 816              		.loc 1 324 0
 817 0030 2846     		mov	r0, r5
 818 0032 2146     		mov	r1, r4
 819 0034 FFF7FEFF 		bl	CyDmaChSetInitialTd
 820              	.LVL93:
 325:.\main.c      ****     CyDmaChEnable(SHIFT2FILTER2_Chan, 1);
 821              		.loc 1 325 0
 822 0038 2846     		mov	r0, r5
 823 003a 0121     		movs	r1, #1
 824 003c FFF7FEFF 		bl	CyDmaChEnable
 825              	.LVL94:
 826 0040 38BD     		pop	{r3, r4, r5, pc}
 827              		.cfi_endproc
 828              	.LFE78:
 829              		.size	DMA_SHIFT2FILTER2_config, .-DMA_SHIFT2FILTER2_config
 830 0042 00BF     		.section	.text.start_DMAs,"ax",%progbits
 831              		.align	2
 832              		.global	start_DMAs
 833              		.thumb
 834              		.thumb_func
 835              		.type	start_DMAs, %function
 836              	start_DMAs:
 837              	.LFB79:
 326:.\main.c      **** }
 327:.\main.c      **** 
 328:.\main.c      **** void start_DMAs()
 329:.\main.c      **** {
 838              		.loc 1 329 0
 839              		.cfi_startproc
 840              		@ args = 0, pretend = 0, frame = 0
 841              		@ frame_needed = 0, uses_anonymous_args = 0
ARM GAS  C:\Users\cruiser\AppData\Local\Temp\ccTybGgx.s 			page 22


 842 0000 08B5     		push	{r3, lr}
 843              		.cfi_def_cfa_offset 8
 844              		.cfi_offset 3, -8
 845              		.cfi_offset 14, -4
 330:.\main.c      **** //    DMA_SAR2FILTER1_config();
 331:.\main.c      **** //    DMA_SAR2FILTER2_config();
 332:.\main.c      ****     DMA_SAR2SHIFT1_config();
 846              		.loc 1 332 0
 847 0002 FFF7FEFF 		bl	DMA_SAR2SHIFT1_config
 848              	.LVL95:
 333:.\main.c      ****     DMA_SAR2SHIFT2_config();
 849              		.loc 1 333 0
 850 0006 FFF7FEFF 		bl	DMA_SAR2SHIFT2_config
 851              	.LVL96:
 334:.\main.c      ****     DMA_SHIFT2FILTER1_config();
 852              		.loc 1 334 0
 853 000a FFF7FEFF 		bl	DMA_SHIFT2FILTER1_config
 854              	.LVL97:
 335:.\main.c      ****     DMA_SHIFT2FILTER2_config();
 855              		.loc 1 335 0
 856 000e FFF7FEFF 		bl	DMA_SHIFT2FILTER2_config
 857              	.LVL98:
 336:.\main.c      ****     DMA_FILTER2RAM1_config();
 858              		.loc 1 336 0
 859 0012 FFF7FEFF 		bl	DMA_FILTER2RAM1_config
 860              	.LVL99:
 337:.\main.c      ****     DMA_FILTER2RAM2_config();
 861              		.loc 1 337 0
 862 0016 FFF7FEFF 		bl	DMA_FILTER2RAM2_config
 863              	.LVL100:
 338:.\main.c      **** 
 339:.\main.c      ****     DMA_SPI2RAM_config();
 864              		.loc 1 339 0
 865 001a FFF7FEFF 		bl	DMA_SPI2RAM_config
 866              	.LVL101:
 867 001e 08BD     		pop	{r3, pc}
 868              		.cfi_endproc
 869              	.LFE79:
 870              		.size	start_DMAs, .-start_DMAs
 871              		.section	.text.main,"ax",%progbits
 872              		.align	2
 873              		.global	main
 874              		.thumb
 875              		.thumb_func
 876              		.type	main, %function
 877              	main:
 878              	.LFB80:
 340:.\main.c      **** 
 341:.\main.c      **** }
 342:.\main.c      **** 
 343:.\main.c      **** int main()
 344:.\main.c      **** {
 879              		.loc 1 344 0
 880              		.cfi_startproc
 881              		@ Volatile: function does not return.
 882              		@ args = 0, pretend = 0, frame = 0
 883              		@ frame_needed = 0, uses_anonymous_args = 0
ARM GAS  C:\Users\cruiser\AppData\Local\Temp\ccTybGgx.s 			page 23


 884 0000 08B5     		push	{r3, lr}
 885              		.cfi_def_cfa_offset 8
 886              		.cfi_offset 3, -8
 887              		.cfi_offset 14, -4
 345:.\main.c      ****     
 346:.\main.c      ****     CyGlobalIntEnable; /* Enable global interrupts. */
 888              		.loc 1 346 0
 889              	@ 346 ".\main.c" 1
 890 0002 62B6     		CPSIE   i
 891              	@ 0 "" 2
 347:.\main.c      ****     start_resources();
 892              		.loc 1 347 0
 893              		.thumb
 894 0004 FFF7FEFF 		bl	start_resources
 895              	.LVL102:
 348:.\main.c      ****     start_DMAs();
 896              		.loc 1 348 0
 897 0008 FFF7FEFF 		bl	start_DMAs
 898              	.LVL103:
 349:.\main.c      ****     start_interrupts();
 899              		.loc 1 349 0
 900 000c FFF7FEFF 		bl	start_interrupts
 901              	.LVL104:
 902              	.L48:
 350:.\main.c      ****     
 351:.\main.c      ****     for(;;)
 352:.\main.c      ****     {
 353:.\main.c      **** //        i2cbuf[0] = filtermem1[0] >> 8;
 354:.\main.c      **** //        i2cbuf[1] = filtermem1[0];
 355:.\main.c      **** //        i2cbuf[2] = filtermem2[0] >> 8;
 356:.\main.c      **** //        i2cbuf[3] = filtermem2[0];
 357:.\main.c      **** 
 358:.\main.c      ****         //VDAC1_SetValue(SPIS_ReadRxData());
 359:.\main.c      ****         //VDAC4_SetValue(SPIS_ReadRxData());
 360:.\main.c      ****         //SPIS_ClearRxBuffer();
 361:.\main.c      ****         
 362:.\main.c      ****         CyDelay(1);
 903              		.loc 1 362 0 discriminator 1
 904 0010 0120     		movs	r0, #1
 905 0012 FFF7FEFF 		bl	CyDelay
 906              	.LVL105:
 363:.\main.c      ****     }
 907              		.loc 1 363 0 discriminator 1
 908 0016 FBE7     		b	.L48
 909              		.cfi_endproc
 910              	.LFE80:
 911              		.size	main, .-main
 912              		.comm	RAM2FILTER2_Chan,1,1
 913              		.comm	RAM2FILTER1_Chan,1,1
 914              		.comm	filtermem2,50,4
 915              		.comm	filtermem1,50,4
 916              		.global	sarmem2
 917              		.global	sarmem1
 918              		.global	spimem
 919              		.global	i2cbuf
 920              		.bss
 921              		.align	2
ARM GAS  C:\Users\cruiser\AppData\Local\Temp\ccTybGgx.s 			page 24


 922              		.set	.LANCHOR0,. + 0
 923              		.type	i2cbuf, %object
 924              		.size	i2cbuf, 4
 925              	i2cbuf:
 926 0000 00000000 		.space	4
 927              		.type	spimem, %object
 928              		.size	spimem, 4
 929              	spimem:
 930 0004 00000000 		.space	4
 931              		.type	sarmem2, %object
 932              		.size	sarmem2, 4
 933              	sarmem2:
 934 0008 00000000 		.space	4
 935              		.type	sarmem1, %object
 936              		.size	sarmem1, 4
 937              	sarmem1:
 938 000c 00000000 		.space	4
 939              		.text
 940              	.Letext0:
 941              		.file 2 "c:\\program files (x86)\\cypress\\psoc creator\\3.3\\psoc creator\\import\\gnu\\arm\\4.9.
 942              		.file 3 "c:\\program files (x86)\\cypress\\psoc creator\\3.3\\psoc creator\\import\\gnu\\arm\\4.9.
 943              		.file 4 "Generated_Source\\PSoC5/cytypes.h"
 944              		.file 5 "Generated_Source\\PSoC5/core_cm3.h"
 945              		.file 6 "Generated_Source\\PSoC5/VDAC1.h"
 946              		.file 7 "Generated_Source\\PSoC5/I2C.h"
 947              		.file 8 "Generated_Source\\PSoC5/PWM1.h"
 948              		.file 9 "Generated_Source\\PSoC5/PWM2.h"
 949              		.file 10 "Generated_Source\\PSoC5/VDAC2.h"
 950              		.file 11 "Generated_Source\\PSoC5/VDAC3.h"
 951              		.file 12 "Generated_Source\\PSoC5/VDAC4.h"
 952              		.file 13 "Generated_Source\\PSoC5/SAR1.h"
 953              		.file 14 "Generated_Source\\PSoC5/SAR2.h"
 954              		.file 15 "Generated_Source\\PSoC5/Filter.h"
 955              		.file 16 "Generated_Source\\PSoC5/SPIS.h"
 956              		.file 17 "Generated_Source\\PSoC5/isr_filter_ready1.h"
 957              		.file 18 "Generated_Source\\PSoC5/isr_filter_ready2.h"
 958              		.file 19 "Generated_Source\\PSoC5/isr_spi_rx.h"
 959              		.file 20 "Generated_Source\\PSoC5/SAR2FILTER1_dma.h"
 960              		.file 21 "Generated_Source\\PSoC5/CYDMAC.H"
 961              		.file 22 "Generated_Source\\PSoC5/SAR2FILTER2_dma.h"
 962              		.file 23 "Generated_Source\\PSoC5/FILTER2RAM1_dma.h"
 963              		.file 24 "Generated_Source\\PSoC5/FILTER2RAM2_dma.h"
 964              		.file 25 "Generated_Source\\PSoC5/SPI2RAM_dma.h"
 965              		.file 26 "Generated_Source\\PSoC5/SAR2SHIFT1_dma.h"
 966              		.file 27 "Generated_Source\\PSoC5/SAR2SHIFT2_dma.h"
 967              		.file 28 "Generated_Source\\PSoC5/SHIFT2FILTER1_dma.h"
 968              		.file 29 "Generated_Source\\PSoC5/SHIFT2FILTER2_dma.h"
 969              		.file 30 "Generated_Source\\PSoC5/CyLib.h"