ARM GAS  C:\Users\cruiser\AppData\Local\Temp\ccr3hQEq.s 			page 1


   1              		.syntax unified
   2              		.cpu cortex-m3
   3              		.fpu softvfp
   4              		.eabi_attribute 20, 1
   5              		.eabi_attribute 21, 1
   6              		.eabi_attribute 23, 3
   7              		.eabi_attribute 24, 1
   8              		.eabi_attribute 25, 1
   9              		.eabi_attribute 26, 1
  10              		.eabi_attribute 30, 1
  11              		.eabi_attribute 34, 1
  12              		.eabi_attribute 18, 4
  13              		.thumb
  14              		.file	"SAR1.c"
  15              		.text
  16              	.Ltext0:
  17              		.cfi_sections	.debug_frame
  18              		.section	.text.SAR1_CalcGain,"ax",%progbits
  19              		.align	2
  20              		.thumb
  21              		.thumb_func
  22              		.type	SAR1_CalcGain, %function
  23              	SAR1_CalcGain:
  24              	.LFB12:
  25              		.file 1 ".\\Generated_Source\\PSoC5\\SAR1.c"
   1:.\Generated_Source\PSoC5/SAR1.c **** /*******************************************************************************
   2:.\Generated_Source\PSoC5/SAR1.c **** * File Name: SAR1.c
   3:.\Generated_Source\PSoC5/SAR1.c **** * Version 3.0
   4:.\Generated_Source\PSoC5/SAR1.c **** *
   5:.\Generated_Source\PSoC5/SAR1.c **** * Description:
   6:.\Generated_Source\PSoC5/SAR1.c **** *  This file provides the source code to the API for the Successive
   7:.\Generated_Source\PSoC5/SAR1.c **** *  approximation ADC Component.
   8:.\Generated_Source\PSoC5/SAR1.c **** *
   9:.\Generated_Source\PSoC5/SAR1.c **** * Note:
  10:.\Generated_Source\PSoC5/SAR1.c **** *
  11:.\Generated_Source\PSoC5/SAR1.c **** ********************************************************************************
  12:.\Generated_Source\PSoC5/SAR1.c **** * Copyright 2008-2015, Cypress Semiconductor Corporation.  All rights reserved.
  13:.\Generated_Source\PSoC5/SAR1.c **** * You may use this file only in accordance with the license, terms, conditions,
  14:.\Generated_Source\PSoC5/SAR1.c **** * disclaimers, and limitations in the end user license agreement accompanying
  15:.\Generated_Source\PSoC5/SAR1.c **** * the software package with which this file was provided.
  16:.\Generated_Source\PSoC5/SAR1.c **** *******************************************************************************/
  17:.\Generated_Source\PSoC5/SAR1.c **** 
  18:.\Generated_Source\PSoC5/SAR1.c **** #include "CyLib.h"
  19:.\Generated_Source\PSoC5/SAR1.c **** #include "SAR1.h"
  20:.\Generated_Source\PSoC5/SAR1.c **** 
  21:.\Generated_Source\PSoC5/SAR1.c **** #if(SAR1_DEFAULT_INTERNAL_CLK)
  22:.\Generated_Source\PSoC5/SAR1.c ****     #include "SAR1_theACLK.h"
  23:.\Generated_Source\PSoC5/SAR1.c **** #endif /* End SAR1_DEFAULT_INTERNAL_CLK */
  24:.\Generated_Source\PSoC5/SAR1.c **** 
  25:.\Generated_Source\PSoC5/SAR1.c **** 
  26:.\Generated_Source\PSoC5/SAR1.c **** /***************************************
  27:.\Generated_Source\PSoC5/SAR1.c **** * Forward function references
  28:.\Generated_Source\PSoC5/SAR1.c **** ***************************************/
  29:.\Generated_Source\PSoC5/SAR1.c **** static void SAR1_CalcGain(uint8 resolution);
  30:.\Generated_Source\PSoC5/SAR1.c **** 
  31:.\Generated_Source\PSoC5/SAR1.c **** 
  32:.\Generated_Source\PSoC5/SAR1.c **** /***************************************
ARM GAS  C:\Users\cruiser\AppData\Local\Temp\ccr3hQEq.s 			page 2


  33:.\Generated_Source\PSoC5/SAR1.c **** * Global data allocation
  34:.\Generated_Source\PSoC5/SAR1.c **** ***************************************/
  35:.\Generated_Source\PSoC5/SAR1.c **** uint8 SAR1_initVar = 0u;
  36:.\Generated_Source\PSoC5/SAR1.c **** volatile int16 SAR1_offset;
  37:.\Generated_Source\PSoC5/SAR1.c **** volatile int16 SAR1_countsPerVolt;     /* Obsolete Gain compensation */
  38:.\Generated_Source\PSoC5/SAR1.c **** volatile int32 SAR1_countsPer10Volt;   /* Gain compensation */
  39:.\Generated_Source\PSoC5/SAR1.c **** volatile int16 SAR1_shift;
  40:.\Generated_Source\PSoC5/SAR1.c **** 
  41:.\Generated_Source\PSoC5/SAR1.c **** 
  42:.\Generated_Source\PSoC5/SAR1.c **** /*******************************************************************************
  43:.\Generated_Source\PSoC5/SAR1.c **** * Function Name: SAR1_Start
  44:.\Generated_Source\PSoC5/SAR1.c **** ********************************************************************************
  45:.\Generated_Source\PSoC5/SAR1.c **** *
  46:.\Generated_Source\PSoC5/SAR1.c **** * Summary:
  47:.\Generated_Source\PSoC5/SAR1.c **** *  This is the preferred method to begin component operation.
  48:.\Generated_Source\PSoC5/SAR1.c **** *  SAR1_Start() sets the initVar variable, calls the
  49:.\Generated_Source\PSoC5/SAR1.c **** *  SAR1_Init() function, and then calls the
  50:.\Generated_Source\PSoC5/SAR1.c **** *  SAR1_Enable() function.
  51:.\Generated_Source\PSoC5/SAR1.c **** *
  52:.\Generated_Source\PSoC5/SAR1.c **** * Parameters:
  53:.\Generated_Source\PSoC5/SAR1.c **** *  None.
  54:.\Generated_Source\PSoC5/SAR1.c **** *
  55:.\Generated_Source\PSoC5/SAR1.c **** * Return:
  56:.\Generated_Source\PSoC5/SAR1.c **** *  None.
  57:.\Generated_Source\PSoC5/SAR1.c **** *
  58:.\Generated_Source\PSoC5/SAR1.c **** * Global variables:
  59:.\Generated_Source\PSoC5/SAR1.c **** *  The SAR1_initVar variable is used to indicate when/if initial
  60:.\Generated_Source\PSoC5/SAR1.c **** *  configuration of this component has happened. The variable is initialized to
  61:.\Generated_Source\PSoC5/SAR1.c **** *  zero and set to 1 the first time ADC_Start() is called. This allows for
  62:.\Generated_Source\PSoC5/SAR1.c **** *  component Re-Start without re-initialization in all subsequent calls to the
  63:.\Generated_Source\PSoC5/SAR1.c **** *  SAR1_Start() routine.
  64:.\Generated_Source\PSoC5/SAR1.c **** *  If re-initialization of the component is required the variable should be set
  65:.\Generated_Source\PSoC5/SAR1.c **** *  to zero before call of SAR1_Start() routine, or the user may call
  66:.\Generated_Source\PSoC5/SAR1.c **** *  SAR1_Init() and SAR1_Enable() as done in the
  67:.\Generated_Source\PSoC5/SAR1.c **** *  SAR1_Start() routine.
  68:.\Generated_Source\PSoC5/SAR1.c **** *
  69:.\Generated_Source\PSoC5/SAR1.c **** * Side Effect:
  70:.\Generated_Source\PSoC5/SAR1.c **** *  If the initVar variable is already set, this function only calls the
  71:.\Generated_Source\PSoC5/SAR1.c **** *  SAR1_Enable() function.
  72:.\Generated_Source\PSoC5/SAR1.c **** *
  73:.\Generated_Source\PSoC5/SAR1.c **** *******************************************************************************/
  74:.\Generated_Source\PSoC5/SAR1.c **** void SAR1_Start(void)
  75:.\Generated_Source\PSoC5/SAR1.c **** {
  76:.\Generated_Source\PSoC5/SAR1.c **** 
  77:.\Generated_Source\PSoC5/SAR1.c ****     /* If not Initialized then initialize all required hardware and software */
  78:.\Generated_Source\PSoC5/SAR1.c ****     if(SAR1_initVar == 0u)
  79:.\Generated_Source\PSoC5/SAR1.c ****     {
  80:.\Generated_Source\PSoC5/SAR1.c ****         SAR1_Init();
  81:.\Generated_Source\PSoC5/SAR1.c ****         SAR1_initVar = 1u;
  82:.\Generated_Source\PSoC5/SAR1.c ****     }
  83:.\Generated_Source\PSoC5/SAR1.c ****     SAR1_Enable();
  84:.\Generated_Source\PSoC5/SAR1.c **** }
  85:.\Generated_Source\PSoC5/SAR1.c **** 
  86:.\Generated_Source\PSoC5/SAR1.c **** 
  87:.\Generated_Source\PSoC5/SAR1.c **** /*******************************************************************************
  88:.\Generated_Source\PSoC5/SAR1.c **** * Function Name: SAR1_Init
  89:.\Generated_Source\PSoC5/SAR1.c **** ********************************************************************************
ARM GAS  C:\Users\cruiser\AppData\Local\Temp\ccr3hQEq.s 			page 3


  90:.\Generated_Source\PSoC5/SAR1.c **** *
  91:.\Generated_Source\PSoC5/SAR1.c **** * Summary:
  92:.\Generated_Source\PSoC5/SAR1.c **** *  Initialize component's parameters to the parameters set by user in the
  93:.\Generated_Source\PSoC5/SAR1.c **** *  customizer of the component placed onto schematic. Usually called in
  94:.\Generated_Source\PSoC5/SAR1.c **** *  SAR1_Start().
  95:.\Generated_Source\PSoC5/SAR1.c **** *
  96:.\Generated_Source\PSoC5/SAR1.c **** * Parameters:
  97:.\Generated_Source\PSoC5/SAR1.c **** *  None.
  98:.\Generated_Source\PSoC5/SAR1.c **** *
  99:.\Generated_Source\PSoC5/SAR1.c **** * Return:
 100:.\Generated_Source\PSoC5/SAR1.c **** *  None.
 101:.\Generated_Source\PSoC5/SAR1.c **** *
 102:.\Generated_Source\PSoC5/SAR1.c **** * Global variables:
 103:.\Generated_Source\PSoC5/SAR1.c **** *  The SAR1_offset variable is initialized to 0.
 104:.\Generated_Source\PSoC5/SAR1.c **** *
 105:.\Generated_Source\PSoC5/SAR1.c **** *******************************************************************************/
 106:.\Generated_Source\PSoC5/SAR1.c **** void SAR1_Init(void)
 107:.\Generated_Source\PSoC5/SAR1.c **** {
 108:.\Generated_Source\PSoC5/SAR1.c **** 
 109:.\Generated_Source\PSoC5/SAR1.c ****     /* This is only valid if there is an internal clock */
 110:.\Generated_Source\PSoC5/SAR1.c ****     #if(SAR1_DEFAULT_INTERNAL_CLK)
 111:.\Generated_Source\PSoC5/SAR1.c ****         SAR1_theACLK_SetMode(CYCLK_DUTY);
 112:.\Generated_Source\PSoC5/SAR1.c ****     #endif /* End SAR1_DEFAULT_INTERNAL_CLK */
 113:.\Generated_Source\PSoC5/SAR1.c **** 
 114:.\Generated_Source\PSoC5/SAR1.c ****     #if(SAR1_IRQ_REMOVE == 0u)
 115:.\Generated_Source\PSoC5/SAR1.c ****         /* Start and set interrupt vector */
 116:.\Generated_Source\PSoC5/SAR1.c ****         CyIntSetPriority(SAR1_INTC_NUMBER, SAR1_INTC_PRIOR_NUMBER);
 117:.\Generated_Source\PSoC5/SAR1.c ****         (void)CyIntSetVector(SAR1_INTC_NUMBER, &SAR1_ISR);
 118:.\Generated_Source\PSoC5/SAR1.c ****     #endif   /* End SAR1_IRQ_REMOVE */
 119:.\Generated_Source\PSoC5/SAR1.c **** 
 120:.\Generated_Source\PSoC5/SAR1.c ****     /* Enable IRQ mode*/
 121:.\Generated_Source\PSoC5/SAR1.c ****     SAR1_SAR_CSR1_REG |= SAR1_SAR_IRQ_MASK_EN | SAR1_SAR_IRQ_MODE_EDGE;
 122:.\Generated_Source\PSoC5/SAR1.c **** 
 123:.\Generated_Source\PSoC5/SAR1.c ****     /*Set SAR ADC resolution ADC */
 124:.\Generated_Source\PSoC5/SAR1.c ****     SAR1_SetResolution(SAR1_DEFAULT_RESOLUTION);
 125:.\Generated_Source\PSoC5/SAR1.c ****     SAR1_offset = 0;
 126:.\Generated_Source\PSoC5/SAR1.c **** }
 127:.\Generated_Source\PSoC5/SAR1.c **** 
 128:.\Generated_Source\PSoC5/SAR1.c **** 
 129:.\Generated_Source\PSoC5/SAR1.c **** /*******************************************************************************
 130:.\Generated_Source\PSoC5/SAR1.c **** * Function Name: SAR1_Enable
 131:.\Generated_Source\PSoC5/SAR1.c **** ********************************************************************************
 132:.\Generated_Source\PSoC5/SAR1.c **** *
 133:.\Generated_Source\PSoC5/SAR1.c **** * Summary:
 134:.\Generated_Source\PSoC5/SAR1.c **** *  Enables the reference, clock and power for SAR ADC.
 135:.\Generated_Source\PSoC5/SAR1.c **** *
 136:.\Generated_Source\PSoC5/SAR1.c **** * Parameters:
 137:.\Generated_Source\PSoC5/SAR1.c **** *  None.
 138:.\Generated_Source\PSoC5/SAR1.c **** *
 139:.\Generated_Source\PSoC5/SAR1.c **** * Return:
 140:.\Generated_Source\PSoC5/SAR1.c **** *  None.
 141:.\Generated_Source\PSoC5/SAR1.c **** *
 142:.\Generated_Source\PSoC5/SAR1.c **** *******************************************************************************/
 143:.\Generated_Source\PSoC5/SAR1.c **** void SAR1_Enable(void)
 144:.\Generated_Source\PSoC5/SAR1.c **** {
 145:.\Generated_Source\PSoC5/SAR1.c ****     uint8 tmpReg;
 146:.\Generated_Source\PSoC5/SAR1.c ****     uint8 enableInterrupts;
ARM GAS  C:\Users\cruiser\AppData\Local\Temp\ccr3hQEq.s 			page 4


 147:.\Generated_Source\PSoC5/SAR1.c ****     enableInterrupts = CyEnterCriticalSection();
 148:.\Generated_Source\PSoC5/SAR1.c **** 
 149:.\Generated_Source\PSoC5/SAR1.c ****     /* Enable the SAR ADC block in Active Power Mode */
 150:.\Generated_Source\PSoC5/SAR1.c ****     SAR1_PWRMGR_SAR_REG |= SAR1_ACT_PWR_SAR_EN;
 151:.\Generated_Source\PSoC5/SAR1.c **** 
 152:.\Generated_Source\PSoC5/SAR1.c ****      /* Enable the SAR ADC in Standby Power Mode*/
 153:.\Generated_Source\PSoC5/SAR1.c ****     SAR1_STBY_PWRMGR_SAR_REG |= SAR1_STBY_PWR_SAR_EN;
 154:.\Generated_Source\PSoC5/SAR1.c **** 
 155:.\Generated_Source\PSoC5/SAR1.c ****     /* This is only valid if there is an internal clock */
 156:.\Generated_Source\PSoC5/SAR1.c ****     #if(SAR1_DEFAULT_INTERNAL_CLK)
 157:.\Generated_Source\PSoC5/SAR1.c ****         SAR1_PWRMGR_CLK_REG |= SAR1_ACT_PWR_CLK_EN;
 158:.\Generated_Source\PSoC5/SAR1.c ****         SAR1_STBY_PWRMGR_CLK_REG |= SAR1_STBY_PWR_CLK_EN;
 159:.\Generated_Source\PSoC5/SAR1.c ****     #endif /* End SAR1_DEFAULT_INTERNAL_CLK */
 160:.\Generated_Source\PSoC5/SAR1.c **** 
 161:.\Generated_Source\PSoC5/SAR1.c ****     /* Enable VCM buffer and Enable Int Ref Amp */
 162:.\Generated_Source\PSoC5/SAR1.c ****     tmpReg = SAR1_SAR_CSR3_REG;
 163:.\Generated_Source\PSoC5/SAR1.c ****     tmpReg |= SAR1_SAR_EN_BUF_VCM_EN;
 164:.\Generated_Source\PSoC5/SAR1.c ****     /* PD_BUF_VREF is OFF in External reference or Vdda reference mode */
 165:.\Generated_Source\PSoC5/SAR1.c ****     #if((SAR1_DEFAULT_REFERENCE == SAR1__EXT_REF) || \
 166:.\Generated_Source\PSoC5/SAR1.c ****         (SAR1_DEFAULT_RANGE == SAR1__VNEG_VDDA_DIFF))
 167:.\Generated_Source\PSoC5/SAR1.c ****         tmpReg &= (uint8)~SAR1_SAR_EN_BUF_VREF_EN;
 168:.\Generated_Source\PSoC5/SAR1.c ****     #else /* In INTREF or INTREF Bypassed this buffer is ON */
 169:.\Generated_Source\PSoC5/SAR1.c ****         tmpReg |= SAR1_SAR_EN_BUF_VREF_EN;
 170:.\Generated_Source\PSoC5/SAR1.c ****     #endif /* SAR1_DEFAULT_REFERENCE == SAR1__EXT_REF */
 171:.\Generated_Source\PSoC5/SAR1.c ****     SAR1_SAR_CSR3_REG = tmpReg;
 172:.\Generated_Source\PSoC5/SAR1.c **** 
 173:.\Generated_Source\PSoC5/SAR1.c ****     /* Set reference for ADC */
 174:.\Generated_Source\PSoC5/SAR1.c ****     #if(SAR1_DEFAULT_RANGE == SAR1__VNEG_VDDA_DIFF)
 175:.\Generated_Source\PSoC5/SAR1.c ****         #if(SAR1_DEFAULT_REFERENCE == SAR1__EXT_REF)
 176:.\Generated_Source\PSoC5/SAR1.c ****             SAR1_SAR_CSR6_REG = SAR1_INT_BYPASS_EXT_VREF; /* S2 */
 177:.\Generated_Source\PSoC5/SAR1.c ****         #else /* Internal Vdda reference or obsolete bypass mode */
 178:.\Generated_Source\PSoC5/SAR1.c ****             SAR1_SAR_CSR6_REG = SAR1_VDDA_VREF;           /* S7 */
 179:.\Generated_Source\PSoC5/SAR1.c ****         #endif /* SAR1_DEFAULT_REFERENCE == SAR1__EXT_REF */
 180:.\Generated_Source\PSoC5/SAR1.c ****     #else  /* Reference goes through internal buffer */
 181:.\Generated_Source\PSoC5/SAR1.c ****         #if(SAR1_DEFAULT_REFERENCE == SAR1__INT_REF_NOT_BYPASSED)
 182:.\Generated_Source\PSoC5/SAR1.c ****             SAR1_SAR_CSR6_REG = SAR1_INT_VREF;            /* S3 + S4 */
 183:.\Generated_Source\PSoC5/SAR1.c ****         #else /* INTREF Bypassed of External */
 184:.\Generated_Source\PSoC5/SAR1.c ****             SAR1_SAR_CSR6_REG = SAR1_INT_BYPASS_EXT_VREF; /* S2 */
 185:.\Generated_Source\PSoC5/SAR1.c ****         #endif /* SAR1_DEFAULT_REFERENCE == SAR1__INT_REF_NOT_BYPASSED */
 186:.\Generated_Source\PSoC5/SAR1.c ****     #endif /* VNEG_VDDA_DIFF */
 187:.\Generated_Source\PSoC5/SAR1.c **** 
 188:.\Generated_Source\PSoC5/SAR1.c ****     /* Low non-overlap delay for sampling clock signals (for 1MSPS) */
 189:.\Generated_Source\PSoC5/SAR1.c ****     #if(SAR1_HIGH_POWER_PULSE == 0u) /* MinPulseWidth <= 50 ns */
 190:.\Generated_Source\PSoC5/SAR1.c ****         SAR1_SAR_CSR5_REG &= (uint8)~SAR1_SAR_DLY_INC;
 191:.\Generated_Source\PSoC5/SAR1.c ****     #else /* Set High non-overlap delay for sampling clock signals (for <500KSPS)*/
 192:.\Generated_Source\PSoC5/SAR1.c ****         SAR1_SAR_CSR5_REG |= SAR1_SAR_DLY_INC;
 193:.\Generated_Source\PSoC5/SAR1.c ****     #endif /* SAR1_HIGH_POWER_PULSE == 0u */
 194:.\Generated_Source\PSoC5/SAR1.c **** 
 195:.\Generated_Source\PSoC5/SAR1.c ****     /* Increase comparator latch enable delay by 20%, 
 196:.\Generated_Source\PSoC5/SAR1.c ****     *  Increase comparator bias current by 30% without impacting delaysDelay 
 197:.\Generated_Source\PSoC5/SAR1.c ****     *  Default for 1MSPS) 
 198:.\Generated_Source\PSoC5/SAR1.c ****     */
 199:.\Generated_Source\PSoC5/SAR1.c ****     #if(SAR1_HIGH_POWER_PULSE == 0u)    /* MinPulseWidth <= 50 ns */
 200:.\Generated_Source\PSoC5/SAR1.c ****         SAR1_SAR_CSR5_REG |= SAR1_SAR_SEL_CSEL_DFT_CHAR;
 201:.\Generated_Source\PSoC5/SAR1.c ****     #else /* for <500ksps */
 202:.\Generated_Source\PSoC5/SAR1.c ****         SAR1_SAR_CSR5_REG &= (uint8)~SAR1_SAR_SEL_CSEL_DFT_CHAR;
 203:.\Generated_Source\PSoC5/SAR1.c ****     #endif /* SAR1_HIGH_POWER_PULSE == 0u */
ARM GAS  C:\Users\cruiser\AppData\Local\Temp\ccr3hQEq.s 			page 5


 204:.\Generated_Source\PSoC5/SAR1.c **** 
 205:.\Generated_Source\PSoC5/SAR1.c ****     /* Set default power and other configurations for control register 0 in multiple lines */
 206:.\Generated_Source\PSoC5/SAR1.c ****     SAR1_SAR_CSR0_REG = (uint8)((uint8)SAR1_DEFAULT_POWER << SAR1_SAR_POWER_SHIFT)
 207:.\Generated_Source\PSoC5/SAR1.c ****     /* SAR_HIZ_CLEAR:   Should not be used for LP */
 208:.\Generated_Source\PSoC5/SAR1.c ****     #if ((CY_PSOC5LP) || (SAR1_DEFAULT_REFERENCE != SAR1__EXT_REF))
 209:.\Generated_Source\PSoC5/SAR1.c ****         | SAR1_SAR_HIZ_CLEAR
 210:.\Generated_Source\PSoC5/SAR1.c ****     #endif /* SAR_HIZ_CLEAR */
 211:.\Generated_Source\PSoC5/SAR1.c ****     /*Set Convertion mode */
 212:.\Generated_Source\PSoC5/SAR1.c ****     #if(SAR1_DEFAULT_CONV_MODE != SAR1__FREE_RUNNING)      /* If triggered mode */
 213:.\Generated_Source\PSoC5/SAR1.c ****         | SAR1_SAR_MX_SOF_UDB           /* source: UDB */
 214:.\Generated_Source\PSoC5/SAR1.c ****         | SAR1_SAR_SOF_MODE_EDGE        /* Set edge-sensitive sof source */
 215:.\Generated_Source\PSoC5/SAR1.c ****     #endif /* SAR1_DEFAULT_CONV_MODE */
 216:.\Generated_Source\PSoC5/SAR1.c ****     ; /* end of multiple line initialization */
 217:.\Generated_Source\PSoC5/SAR1.c **** 
 218:.\Generated_Source\PSoC5/SAR1.c ****     SAR1_SAR_TR0_REG = SAR1_SAR_CAP_TRIM_2;
 219:.\Generated_Source\PSoC5/SAR1.c **** 
 220:.\Generated_Source\PSoC5/SAR1.c ****     /* Enable clock for SAR ADC*/
 221:.\Generated_Source\PSoC5/SAR1.c ****     SAR1_SAR_CLK_REG |= SAR1_SAR_MX_CLK_EN;
 222:.\Generated_Source\PSoC5/SAR1.c **** 
 223:.\Generated_Source\PSoC5/SAR1.c ****     CyDelayUs(10u); /* The block is ready to use 10 us after the enable signal is set high. */
 224:.\Generated_Source\PSoC5/SAR1.c **** 
 225:.\Generated_Source\PSoC5/SAR1.c ****     #if(SAR1_IRQ_REMOVE == 0u)
 226:.\Generated_Source\PSoC5/SAR1.c ****         /* Clear a pending interrupt */
 227:.\Generated_Source\PSoC5/SAR1.c ****         CyIntClearPending(SAR1_INTC_NUMBER);
 228:.\Generated_Source\PSoC5/SAR1.c ****     #endif   /* End SAR1_IRQ_REMOVE */
 229:.\Generated_Source\PSoC5/SAR1.c **** 
 230:.\Generated_Source\PSoC5/SAR1.c ****     CyExitCriticalSection(enableInterrupts);
 231:.\Generated_Source\PSoC5/SAR1.c **** }
 232:.\Generated_Source\PSoC5/SAR1.c **** 
 233:.\Generated_Source\PSoC5/SAR1.c **** 
 234:.\Generated_Source\PSoC5/SAR1.c **** /*******************************************************************************
 235:.\Generated_Source\PSoC5/SAR1.c **** * Function Name: SAR1_Stop
 236:.\Generated_Source\PSoC5/SAR1.c **** ********************************************************************************
 237:.\Generated_Source\PSoC5/SAR1.c **** *
 238:.\Generated_Source\PSoC5/SAR1.c **** * Summary:
 239:.\Generated_Source\PSoC5/SAR1.c **** *  Stops ADC conversions and puts the ADC into its lowest power mode.
 240:.\Generated_Source\PSoC5/SAR1.c **** *
 241:.\Generated_Source\PSoC5/SAR1.c **** * Parameters:
 242:.\Generated_Source\PSoC5/SAR1.c **** *  None.
 243:.\Generated_Source\PSoC5/SAR1.c **** *
 244:.\Generated_Source\PSoC5/SAR1.c **** * Return:
 245:.\Generated_Source\PSoC5/SAR1.c **** *  None.
 246:.\Generated_Source\PSoC5/SAR1.c **** *
 247:.\Generated_Source\PSoC5/SAR1.c **** *******************************************************************************/
 248:.\Generated_Source\PSoC5/SAR1.c **** void SAR1_Stop(void)
 249:.\Generated_Source\PSoC5/SAR1.c **** {
 250:.\Generated_Source\PSoC5/SAR1.c ****     uint8 enableInterrupts;
 251:.\Generated_Source\PSoC5/SAR1.c ****     enableInterrupts = CyEnterCriticalSection();
 252:.\Generated_Source\PSoC5/SAR1.c **** 
 253:.\Generated_Source\PSoC5/SAR1.c ****     /* Stop all conversions */
 254:.\Generated_Source\PSoC5/SAR1.c ****     SAR1_SAR_CSR0_REG &= (uint8)~SAR1_SAR_SOF_START_CONV;
 255:.\Generated_Source\PSoC5/SAR1.c ****     /* Disable the SAR ADC block in Active Power Mode */
 256:.\Generated_Source\PSoC5/SAR1.c ****     SAR1_PWRMGR_SAR_REG &= (uint8)~SAR1_ACT_PWR_SAR_EN;
 257:.\Generated_Source\PSoC5/SAR1.c ****     /* Disable the SAR ADC in Standby Power Mode */
 258:.\Generated_Source\PSoC5/SAR1.c ****     SAR1_STBY_PWRMGR_SAR_REG &= (uint8)~SAR1_STBY_PWR_SAR_EN;
 259:.\Generated_Source\PSoC5/SAR1.c **** 
 260:.\Generated_Source\PSoC5/SAR1.c ****     /* This is only valid if there is an internal clock */
ARM GAS  C:\Users\cruiser\AppData\Local\Temp\ccr3hQEq.s 			page 6


 261:.\Generated_Source\PSoC5/SAR1.c ****     #if(SAR1_DEFAULT_INTERNAL_CLK)
 262:.\Generated_Source\PSoC5/SAR1.c ****         SAR1_PWRMGR_CLK_REG &= (uint8)~SAR1_ACT_PWR_CLK_EN;
 263:.\Generated_Source\PSoC5/SAR1.c ****         SAR1_STBY_PWRMGR_CLK_REG &= (uint8)~SAR1_STBY_PWR_CLK_EN;
 264:.\Generated_Source\PSoC5/SAR1.c ****     #endif /* End SAR1_DEFAULT_INTERNAL_CLK */
 265:.\Generated_Source\PSoC5/SAR1.c **** 
 266:.\Generated_Source\PSoC5/SAR1.c ****     CyExitCriticalSection(enableInterrupts);
 267:.\Generated_Source\PSoC5/SAR1.c **** 
 268:.\Generated_Source\PSoC5/SAR1.c **** }
 269:.\Generated_Source\PSoC5/SAR1.c **** 
 270:.\Generated_Source\PSoC5/SAR1.c **** 
 271:.\Generated_Source\PSoC5/SAR1.c **** /*******************************************************************************
 272:.\Generated_Source\PSoC5/SAR1.c **** * Function Name: SAR1_SetPower
 273:.\Generated_Source\PSoC5/SAR1.c **** ********************************************************************************
 274:.\Generated_Source\PSoC5/SAR1.c **** *
 275:.\Generated_Source\PSoC5/SAR1.c **** * Summary:
 276:.\Generated_Source\PSoC5/SAR1.c **** *  Sets the operational power of the ADC. You should use the higher power
 277:.\Generated_Source\PSoC5/SAR1.c **** *  settings with faster clock speeds.
 278:.\Generated_Source\PSoC5/SAR1.c **** *
 279:.\Generated_Source\PSoC5/SAR1.c **** * Parameters:
 280:.\Generated_Source\PSoC5/SAR1.c **** *  power:  Power setting for ADC
 281:.\Generated_Source\PSoC5/SAR1.c **** *  0 ->    Normal
 282:.\Generated_Source\PSoC5/SAR1.c **** *  1 ->    Medium power
 283:.\Generated_Source\PSoC5/SAR1.c **** *  2 ->    1.25 power
 284:.\Generated_Source\PSoC5/SAR1.c **** *  3 ->    Minimum power.
 285:.\Generated_Source\PSoC5/SAR1.c **** *
 286:.\Generated_Source\PSoC5/SAR1.c **** * Return:
 287:.\Generated_Source\PSoC5/SAR1.c **** *  None.
 288:.\Generated_Source\PSoC5/SAR1.c **** *
 289:.\Generated_Source\PSoC5/SAR1.c **** *******************************************************************************/
 290:.\Generated_Source\PSoC5/SAR1.c **** void SAR1_SetPower(uint8 power)
 291:.\Generated_Source\PSoC5/SAR1.c **** {
 292:.\Generated_Source\PSoC5/SAR1.c ****     uint8 tmpReg;
 293:.\Generated_Source\PSoC5/SAR1.c **** 
 294:.\Generated_Source\PSoC5/SAR1.c ****     /* mask off invalid power settings */
 295:.\Generated_Source\PSoC5/SAR1.c ****     power &= SAR1_SAR_API_POWER_MASK;
 296:.\Generated_Source\PSoC5/SAR1.c **** 
 297:.\Generated_Source\PSoC5/SAR1.c ****     /* Set Power parameter  */
 298:.\Generated_Source\PSoC5/SAR1.c ****     tmpReg = SAR1_SAR_CSR0_REG & (uint8)~SAR1_SAR_POWER_MASK;
 299:.\Generated_Source\PSoC5/SAR1.c ****     tmpReg |= (uint8)(power << SAR1_SAR_POWER_SHIFT);
 300:.\Generated_Source\PSoC5/SAR1.c ****     SAR1_SAR_CSR0_REG = tmpReg;
 301:.\Generated_Source\PSoC5/SAR1.c **** }
 302:.\Generated_Source\PSoC5/SAR1.c **** 
 303:.\Generated_Source\PSoC5/SAR1.c **** 
 304:.\Generated_Source\PSoC5/SAR1.c **** /*******************************************************************************
 305:.\Generated_Source\PSoC5/SAR1.c **** * Function Name: SAR1_SetResolution
 306:.\Generated_Source\PSoC5/SAR1.c **** ********************************************************************************
 307:.\Generated_Source\PSoC5/SAR1.c **** *
 308:.\Generated_Source\PSoC5/SAR1.c **** * Summary:
 309:.\Generated_Source\PSoC5/SAR1.c **** *  Sets the Relution of the SAR.
 310:.\Generated_Source\PSoC5/SAR1.c **** *
 311:.\Generated_Source\PSoC5/SAR1.c **** * Parameters:
 312:.\Generated_Source\PSoC5/SAR1.c **** *  resolution:
 313:.\Generated_Source\PSoC5/SAR1.c **** *  12 ->    RES12
 314:.\Generated_Source\PSoC5/SAR1.c **** *  10 ->    RES10
 315:.\Generated_Source\PSoC5/SAR1.c **** *  8  ->    RES8
 316:.\Generated_Source\PSoC5/SAR1.c **** *
 317:.\Generated_Source\PSoC5/SAR1.c **** * Return:
ARM GAS  C:\Users\cruiser\AppData\Local\Temp\ccr3hQEq.s 			page 7


 318:.\Generated_Source\PSoC5/SAR1.c **** *  None.
 319:.\Generated_Source\PSoC5/SAR1.c **** *
 320:.\Generated_Source\PSoC5/SAR1.c **** * Side Effects:
 321:.\Generated_Source\PSoC5/SAR1.c **** *  The ADC resolution cannot be changed during a conversion cycle. The
 322:.\Generated_Source\PSoC5/SAR1.c **** *  recommended best practice is to stop conversions with
 323:.\Generated_Source\PSoC5/SAR1.c **** *  ADC_StopConvert(), change the resolution, then restart the
 324:.\Generated_Source\PSoC5/SAR1.c **** *  conversions with ADC_StartConvert().
 325:.\Generated_Source\PSoC5/SAR1.c **** *  If you decide not to stop conversions before calling this API, you
 326:.\Generated_Source\PSoC5/SAR1.c **** *  should use ADC_IsEndConversion() to wait until conversion is complete
 327:.\Generated_Source\PSoC5/SAR1.c **** *  before changing the resolution.
 328:.\Generated_Source\PSoC5/SAR1.c **** *  If you call ADC_SetResolution() during a conversion, the resolution will
 329:.\Generated_Source\PSoC5/SAR1.c **** *  not be changed until the current conversion is complete. Data will not be
 330:.\Generated_Source\PSoC5/SAR1.c **** *  available in the new resolution for another 6 + "New Resolution(in bits)"
 331:.\Generated_Source\PSoC5/SAR1.c **** *  clock cycles.
 332:.\Generated_Source\PSoC5/SAR1.c **** *  You may need add a delay of this number of clock cycles after
 333:.\Generated_Source\PSoC5/SAR1.c **** *  ADC_SetResolution() is called before data is valid again.
 334:.\Generated_Source\PSoC5/SAR1.c **** *  Affects ADC_CountsTo_Volts(), ADC_CountsTo_mVolts(), and
 335:.\Generated_Source\PSoC5/SAR1.c **** *  ADC_CountsTo_uVolts() by calculating the correct conversion between ADC
 336:.\Generated_Source\PSoC5/SAR1.c **** *  counts and the applied input voltage. Calculation depends on resolution,
 337:.\Generated_Source\PSoC5/SAR1.c **** *  input range, and voltage reference.
 338:.\Generated_Source\PSoC5/SAR1.c **** *
 339:.\Generated_Source\PSoC5/SAR1.c **** *******************************************************************************/
 340:.\Generated_Source\PSoC5/SAR1.c **** void SAR1_SetResolution(uint8 resolution)
 341:.\Generated_Source\PSoC5/SAR1.c **** {
 342:.\Generated_Source\PSoC5/SAR1.c ****     uint8 tmpReg;
 343:.\Generated_Source\PSoC5/SAR1.c **** 
 344:.\Generated_Source\PSoC5/SAR1.c ****     /* Set SAR ADC resolution and sample width: 18 conversion cycles at 12bits + 1 gap */
 345:.\Generated_Source\PSoC5/SAR1.c ****     switch (resolution)
 346:.\Generated_Source\PSoC5/SAR1.c ****     {
 347:.\Generated_Source\PSoC5/SAR1.c ****         case (uint8)SAR1__BITS_12:
 348:.\Generated_Source\PSoC5/SAR1.c ****             tmpReg = SAR1_SAR_RESOLUTION_12BIT | SAR1_SAR_SAMPLE_WIDTH;
 349:.\Generated_Source\PSoC5/SAR1.c ****             break;
 350:.\Generated_Source\PSoC5/SAR1.c ****         case (uint8)SAR1__BITS_10:
 351:.\Generated_Source\PSoC5/SAR1.c ****             tmpReg = SAR1_SAR_RESOLUTION_10BIT | SAR1_SAR_SAMPLE_WIDTH;
 352:.\Generated_Source\PSoC5/SAR1.c ****             break;
 353:.\Generated_Source\PSoC5/SAR1.c ****         case (uint8)SAR1__BITS_8:
 354:.\Generated_Source\PSoC5/SAR1.c ****             tmpReg = SAR1_SAR_RESOLUTION_8BIT | SAR1_SAR_SAMPLE_WIDTH;
 355:.\Generated_Source\PSoC5/SAR1.c ****             break;
 356:.\Generated_Source\PSoC5/SAR1.c ****         default:
 357:.\Generated_Source\PSoC5/SAR1.c ****             tmpReg = SAR1_SAR_RESOLUTION_12BIT | SAR1_SAR_SAMPLE_WIDTH;
 358:.\Generated_Source\PSoC5/SAR1.c ****             /* Halt CPU in debug mode if resolution is out of valid range */
 359:.\Generated_Source\PSoC5/SAR1.c ****             CYASSERT(0u != 0u);
 360:.\Generated_Source\PSoC5/SAR1.c ****             break;
 361:.\Generated_Source\PSoC5/SAR1.c ****     }
 362:.\Generated_Source\PSoC5/SAR1.c ****     SAR1_SAR_CSR2_REG = tmpReg;
 363:.\Generated_Source\PSoC5/SAR1.c **** 
 364:.\Generated_Source\PSoC5/SAR1.c ****      /* Calculate gain for convert counts to volts */
 365:.\Generated_Source\PSoC5/SAR1.c ****     SAR1_CalcGain(resolution);
 366:.\Generated_Source\PSoC5/SAR1.c **** }
 367:.\Generated_Source\PSoC5/SAR1.c **** 
 368:.\Generated_Source\PSoC5/SAR1.c **** 
 369:.\Generated_Source\PSoC5/SAR1.c **** #if(SAR1_DEFAULT_CONV_MODE != SAR1__HARDWARE_TRIGGER)
 370:.\Generated_Source\PSoC5/SAR1.c **** 
 371:.\Generated_Source\PSoC5/SAR1.c **** 
 372:.\Generated_Source\PSoC5/SAR1.c ****     /*******************************************************************************
 373:.\Generated_Source\PSoC5/SAR1.c ****     * Function Name: SAR1_StartConvert
 374:.\Generated_Source\PSoC5/SAR1.c ****     ********************************************************************************
ARM GAS  C:\Users\cruiser\AppData\Local\Temp\ccr3hQEq.s 			page 8


 375:.\Generated_Source\PSoC5/SAR1.c ****     *
 376:.\Generated_Source\PSoC5/SAR1.c ****     * Summary:
 377:.\Generated_Source\PSoC5/SAR1.c ****     *  Forces the ADC to initiate a conversion. In free-running mode, the ADC runs
 378:.\Generated_Source\PSoC5/SAR1.c ****     *  continuously. In software trigger mode, the function also acts as a software
 379:.\Generated_Source\PSoC5/SAR1.c ****     *  version of the SOC and every conversion must be triggered by
 380:.\Generated_Source\PSoC5/SAR1.c ****     *  SAR1_StartConvert(). This function is not available when the
 381:.\Generated_Source\PSoC5/SAR1.c ****     *  Hardware Trigger sample mode is selected.
 382:.\Generated_Source\PSoC5/SAR1.c ****     *
 383:.\Generated_Source\PSoC5/SAR1.c ****     * Parameters:
 384:.\Generated_Source\PSoC5/SAR1.c ****     *  None.
 385:.\Generated_Source\PSoC5/SAR1.c ****     *
 386:.\Generated_Source\PSoC5/SAR1.c ****     * Return:
 387:.\Generated_Source\PSoC5/SAR1.c ****     *  None.
 388:.\Generated_Source\PSoC5/SAR1.c ****     *
 389:.\Generated_Source\PSoC5/SAR1.c ****     * Theory:
 390:.\Generated_Source\PSoC5/SAR1.c ****     *  Forces the ADC to initiate a conversion. In Free Running mode, the ADC will
 391:.\Generated_Source\PSoC5/SAR1.c ****     *  run continuously. In a software trigger mode the function also acts as a
 392:.\Generated_Source\PSoC5/SAR1.c ****     *  software version of the SOC. Here every conversion has to be triggered by
 393:.\Generated_Source\PSoC5/SAR1.c ****     *  the routine. This writes into the SOC bit in SAR_CTRL reg.
 394:.\Generated_Source\PSoC5/SAR1.c ****     *
 395:.\Generated_Source\PSoC5/SAR1.c ****     * Side Effects:
 396:.\Generated_Source\PSoC5/SAR1.c ****     *  In a software trigger mode the function switches source for SOF from the
 397:.\Generated_Source\PSoC5/SAR1.c ****     *  external pin to the internal SOF generation. Application should not call
 398:.\Generated_Source\PSoC5/SAR1.c ****     *  StartConvert if external source used for SOF.
 399:.\Generated_Source\PSoC5/SAR1.c ****     *
 400:.\Generated_Source\PSoC5/SAR1.c ****     *******************************************************************************/
 401:.\Generated_Source\PSoC5/SAR1.c ****     void SAR1_StartConvert(void)
 402:.\Generated_Source\PSoC5/SAR1.c ****     {
 403:.\Generated_Source\PSoC5/SAR1.c ****         #if(SAR1_DEFAULT_CONV_MODE != SAR1__FREE_RUNNING)  /* If software triggered mode */
 404:.\Generated_Source\PSoC5/SAR1.c ****             SAR1_SAR_CSR0_REG &= (uint8)~SAR1_SAR_MX_SOF_UDB;   /* source: SOF bit */
 405:.\Generated_Source\PSoC5/SAR1.c ****         #endif /* End SAR1_DEFAULT_CONV_MODE */
 406:.\Generated_Source\PSoC5/SAR1.c **** 
 407:.\Generated_Source\PSoC5/SAR1.c ****         /* Start the conversion */
 408:.\Generated_Source\PSoC5/SAR1.c ****         SAR1_SAR_CSR0_REG |= SAR1_SAR_SOF_START_CONV;
 409:.\Generated_Source\PSoC5/SAR1.c ****     }
 410:.\Generated_Source\PSoC5/SAR1.c **** 
 411:.\Generated_Source\PSoC5/SAR1.c **** 
 412:.\Generated_Source\PSoC5/SAR1.c ****     /*******************************************************************************
 413:.\Generated_Source\PSoC5/SAR1.c ****     * Function Name: SAR1_StopConvert
 414:.\Generated_Source\PSoC5/SAR1.c ****     ********************************************************************************
 415:.\Generated_Source\PSoC5/SAR1.c ****     *
 416:.\Generated_Source\PSoC5/SAR1.c ****     * Summary:
 417:.\Generated_Source\PSoC5/SAR1.c ****     *  Forces the ADC to stop conversions. If a conversion is currently executing,
 418:.\Generated_Source\PSoC5/SAR1.c ****     *  that conversion will complete, but no further conversions will occur. This
 419:.\Generated_Source\PSoC5/SAR1.c ****     *  function is not available when the Hardware Trigger sample mode is selected.
 420:.\Generated_Source\PSoC5/SAR1.c ****     *
 421:.\Generated_Source\PSoC5/SAR1.c ****     * Parameters:
 422:.\Generated_Source\PSoC5/SAR1.c ****     *  None.
 423:.\Generated_Source\PSoC5/SAR1.c ****     *
 424:.\Generated_Source\PSoC5/SAR1.c ****     * Return:
 425:.\Generated_Source\PSoC5/SAR1.c ****     *  None.
 426:.\Generated_Source\PSoC5/SAR1.c ****     *
 427:.\Generated_Source\PSoC5/SAR1.c ****     * Theory:
 428:.\Generated_Source\PSoC5/SAR1.c ****     *  Stops ADC conversion in Free Running mode.
 429:.\Generated_Source\PSoC5/SAR1.c ****     *
 430:.\Generated_Source\PSoC5/SAR1.c ****     * Side Effects:
 431:.\Generated_Source\PSoC5/SAR1.c ****     *  In Software Trigger sample mode, this function sets a software version of the
ARM GAS  C:\Users\cruiser\AppData\Local\Temp\ccr3hQEq.s 			page 9


 432:.\Generated_Source\PSoC5/SAR1.c ****     *  SOC to low level and switches the SOC source to hardware SOC input.
 433:.\Generated_Source\PSoC5/SAR1.c ****     *
 434:.\Generated_Source\PSoC5/SAR1.c ****     *******************************************************************************/
 435:.\Generated_Source\PSoC5/SAR1.c ****     void SAR1_StopConvert(void)
 436:.\Generated_Source\PSoC5/SAR1.c ****     {
 437:.\Generated_Source\PSoC5/SAR1.c ****         /* Stop all conversions */
 438:.\Generated_Source\PSoC5/SAR1.c ****         SAR1_SAR_CSR0_REG &= (uint8)~SAR1_SAR_SOF_START_CONV;
 439:.\Generated_Source\PSoC5/SAR1.c **** 
 440:.\Generated_Source\PSoC5/SAR1.c ****         #if(SAR1_DEFAULT_CONV_MODE != SAR1__FREE_RUNNING)  /* If software triggered mode */
 441:.\Generated_Source\PSoC5/SAR1.c ****             /* Return source to UDB for hardware SOF signal */
 442:.\Generated_Source\PSoC5/SAR1.c ****             SAR1_SAR_CSR0_REG |= SAR1_SAR_MX_SOF_UDB;    /* source: UDB */
 443:.\Generated_Source\PSoC5/SAR1.c ****         #endif /* End SAR1_DEFAULT_CONV_MODE */
 444:.\Generated_Source\PSoC5/SAR1.c **** 
 445:.\Generated_Source\PSoC5/SAR1.c ****     }
 446:.\Generated_Source\PSoC5/SAR1.c **** 
 447:.\Generated_Source\PSoC5/SAR1.c **** #endif /* End SAR1_DEFAULT_CONV_MODE != SAR1__HARDWARE_TRIGGER */
 448:.\Generated_Source\PSoC5/SAR1.c **** 
 449:.\Generated_Source\PSoC5/SAR1.c **** 
 450:.\Generated_Source\PSoC5/SAR1.c **** /*******************************************************************************
 451:.\Generated_Source\PSoC5/SAR1.c **** * Function Name: SAR1_IsEndConversion
 452:.\Generated_Source\PSoC5/SAR1.c **** ********************************************************************************
 453:.\Generated_Source\PSoC5/SAR1.c **** *
 454:.\Generated_Source\PSoC5/SAR1.c **** * Summary:
 455:.\Generated_Source\PSoC5/SAR1.c **** *  Immediately returns the status of the conversion or does not return
 456:.\Generated_Source\PSoC5/SAR1.c **** *  (blocking) until the conversion completes, depending on the retMode
 457:.\Generated_Source\PSoC5/SAR1.c **** *  parameter.
 458:.\Generated_Source\PSoC5/SAR1.c **** *
 459:.\Generated_Source\PSoC5/SAR1.c **** * Parameters:
 460:.\Generated_Source\PSoC5/SAR1.c **** *  retMode:  Check conversion return mode.
 461:.\Generated_Source\PSoC5/SAR1.c **** *   SAR1_RETURN_STATUS: Immediately returns the status. If the
 462:.\Generated_Source\PSoC5/SAR1.c **** *     value returned is zero, the conversion is not complete, and this function
 463:.\Generated_Source\PSoC5/SAR1.c **** *     should be retried until a nonzero result is returned.
 464:.\Generated_Source\PSoC5/SAR1.c **** *   SAR1_WAIT_FOR_RESULT: Does not return a result until the ADC
 465:.\Generated_Source\PSoC5/SAR1.c **** *     conversion is complete.
 466:.\Generated_Source\PSoC5/SAR1.c **** *
 467:.\Generated_Source\PSoC5/SAR1.c **** * Return:
 468:.\Generated_Source\PSoC5/SAR1.c **** *  (uint8)  0 =>  The ADC is still calculating the last result.
 469:.\Generated_Source\PSoC5/SAR1.c **** *           1 =>  The last conversion is complete.
 470:.\Generated_Source\PSoC5/SAR1.c **** *
 471:.\Generated_Source\PSoC5/SAR1.c **** * Side Effects:
 472:.\Generated_Source\PSoC5/SAR1.c **** *  This function reads the end of conversion status, which is cleared on read.
 473:.\Generated_Source\PSoC5/SAR1.c **** *
 474:.\Generated_Source\PSoC5/SAR1.c **** *******************************************************************************/
 475:.\Generated_Source\PSoC5/SAR1.c **** uint8 SAR1_IsEndConversion(uint8 retMode)
 476:.\Generated_Source\PSoC5/SAR1.c **** {
 477:.\Generated_Source\PSoC5/SAR1.c ****     uint8 status;
 478:.\Generated_Source\PSoC5/SAR1.c **** 
 479:.\Generated_Source\PSoC5/SAR1.c ****     do
 480:.\Generated_Source\PSoC5/SAR1.c ****     {
 481:.\Generated_Source\PSoC5/SAR1.c ****         status = SAR1_SAR_CSR1_REG & SAR1_SAR_EOF_1;
 482:.\Generated_Source\PSoC5/SAR1.c ****     } while ((status != SAR1_SAR_EOF_1) && (retMode == SAR1_WAIT_FOR_RESULT));
 483:.\Generated_Source\PSoC5/SAR1.c ****     /* If convertion complete, wait until EOF bit released */
 484:.\Generated_Source\PSoC5/SAR1.c ****     if(status == SAR1_SAR_EOF_1)
 485:.\Generated_Source\PSoC5/SAR1.c ****     {
 486:.\Generated_Source\PSoC5/SAR1.c ****         /* wait one ADC clock to let the EOC status bit release */
 487:.\Generated_Source\PSoC5/SAR1.c ****         CyDelayUs(1u);
 488:.\Generated_Source\PSoC5/SAR1.c ****         /* Do the unconditional read operation of the CSR1 register to make sure the EOC bit has be
ARM GAS  C:\Users\cruiser\AppData\Local\Temp\ccr3hQEq.s 			page 10


 489:.\Generated_Source\PSoC5/SAR1.c ****         CY_GET_REG8(SAR1_SAR_CSR1_PTR);
 490:.\Generated_Source\PSoC5/SAR1.c ****     }
 491:.\Generated_Source\PSoC5/SAR1.c **** 
 492:.\Generated_Source\PSoC5/SAR1.c ****     return(status);
 493:.\Generated_Source\PSoC5/SAR1.c **** }
 494:.\Generated_Source\PSoC5/SAR1.c **** 
 495:.\Generated_Source\PSoC5/SAR1.c **** 
 496:.\Generated_Source\PSoC5/SAR1.c **** /*******************************************************************************
 497:.\Generated_Source\PSoC5/SAR1.c **** * Function Name: SAR1_GetResult8
 498:.\Generated_Source\PSoC5/SAR1.c **** ********************************************************************************
 499:.\Generated_Source\PSoC5/SAR1.c **** *
 500:.\Generated_Source\PSoC5/SAR1.c **** * Summary:
 501:.\Generated_Source\PSoC5/SAR1.c **** *  Returns the result of an 8-bit conversion. If the resolution is set greater
 502:.\Generated_Source\PSoC5/SAR1.c **** *  than 8 bits, the function returns the LSB of the result.
 503:.\Generated_Source\PSoC5/SAR1.c **** *  SAR1_IsEndConversion() should be called to verify that the data
 504:.\Generated_Source\PSoC5/SAR1.c **** *   sample is ready.
 505:.\Generated_Source\PSoC5/SAR1.c **** *
 506:.\Generated_Source\PSoC5/SAR1.c **** * Parameters:
 507:.\Generated_Source\PSoC5/SAR1.c **** *  None.
 508:.\Generated_Source\PSoC5/SAR1.c **** *
 509:.\Generated_Source\PSoC5/SAR1.c **** * Return:
 510:.\Generated_Source\PSoC5/SAR1.c **** *  The LSB of the last ADC conversion.
 511:.\Generated_Source\PSoC5/SAR1.c **** *
 512:.\Generated_Source\PSoC5/SAR1.c **** * Global Variables:
 513:.\Generated_Source\PSoC5/SAR1.c **** *  SAR1_shift - used to convert the ADC counts to the 2s
 514:.\Generated_Source\PSoC5/SAR1.c **** *  compliment form.
 515:.\Generated_Source\PSoC5/SAR1.c **** *
 516:.\Generated_Source\PSoC5/SAR1.c **** * Side Effects:
 517:.\Generated_Source\PSoC5/SAR1.c **** *  Converts the ADC counts to the 2s complement form.
 518:.\Generated_Source\PSoC5/SAR1.c **** *
 519:.\Generated_Source\PSoC5/SAR1.c **** *******************************************************************************/
 520:.\Generated_Source\PSoC5/SAR1.c **** int8 SAR1_GetResult8( void )
 521:.\Generated_Source\PSoC5/SAR1.c **** {
 522:.\Generated_Source\PSoC5/SAR1.c ****     return( (int8)SAR1_SAR_WRK0_REG - (int8)SAR1_shift);
 523:.\Generated_Source\PSoC5/SAR1.c **** }
 524:.\Generated_Source\PSoC5/SAR1.c **** 
 525:.\Generated_Source\PSoC5/SAR1.c **** 
 526:.\Generated_Source\PSoC5/SAR1.c **** /*******************************************************************************
 527:.\Generated_Source\PSoC5/SAR1.c **** * Function Name: SAR1_GetResult16
 528:.\Generated_Source\PSoC5/SAR1.c **** ********************************************************************************
 529:.\Generated_Source\PSoC5/SAR1.c **** *
 530:.\Generated_Source\PSoC5/SAR1.c **** * Summary:
 531:.\Generated_Source\PSoC5/SAR1.c **** *  Returns a 16-bit result for a conversion with a result that has a resolution
 532:.\Generated_Source\PSoC5/SAR1.c **** *  of 8 to 12 bits.
 533:.\Generated_Source\PSoC5/SAR1.c **** *  SAR1_IsEndConversion() should be called to verify that the data
 534:.\Generated_Source\PSoC5/SAR1.c **** *   sample is ready
 535:.\Generated_Source\PSoC5/SAR1.c **** *
 536:.\Generated_Source\PSoC5/SAR1.c **** * Parameters:
 537:.\Generated_Source\PSoC5/SAR1.c **** *  None.
 538:.\Generated_Source\PSoC5/SAR1.c **** *
 539:.\Generated_Source\PSoC5/SAR1.c **** * Return:
 540:.\Generated_Source\PSoC5/SAR1.c **** *  The 16-bit result of the last ADC conversion
 541:.\Generated_Source\PSoC5/SAR1.c **** *
 542:.\Generated_Source\PSoC5/SAR1.c **** * Global Variables:
 543:.\Generated_Source\PSoC5/SAR1.c **** *  SAR1_shift - used to convert the ADC counts to the 2s
 544:.\Generated_Source\PSoC5/SAR1.c **** *  compliment form.
 545:.\Generated_Source\PSoC5/SAR1.c **** *
ARM GAS  C:\Users\cruiser\AppData\Local\Temp\ccr3hQEq.s 			page 11


 546:.\Generated_Source\PSoC5/SAR1.c **** * Side Effects:
 547:.\Generated_Source\PSoC5/SAR1.c **** *  Converts the ADC counts to the 2s complement form.
 548:.\Generated_Source\PSoC5/SAR1.c **** *
 549:.\Generated_Source\PSoC5/SAR1.c **** *******************************************************************************/
 550:.\Generated_Source\PSoC5/SAR1.c **** int16 SAR1_GetResult16( void )
 551:.\Generated_Source\PSoC5/SAR1.c **** {
 552:.\Generated_Source\PSoC5/SAR1.c ****     uint16 res;
 553:.\Generated_Source\PSoC5/SAR1.c **** 
 554:.\Generated_Source\PSoC5/SAR1.c ****     res = CY_GET_REG16(SAR1_SAR_WRK_PTR);
 555:.\Generated_Source\PSoC5/SAR1.c **** 
 556:.\Generated_Source\PSoC5/SAR1.c ****     return( (int16)res - SAR1_shift );
 557:.\Generated_Source\PSoC5/SAR1.c **** }
 558:.\Generated_Source\PSoC5/SAR1.c **** 
 559:.\Generated_Source\PSoC5/SAR1.c **** 
 560:.\Generated_Source\PSoC5/SAR1.c **** /*******************************************************************************
 561:.\Generated_Source\PSoC5/SAR1.c **** * Function Name: SAR1_SetOffset
 562:.\Generated_Source\PSoC5/SAR1.c **** ********************************************************************************
 563:.\Generated_Source\PSoC5/SAR1.c **** *
 564:.\Generated_Source\PSoC5/SAR1.c **** * Summary:
 565:.\Generated_Source\PSoC5/SAR1.c **** *  Sets the ADC offset, which is used by SAR1_CountsTo_Volts(),
 566:.\Generated_Source\PSoC5/SAR1.c **** *  SAR1_CountsTo_mVolts(), and SAR1_CountsTo_uVolts()
 567:.\Generated_Source\PSoC5/SAR1.c **** *  to subtract the offset from the given reading before calculating the voltage
 568:.\Generated_Source\PSoC5/SAR1.c **** *  conversion.
 569:.\Generated_Source\PSoC5/SAR1.c **** *
 570:.\Generated_Source\PSoC5/SAR1.c **** * Parameters:
 571:.\Generated_Source\PSoC5/SAR1.c **** *  int16: This value is measured when the inputs are shorted or connected to
 572:.\Generated_Source\PSoC5/SAR1.c ****    the same input voltage.
 573:.\Generated_Source\PSoC5/SAR1.c **** *
 574:.\Generated_Source\PSoC5/SAR1.c **** * Return:
 575:.\Generated_Source\PSoC5/SAR1.c **** *  None.
 576:.\Generated_Source\PSoC5/SAR1.c **** *
 577:.\Generated_Source\PSoC5/SAR1.c **** * Global Variables:
 578:.\Generated_Source\PSoC5/SAR1.c **** *  The SAR1_offset variable modified. This variable is used for
 579:.\Generated_Source\PSoC5/SAR1.c **** *  offset calibration purpose.
 580:.\Generated_Source\PSoC5/SAR1.c **** *  Affects the SAR1_CountsTo_Volts,
 581:.\Generated_Source\PSoC5/SAR1.c **** *  SAR1_CountsTo_mVolts, SAR1_CountsTo_uVolts functions
 582:.\Generated_Source\PSoC5/SAR1.c **** *  by subtracting the given offset.
 583:.\Generated_Source\PSoC5/SAR1.c **** *
 584:.\Generated_Source\PSoC5/SAR1.c **** *******************************************************************************/
 585:.\Generated_Source\PSoC5/SAR1.c **** void SAR1_SetOffset(int16 offset)
 586:.\Generated_Source\PSoC5/SAR1.c **** {
 587:.\Generated_Source\PSoC5/SAR1.c ****     SAR1_offset = offset;
 588:.\Generated_Source\PSoC5/SAR1.c **** }
 589:.\Generated_Source\PSoC5/SAR1.c **** 
 590:.\Generated_Source\PSoC5/SAR1.c **** 
 591:.\Generated_Source\PSoC5/SAR1.c **** /*******************************************************************************
 592:.\Generated_Source\PSoC5/SAR1.c **** * Function Name: SAR1_CalcGain
 593:.\Generated_Source\PSoC5/SAR1.c **** ********************************************************************************
 594:.\Generated_Source\PSoC5/SAR1.c **** *
 595:.\Generated_Source\PSoC5/SAR1.c **** * Summary:
 596:.\Generated_Source\PSoC5/SAR1.c **** *  This function calculates the ADC gain in counts per 10 volt.
 597:.\Generated_Source\PSoC5/SAR1.c **** *
 598:.\Generated_Source\PSoC5/SAR1.c **** * Parameters:
 599:.\Generated_Source\PSoC5/SAR1.c **** *  uint8: resolution
 600:.\Generated_Source\PSoC5/SAR1.c **** *
 601:.\Generated_Source\PSoC5/SAR1.c **** * Return:
 602:.\Generated_Source\PSoC5/SAR1.c **** *  None.
ARM GAS  C:\Users\cruiser\AppData\Local\Temp\ccr3hQEq.s 			page 12


 603:.\Generated_Source\PSoC5/SAR1.c **** *
 604:.\Generated_Source\PSoC5/SAR1.c **** * Global Variables:
 605:.\Generated_Source\PSoC5/SAR1.c **** *  SAR1_shift variable initialized. This variable is used to
 606:.\Generated_Source\PSoC5/SAR1.c **** *  convert the ADC counts to the 2s compliment form.
 607:.\Generated_Source\PSoC5/SAR1.c **** *  SAR1_countsPer10Volt variable initialized. This variable is used
 608:.\Generated_Source\PSoC5/SAR1.c **** *  for gain calibration purpose.
 609:.\Generated_Source\PSoC5/SAR1.c **** *
 610:.\Generated_Source\PSoC5/SAR1.c **** *******************************************************************************/
 611:.\Generated_Source\PSoC5/SAR1.c **** static void SAR1_CalcGain( uint8 resolution )
 612:.\Generated_Source\PSoC5/SAR1.c **** {
  26              		.loc 1 612 0
  27              		.cfi_startproc
  28              		@ args = 0, pretend = 0, frame = 0
  29              		@ frame_needed = 0, uses_anonymous_args = 0
  30              	.LVL0:
  31 0000 08B5     		push	{r3, lr}
  32              		.cfi_def_cfa_offset 8
  33              		.cfi_offset 3, -8
  34              		.cfi_offset 14, -4
 613:.\Generated_Source\PSoC5/SAR1.c ****     int32 counts;
 614:.\Generated_Source\PSoC5/SAR1.c ****     #if(!((SAR1_DEFAULT_RANGE == SAR1__VSS_TO_VREF) || \
 615:.\Generated_Source\PSoC5/SAR1.c ****          (SAR1_DEFAULT_RANGE == SAR1__VSSA_TO_VDDA) || \
 616:.\Generated_Source\PSoC5/SAR1.c ****          (SAR1_DEFAULT_RANGE == SAR1__VSSA_TO_VDAC)) )
 617:.\Generated_Source\PSoC5/SAR1.c ****         uint16 diff_zero;
 618:.\Generated_Source\PSoC5/SAR1.c ****     #endif /* End SAR1_DEFAULT_RANGE */
 619:.\Generated_Source\PSoC5/SAR1.c **** 
 620:.\Generated_Source\PSoC5/SAR1.c ****     switch (resolution)
  35              		.loc 1 620 0
  36 0002 0A28     		cmp	r0, #10
  37 0004 13D0     		beq	.L6
  38 0006 0C28     		cmp	r0, #12
  39 0008 02D0     		beq	.L4
  40 000a 0828     		cmp	r0, #8
  41 000c 09D1     		bne	.L7
  42 000e 04E0     		b	.L5
  43              	.L4:
 621:.\Generated_Source\PSoC5/SAR1.c ****     {
 622:.\Generated_Source\PSoC5/SAR1.c ****         case (uint8)SAR1__BITS_12:
 623:.\Generated_Source\PSoC5/SAR1.c ****             counts = (int32)SAR1_SAR_WRK_MAX_12BIT;
 624:.\Generated_Source\PSoC5/SAR1.c ****             #if(!((SAR1_DEFAULT_RANGE == SAR1__VSS_TO_VREF) || \
 625:.\Generated_Source\PSoC5/SAR1.c ****                  (SAR1_DEFAULT_RANGE == SAR1__VSSA_TO_VDDA) || \
 626:.\Generated_Source\PSoC5/SAR1.c ****                  (SAR1_DEFAULT_RANGE == SAR1__VSSA_TO_VDAC)) )
 627:.\Generated_Source\PSoC5/SAR1.c ****                 diff_zero = SAR1_SAR_DIFF_SHIFT;
  44              		.loc 1 627 0
  45 0010 4FF40062 		mov	r2, #2048
 623:.\Generated_Source\PSoC5/SAR1.c ****             #if(!((SAR1_DEFAULT_RANGE == SAR1__VSS_TO_VREF) || \
  46              		.loc 1 623 0
  47 0014 4FF48051 		mov	r1, #4096
  48 0018 0DE0     		b	.L3
  49              	.L5:
  50              	.LVL1:
 628:.\Generated_Source\PSoC5/SAR1.c ****             #endif /* End SAR1_DEFAULT_RANGE */
 629:.\Generated_Source\PSoC5/SAR1.c ****             break;
 630:.\Generated_Source\PSoC5/SAR1.c ****         case (uint8)SAR1__BITS_10:
 631:.\Generated_Source\PSoC5/SAR1.c ****             counts = (int32)SAR1_SAR_WRK_MAX_10BIT;
 632:.\Generated_Source\PSoC5/SAR1.c ****             #if(!((SAR1_DEFAULT_RANGE == SAR1__VSS_TO_VREF) || \
 633:.\Generated_Source\PSoC5/SAR1.c ****                  (SAR1_DEFAULT_RANGE == SAR1__VSSA_TO_VDDA) || \
ARM GAS  C:\Users\cruiser\AppData\Local\Temp\ccr3hQEq.s 			page 13


 634:.\Generated_Source\PSoC5/SAR1.c ****                  (SAR1_DEFAULT_RANGE == SAR1__VSSA_TO_VDAC)) )
 635:.\Generated_Source\PSoC5/SAR1.c ****                 diff_zero = SAR1_SAR_DIFF_SHIFT >> 2u;
 636:.\Generated_Source\PSoC5/SAR1.c ****             #endif /* End SAR1_DEFAULT_RANGE */
 637:.\Generated_Source\PSoC5/SAR1.c ****             break;
 638:.\Generated_Source\PSoC5/SAR1.c ****         case (uint8)SAR1__BITS_8:
 639:.\Generated_Source\PSoC5/SAR1.c ****             counts = (int32)SAR1_SAR_WRK_MAX_8BIT;
 640:.\Generated_Source\PSoC5/SAR1.c ****             #if(!((SAR1_DEFAULT_RANGE == SAR1__VSS_TO_VREF) || \
 641:.\Generated_Source\PSoC5/SAR1.c ****                  (SAR1_DEFAULT_RANGE == SAR1__VSSA_TO_VDDA) || \
 642:.\Generated_Source\PSoC5/SAR1.c ****                  (SAR1_DEFAULT_RANGE == SAR1__VSSA_TO_VDAC)) )
 643:.\Generated_Source\PSoC5/SAR1.c ****                 diff_zero = SAR1_SAR_DIFF_SHIFT >> 4u;
  51              		.loc 1 643 0
  52 001a 8022     		movs	r2, #128
 639:.\Generated_Source\PSoC5/SAR1.c ****             #if(!((SAR1_DEFAULT_RANGE == SAR1__VSS_TO_VREF) || \
  53              		.loc 1 639 0
  54 001c 4FF48071 		mov	r1, #256
 644:.\Generated_Source\PSoC5/SAR1.c ****             #endif /* End SAR1_DEFAULT_RANGE */
 645:.\Generated_Source\PSoC5/SAR1.c ****             break;
  55              		.loc 1 645 0
  56 0020 09E0     		b	.L3
  57              	.LVL2:
  58              	.L7:
 646:.\Generated_Source\PSoC5/SAR1.c ****         default: /* Halt CPU in debug mode if resolution is out of valid range */
 647:.\Generated_Source\PSoC5/SAR1.c ****             counts = 0;
 648:.\Generated_Source\PSoC5/SAR1.c ****             #if(!((SAR1_DEFAULT_RANGE == SAR1__VSS_TO_VREF) || \
 649:.\Generated_Source\PSoC5/SAR1.c ****                  (SAR1_DEFAULT_RANGE == SAR1__VSSA_TO_VDDA) || \
 650:.\Generated_Source\PSoC5/SAR1.c ****                  (SAR1_DEFAULT_RANGE == SAR1__VSSA_TO_VDAC)) )
 651:.\Generated_Source\PSoC5/SAR1.c ****                 diff_zero = 0u;
 652:.\Generated_Source\PSoC5/SAR1.c ****             #endif /* End SAR1_DEFAULT_RANGE */
 653:.\Generated_Source\PSoC5/SAR1.c ****             CYASSERT(0u != 0u);
  59              		.loc 1 653 0
  60 0022 0020     		movs	r0, #0
  61              	.LVL3:
  62 0024 FFF7FEFF 		bl	CyHalt
  63              	.LVL4:
 651:.\Generated_Source\PSoC5/SAR1.c ****             #endif /* End SAR1_DEFAULT_RANGE */
  64              		.loc 1 651 0
  65 0028 0022     		movs	r2, #0
 647:.\Generated_Source\PSoC5/SAR1.c ****             #if(!((SAR1_DEFAULT_RANGE == SAR1__VSS_TO_VREF) || \
  66              		.loc 1 647 0
  67 002a 1146     		mov	r1, r2
  68 002c 03E0     		b	.L3
  69              	.LVL5:
  70              	.L6:
 635:.\Generated_Source\PSoC5/SAR1.c ****             #endif /* End SAR1_DEFAULT_RANGE */
  71              		.loc 1 635 0
  72 002e 4FF40072 		mov	r2, #512
 631:.\Generated_Source\PSoC5/SAR1.c ****             #if(!((SAR1_DEFAULT_RANGE == SAR1__VSS_TO_VREF) || \
  73              		.loc 1 631 0
  74 0032 4FF48061 		mov	r1, #1024
  75              	.LVL6:
  76              	.L3:
 654:.\Generated_Source\PSoC5/SAR1.c ****             break;
 655:.\Generated_Source\PSoC5/SAR1.c ****     }
 656:.\Generated_Source\PSoC5/SAR1.c ****     SAR1_countsPerVolt = 0; /* Clear obsolete variable */
  77              		.loc 1 656 0
  78 0036 0020     		movs	r0, #0
  79 0038 094B     		ldr	r3, .L9
ARM GAS  C:\Users\cruiser\AppData\Local\Temp\ccr3hQEq.s 			page 14


  80 003a 1880     		strh	r0, [r3]	@ movhi
 657:.\Generated_Source\PSoC5/SAR1.c ****     /* Calculate gain in counts per 10 volts with rounding */
 658:.\Generated_Source\PSoC5/SAR1.c ****     SAR1_countsPer10Volt = (((counts * SAR1_10MV_COUNTS) +
  81              		.loc 1 658 0
  82 003c 42F21073 		movw	r3, #10000
  83 0040 03FB01F3 		mul	r3, r3, r1
  84 0044 03F6C413 		addw	r3, r3, #2500
 659:.\Generated_Source\PSoC5/SAR1.c ****                         SAR1_DEFAULT_REF_VOLTAGE_MV) / (SAR1_DEFAULT_REF_VOLTAGE_MV * 2));
  85              		.loc 1 659 0
  86 0048 0649     		ldr	r1, .L9+4
  87              	.LVL7:
  88 004a 81FB0301 		smull	r0, r1, r1, r3
  89 004e DB17     		asrs	r3, r3, #31
  90 0050 C3EBE123 		rsb	r3, r3, r1, asr #11
 658:.\Generated_Source\PSoC5/SAR1.c ****                         SAR1_DEFAULT_REF_VOLTAGE_MV) / (SAR1_DEFAULT_REF_VOLTAGE_MV * 2));
  91              		.loc 1 658 0
  92 0054 0449     		ldr	r1, .L9+8
  93 0056 0B60     		str	r3, [r1]
 660:.\Generated_Source\PSoC5/SAR1.c **** 
 661:.\Generated_Source\PSoC5/SAR1.c ****     #if( (SAR1_DEFAULT_RANGE == SAR1__VSS_TO_VREF) || \
 662:.\Generated_Source\PSoC5/SAR1.c ****          (SAR1_DEFAULT_RANGE == SAR1__VSSA_TO_VDDA) || \
 663:.\Generated_Source\PSoC5/SAR1.c ****          (SAR1_DEFAULT_RANGE == SAR1__VSSA_TO_VDAC) )
 664:.\Generated_Source\PSoC5/SAR1.c ****         SAR1_shift = 0;
 665:.\Generated_Source\PSoC5/SAR1.c ****     #else
 666:.\Generated_Source\PSoC5/SAR1.c ****         SAR1_shift = diff_zero;
  94              		.loc 1 666 0
  95 0058 92B2     		uxth	r2, r2
  96 005a 044B     		ldr	r3, .L9+12
  97 005c 1A80     		strh	r2, [r3]	@ movhi
  98 005e 08BD     		pop	{r3, pc}
  99              	.L10:
 100              		.align	2
 101              	.L9:
 102 0060 00000000 		.word	SAR1_countsPerVolt
 103 0064 AD8BDB68 		.word	1759218605
 104 0068 00000000 		.word	SAR1_countsPer10Volt
 105 006c 00000000 		.word	SAR1_shift
 106              		.cfi_endproc
 107              	.LFE12:
 108              		.size	SAR1_CalcGain, .-SAR1_CalcGain
 109              		.section	.text.SAR1_Enable,"ax",%progbits
 110              		.align	2
 111              		.global	SAR1_Enable
 112              		.thumb
 113              		.thumb_func
 114              		.type	SAR1_Enable, %function
 115              	SAR1_Enable:
 116              	.LFB2:
 144:.\Generated_Source\PSoC5/SAR1.c ****     uint8 tmpReg;
 117              		.loc 1 144 0
 118              		.cfi_startproc
 119              		@ args = 0, pretend = 0, frame = 0
 120              		@ frame_needed = 0, uses_anonymous_args = 0
 121 0000 38B5     		push	{r3, r4, r5, lr}
 122              		.cfi_def_cfa_offset 16
 123              		.cfi_offset 3, -16
 124              		.cfi_offset 4, -12
ARM GAS  C:\Users\cruiser\AppData\Local\Temp\ccr3hQEq.s 			page 15


 125              		.cfi_offset 5, -8
 126              		.cfi_offset 14, -4
 147:.\Generated_Source\PSoC5/SAR1.c **** 
 127              		.loc 1 147 0
 128 0002 FFF7FEFF 		bl	CyEnterCriticalSection
 129              	.LVL8:
 130 0006 0446     		mov	r4, r0
 131              	.LVL9:
 150:.\Generated_Source\PSoC5/SAR1.c **** 
 132              		.loc 1 150 0
 133 0008 1E4A     		ldr	r2, .L13
 134 000a 1378     		ldrb	r3, [r2]	@ zero_extendqisi2
 135 000c 43F00103 		orr	r3, r3, #1
 136 0010 1370     		strb	r3, [r2]
 153:.\Generated_Source\PSoC5/SAR1.c **** 
 137              		.loc 1 153 0
 138 0012 1032     		adds	r2, r2, #16
 139 0014 1378     		ldrb	r3, [r2]	@ zero_extendqisi2
 140 0016 43F00103 		orr	r3, r3, #1
 141 001a 1370     		strb	r3, [r2]
 157:.\Generated_Source\PSoC5/SAR1.c ****         SAR1_STBY_PWRMGR_CLK_REG |= SAR1_STBY_PWR_CLK_EN;
 142              		.loc 1 157 0
 143 001c 193A     		subs	r2, r2, #25
 144 001e 1378     		ldrb	r3, [r2]	@ zero_extendqisi2
 145 0020 43F00203 		orr	r3, r3, #2
 146 0024 1370     		strb	r3, [r2]
 158:.\Generated_Source\PSoC5/SAR1.c ****     #endif /* End SAR1_DEFAULT_INTERNAL_CLK */
 147              		.loc 1 158 0
 148 0026 1032     		adds	r2, r2, #16
 149 0028 1378     		ldrb	r3, [r2]	@ zero_extendqisi2
 150 002a 43F00203 		orr	r3, r3, #2
 151 002e 1370     		strb	r3, [r2]
 162:.\Generated_Source\PSoC5/SAR1.c ****     tmpReg |= SAR1_SAR_EN_BUF_VCM_EN;
 152              		.loc 1 162 0
 153 0030 02F5AA52 		add	r2, r2, #5440
 154 0034 1132     		adds	r2, r2, #17
 155 0036 1378     		ldrb	r3, [r2]	@ zero_extendqisi2
 156              	.LVL10:
 169:.\Generated_Source\PSoC5/SAR1.c ****     #endif /* SAR1_DEFAULT_REFERENCE == SAR1__EXT_REF */
 157              		.loc 1 169 0
 158 0038 43F00303 		orr	r3, r3, #3
 159              	.LVL11:
 171:.\Generated_Source\PSoC5/SAR1.c **** 
 160              		.loc 1 171 0
 161 003c 1370     		strb	r3, [r2]
 184:.\Generated_Source\PSoC5/SAR1.c ****         #endif /* SAR1_DEFAULT_REFERENCE == SAR1__INT_REF_NOT_BYPASSED */
 162              		.loc 1 184 0
 163 003e 0422     		movs	r2, #4
 164 0040 114B     		ldr	r3, .L13+4
 165              	.LVL12:
 166 0042 1A70     		strb	r2, [r3]
 167              	.LVL13:
 190:.\Generated_Source\PSoC5/SAR1.c ****     #else /* Set High non-overlap delay for sampling clock signals (for <500KSPS)*/
 168              		.loc 1 190 0
 169 0044 013B     		subs	r3, r3, #1
 170 0046 1A78     		ldrb	r2, [r3]	@ zero_extendqisi2
 171 0048 02F0BF02 		and	r2, r2, #191
ARM GAS  C:\Users\cruiser\AppData\Local\Temp\ccr3hQEq.s 			page 16


 172 004c 1A70     		strb	r2, [r3]
 200:.\Generated_Source\PSoC5/SAR1.c ****     #else /* for <500ksps */
 173              		.loc 1 200 0
 174 004e 1A78     		ldrb	r2, [r3]	@ zero_extendqisi2
 175 0050 42F00302 		orr	r2, r2, #3
 176 0054 1A70     		strb	r2, [r3]
 206:.\Generated_Source\PSoC5/SAR1.c ****     /* SAR_HIZ_CLEAR:   Should not be used for LP */
 177              		.loc 1 206 0
 178 0056 0822     		movs	r2, #8
 179 0058 053B     		subs	r3, r3, #5
 180 005a 1A70     		strb	r2, [r3]
 218:.\Generated_Source\PSoC5/SAR1.c **** 
 181              		.loc 1 218 0
 182 005c 0225     		movs	r5, #2
 183 005e A3F59753 		sub	r3, r3, #4832
 184 0062 0C3B     		subs	r3, r3, #12
 185 0064 1D70     		strb	r5, [r3]
 221:.\Generated_Source\PSoC5/SAR1.c **** 
 186              		.loc 1 221 0
 187 0066 094A     		ldr	r2, .L13+8
 188 0068 1378     		ldrb	r3, [r2]	@ zero_extendqisi2
 189 006a 43F00803 		orr	r3, r3, #8
 190 006e 1370     		strb	r3, [r2]
 223:.\Generated_Source\PSoC5/SAR1.c **** 
 191              		.loc 1 223 0
 192 0070 0A20     		movs	r0, #10
 193 0072 FFF7FEFF 		bl	CyDelayUs
 194              	.LVL14:
 227:.\Generated_Source\PSoC5/SAR1.c ****     #endif   /* End SAR1_IRQ_REMOVE */
 195              		.loc 1 227 0
 196 0076 064B     		ldr	r3, .L13+12
 197 0078 1D60     		str	r5, [r3]
 230:.\Generated_Source\PSoC5/SAR1.c **** }
 198              		.loc 1 230 0
 199 007a 2046     		mov	r0, r4
 200 007c FFF7FEFF 		bl	CyExitCriticalSection
 201              	.LVL15:
 202 0080 38BD     		pop	{r3, r4, r5, pc}
 203              	.LVL16:
 204              	.L14:
 205 0082 00BF     		.align	2
 206              	.L13:
 207 0084 AB430040 		.word	1073759147
 208 0088 06590040 		.word	1073764614
 209 008c 275B0040 		.word	1073765159
 210 0090 80E200E0 		.word	-536812928
 211              		.cfi_endproc
 212              	.LFE2:
 213              		.size	SAR1_Enable, .-SAR1_Enable
 214              		.section	.text.SAR1_Stop,"ax",%progbits
 215              		.align	2
 216              		.global	SAR1_Stop
 217              		.thumb
 218              		.thumb_func
 219              		.type	SAR1_Stop, %function
 220              	SAR1_Stop:
 221              	.LFB3:
ARM GAS  C:\Users\cruiser\AppData\Local\Temp\ccr3hQEq.s 			page 17


 249:.\Generated_Source\PSoC5/SAR1.c ****     uint8 enableInterrupts;
 222              		.loc 1 249 0
 223              		.cfi_startproc
 224              		@ args = 0, pretend = 0, frame = 0
 225              		@ frame_needed = 0, uses_anonymous_args = 0
 226 0000 08B5     		push	{r3, lr}
 227              		.cfi_def_cfa_offset 8
 228              		.cfi_offset 3, -8
 229              		.cfi_offset 14, -4
 251:.\Generated_Source\PSoC5/SAR1.c **** 
 230              		.loc 1 251 0
 231 0002 FFF7FEFF 		bl	CyEnterCriticalSection
 232              	.LVL17:
 254:.\Generated_Source\PSoC5/SAR1.c ****     /* Disable the SAR ADC block in Active Power Mode */
 233              		.loc 1 254 0
 234 0006 0F4A     		ldr	r2, .L17
 235 0008 1378     		ldrb	r3, [r2]	@ zero_extendqisi2
 236 000a 03F0FE03 		and	r3, r3, #254
 237 000e 1370     		strb	r3, [r2]
 256:.\Generated_Source\PSoC5/SAR1.c ****     /* Disable the SAR ADC in Standby Power Mode */
 238              		.loc 1 256 0
 239 0010 A2F5AA52 		sub	r2, r2, #5440
 240 0014 153A     		subs	r2, r2, #21
 241 0016 1378     		ldrb	r3, [r2]	@ zero_extendqisi2
 242 0018 03F0FE03 		and	r3, r3, #254
 243 001c 1370     		strb	r3, [r2]
 258:.\Generated_Source\PSoC5/SAR1.c **** 
 244              		.loc 1 258 0
 245 001e 1032     		adds	r2, r2, #16
 246 0020 1378     		ldrb	r3, [r2]	@ zero_extendqisi2
 247 0022 03F0FE03 		and	r3, r3, #254
 248 0026 1370     		strb	r3, [r2]
 262:.\Generated_Source\PSoC5/SAR1.c ****         SAR1_STBY_PWRMGR_CLK_REG &= (uint8)~SAR1_STBY_PWR_CLK_EN;
 249              		.loc 1 262 0
 250 0028 193A     		subs	r2, r2, #25
 251 002a 1378     		ldrb	r3, [r2]	@ zero_extendqisi2
 252 002c 03F0FD03 		and	r3, r3, #253
 253 0030 1370     		strb	r3, [r2]
 263:.\Generated_Source\PSoC5/SAR1.c ****     #endif /* End SAR1_DEFAULT_INTERNAL_CLK */
 254              		.loc 1 263 0
 255 0032 1032     		adds	r2, r2, #16
 256 0034 1378     		ldrb	r3, [r2]	@ zero_extendqisi2
 257 0036 03F0FD03 		and	r3, r3, #253
 258 003a 1370     		strb	r3, [r2]
 266:.\Generated_Source\PSoC5/SAR1.c **** 
 259              		.loc 1 266 0
 260 003c FFF7FEFF 		bl	CyExitCriticalSection
 261              	.LVL18:
 262 0040 08BD     		pop	{r3, pc}
 263              	.L18:
 264 0042 00BF     		.align	2
 265              	.L17:
 266 0044 00590040 		.word	1073764608
 267              		.cfi_endproc
 268              	.LFE3:
 269              		.size	SAR1_Stop, .-SAR1_Stop
 270              		.section	.text.SAR1_SetPower,"ax",%progbits
ARM GAS  C:\Users\cruiser\AppData\Local\Temp\ccr3hQEq.s 			page 18


 271              		.align	2
 272              		.global	SAR1_SetPower
 273              		.thumb
 274              		.thumb_func
 275              		.type	SAR1_SetPower, %function
 276              	SAR1_SetPower:
 277              	.LFB4:
 291:.\Generated_Source\PSoC5/SAR1.c ****     uint8 tmpReg;
 278              		.loc 1 291 0
 279              		.cfi_startproc
 280              		@ args = 0, pretend = 0, frame = 0
 281              		@ frame_needed = 0, uses_anonymous_args = 0
 282              		@ link register save eliminated.
 283              	.LVL19:
 295:.\Generated_Source\PSoC5/SAR1.c **** 
 284              		.loc 1 295 0
 285 0000 00F00300 		and	r0, r0, #3
 286              	.LVL20:
 298:.\Generated_Source\PSoC5/SAR1.c ****     tmpReg |= (uint8)(power << SAR1_SAR_POWER_SHIFT);
 287              		.loc 1 298 0
 288 0004 034A     		ldr	r2, .L20
 289 0006 1378     		ldrb	r3, [r2]	@ zero_extendqisi2
 290 0008 03F03F03 		and	r3, r3, #63
 291              	.LVL21:
 299:.\Generated_Source\PSoC5/SAR1.c ****     SAR1_SAR_CSR0_REG = tmpReg;
 292              		.loc 1 299 0
 293 000c 43EA8010 		orr	r0, r3, r0, lsl #6
 294              	.LVL22:
 300:.\Generated_Source\PSoC5/SAR1.c **** }
 295              		.loc 1 300 0
 296 0010 1070     		strb	r0, [r2]
 297 0012 7047     		bx	lr
 298              	.L21:
 299              		.align	2
 300              	.L20:
 301 0014 00590040 		.word	1073764608
 302              		.cfi_endproc
 303              	.LFE4:
 304              		.size	SAR1_SetPower, .-SAR1_SetPower
 305              		.section	.text.SAR1_SetResolution,"ax",%progbits
 306              		.align	2
 307              		.global	SAR1_SetResolution
 308              		.thumb
 309              		.thumb_func
 310              		.type	SAR1_SetResolution, %function
 311              	SAR1_SetResolution:
 312              	.LFB5:
 341:.\Generated_Source\PSoC5/SAR1.c ****     uint8 tmpReg;
 313              		.loc 1 341 0
 314              		.cfi_startproc
 315              		@ args = 0, pretend = 0, frame = 0
 316              		@ frame_needed = 0, uses_anonymous_args = 0
 317              	.LVL23:
 318 0000 10B5     		push	{r4, lr}
 319              		.cfi_def_cfa_offset 8
 320              		.cfi_offset 4, -8
 321              		.cfi_offset 14, -4
ARM GAS  C:\Users\cruiser\AppData\Local\Temp\ccr3hQEq.s 			page 19


 322 0002 0446     		mov	r4, r0
 345:.\Generated_Source\PSoC5/SAR1.c ****     {
 323              		.loc 1 345 0
 324 0004 0A28     		cmp	r0, #10
 325 0006 0DD0     		beq	.L27
 326 0008 0C28     		cmp	r0, #12
 327 000a 02D0     		beq	.L25
 328 000c 0828     		cmp	r0, #8
 329 000e 04D1     		bne	.L28
 330 0010 01E0     		b	.L26
 331              	.L25:
 348:.\Generated_Source\PSoC5/SAR1.c ****             break;
 332              		.loc 1 348 0
 333 0012 C422     		movs	r2, #196
 334 0014 07E0     		b	.L24
 335              	.L26:
 336              	.LVL24:
 354:.\Generated_Source\PSoC5/SAR1.c ****             break;
 337              		.loc 1 354 0
 338 0016 4422     		movs	r2, #68
 355:.\Generated_Source\PSoC5/SAR1.c ****         default:
 339              		.loc 1 355 0
 340 0018 05E0     		b	.L24
 341              	.LVL25:
 342              	.L28:
 359:.\Generated_Source\PSoC5/SAR1.c ****             break;
 343              		.loc 1 359 0
 344 001a 0020     		movs	r0, #0
 345              	.LVL26:
 346 001c FFF7FEFF 		bl	CyHalt
 347              	.LVL27:
 357:.\Generated_Source\PSoC5/SAR1.c ****             /* Halt CPU in debug mode if resolution is out of valid range */
 348              		.loc 1 357 0
 349 0020 C422     		movs	r2, #196
 350 0022 00E0     		b	.L24
 351              	.LVL28:
 352              	.L27:
 351:.\Generated_Source\PSoC5/SAR1.c ****             break;
 353              		.loc 1 351 0
 354 0024 8422     		movs	r2, #132
 355              	.LVL29:
 356              	.L24:
 362:.\Generated_Source\PSoC5/SAR1.c **** 
 357              		.loc 1 362 0
 358 0026 034B     		ldr	r3, .L30
 359 0028 1A70     		strb	r2, [r3]
 365:.\Generated_Source\PSoC5/SAR1.c **** }
 360              		.loc 1 365 0
 361 002a 2046     		mov	r0, r4
 362 002c FFF7FEFF 		bl	SAR1_CalcGain
 363              	.LVL30:
 364 0030 10BD     		pop	{r4, pc}
 365              	.L31:
 366 0032 00BF     		.align	2
 367              	.L30:
 368 0034 02590040 		.word	1073764610
 369              		.cfi_endproc
ARM GAS  C:\Users\cruiser\AppData\Local\Temp\ccr3hQEq.s 			page 20


 370              	.LFE5:
 371              		.size	SAR1_SetResolution, .-SAR1_SetResolution
 372              		.section	.text.SAR1_Init,"ax",%progbits
 373              		.align	2
 374              		.global	SAR1_Init
 375              		.thumb
 376              		.thumb_func
 377              		.type	SAR1_Init, %function
 378              	SAR1_Init:
 379              	.LFB1:
 107:.\Generated_Source\PSoC5/SAR1.c **** 
 380              		.loc 1 107 0
 381              		.cfi_startproc
 382              		@ args = 0, pretend = 0, frame = 0
 383              		@ frame_needed = 0, uses_anonymous_args = 0
 384 0000 08B5     		push	{r3, lr}
 385              		.cfi_def_cfa_offset 8
 386              		.cfi_offset 3, -8
 387              		.cfi_offset 14, -4
 111:.\Generated_Source\PSoC5/SAR1.c ****     #endif /* End SAR1_DEFAULT_INTERNAL_CLK */
 388              		.loc 1 111 0
 389 0002 1020     		movs	r0, #16
 390 0004 FFF7FEFF 		bl	SAR1_theACLK_SetModeRegister
 391              	.LVL31:
 116:.\Generated_Source\PSoC5/SAR1.c ****         (void)CyIntSetVector(SAR1_INTC_NUMBER, &SAR1_ISR);
 392              		.loc 1 116 0
 393 0008 0120     		movs	r0, #1
 394 000a 0721     		movs	r1, #7
 395 000c FFF7FEFF 		bl	CyIntSetPriority
 396              	.LVL32:
 117:.\Generated_Source\PSoC5/SAR1.c ****     #endif   /* End SAR1_IRQ_REMOVE */
 397              		.loc 1 117 0
 398 0010 0120     		movs	r0, #1
 399 0012 0749     		ldr	r1, .L34
 400 0014 FFF7FEFF 		bl	CyIntSetVector
 401              	.LVL33:
 121:.\Generated_Source\PSoC5/SAR1.c **** 
 402              		.loc 1 121 0
 403 0018 064A     		ldr	r2, .L34+4
 404 001a 1378     		ldrb	r3, [r2]	@ zero_extendqisi2
 405 001c 43F00603 		orr	r3, r3, #6
 406 0020 1370     		strb	r3, [r2]
 124:.\Generated_Source\PSoC5/SAR1.c ****     SAR1_offset = 0;
 407              		.loc 1 124 0
 408 0022 0C20     		movs	r0, #12
 409 0024 FFF7FEFF 		bl	SAR1_SetResolution
 410              	.LVL34:
 125:.\Generated_Source\PSoC5/SAR1.c **** }
 411              		.loc 1 125 0
 412 0028 0022     		movs	r2, #0
 413 002a 034B     		ldr	r3, .L34+8
 414 002c 1A80     		strh	r2, [r3]	@ movhi
 415 002e 08BD     		pop	{r3, pc}
 416              	.L35:
 417              		.align	2
 418              	.L34:
 419 0030 00000000 		.word	SAR1_ISR
ARM GAS  C:\Users\cruiser\AppData\Local\Temp\ccr3hQEq.s 			page 21


 420 0034 01590040 		.word	1073764609
 421 0038 00000000 		.word	SAR1_offset
 422              		.cfi_endproc
 423              	.LFE1:
 424              		.size	SAR1_Init, .-SAR1_Init
 425              		.section	.text.SAR1_Start,"ax",%progbits
 426              		.align	2
 427              		.global	SAR1_Start
 428              		.thumb
 429              		.thumb_func
 430              		.type	SAR1_Start, %function
 431              	SAR1_Start:
 432              	.LFB0:
  75:.\Generated_Source\PSoC5/SAR1.c **** 
 433              		.loc 1 75 0
 434              		.cfi_startproc
 435              		@ args = 0, pretend = 0, frame = 0
 436              		@ frame_needed = 0, uses_anonymous_args = 0
 437 0000 08B5     		push	{r3, lr}
 438              		.cfi_def_cfa_offset 8
 439              		.cfi_offset 3, -8
 440              		.cfi_offset 14, -4
  78:.\Generated_Source\PSoC5/SAR1.c ****     {
 441              		.loc 1 78 0
 442 0002 054B     		ldr	r3, .L39
 443 0004 1B78     		ldrb	r3, [r3]	@ zero_extendqisi2
 444 0006 23B9     		cbnz	r3, .L37
  80:.\Generated_Source\PSoC5/SAR1.c ****         SAR1_initVar = 1u;
 445              		.loc 1 80 0
 446 0008 FFF7FEFF 		bl	SAR1_Init
 447              	.LVL35:
  81:.\Generated_Source\PSoC5/SAR1.c ****     }
 448              		.loc 1 81 0
 449 000c 0122     		movs	r2, #1
 450 000e 024B     		ldr	r3, .L39
 451 0010 1A70     		strb	r2, [r3]
 452              	.L37:
  83:.\Generated_Source\PSoC5/SAR1.c **** }
 453              		.loc 1 83 0
 454 0012 FFF7FEFF 		bl	SAR1_Enable
 455              	.LVL36:
 456 0016 08BD     		pop	{r3, pc}
 457              	.L40:
 458              		.align	2
 459              	.L39:
 460 0018 00000000 		.word	.LANCHOR0
 461              		.cfi_endproc
 462              	.LFE0:
 463              		.size	SAR1_Start, .-SAR1_Start
 464              		.section	.text.SAR1_StartConvert,"ax",%progbits
 465              		.align	2
 466              		.global	SAR1_StartConvert
 467              		.thumb
 468              		.thumb_func
 469              		.type	SAR1_StartConvert, %function
 470              	SAR1_StartConvert:
 471              	.LFB6:
ARM GAS  C:\Users\cruiser\AppData\Local\Temp\ccr3hQEq.s 			page 22


 402:.\Generated_Source\PSoC5/SAR1.c ****         #if(SAR1_DEFAULT_CONV_MODE != SAR1__FREE_RUNNING)  /* If software triggered mode */
 472              		.loc 1 402 0
 473              		.cfi_startproc
 474              		@ args = 0, pretend = 0, frame = 0
 475              		@ frame_needed = 0, uses_anonymous_args = 0
 476              		@ link register save eliminated.
 408:.\Generated_Source\PSoC5/SAR1.c ****     }
 477              		.loc 1 408 0
 478 0000 024A     		ldr	r2, .L42
 479 0002 1378     		ldrb	r3, [r2]	@ zero_extendqisi2
 480 0004 43F00103 		orr	r3, r3, #1
 481 0008 1370     		strb	r3, [r2]
 482 000a 7047     		bx	lr
 483              	.L43:
 484              		.align	2
 485              	.L42:
 486 000c 00590040 		.word	1073764608
 487              		.cfi_endproc
 488              	.LFE6:
 489              		.size	SAR1_StartConvert, .-SAR1_StartConvert
 490              		.section	.text.SAR1_StopConvert,"ax",%progbits
 491              		.align	2
 492              		.global	SAR1_StopConvert
 493              		.thumb
 494              		.thumb_func
 495              		.type	SAR1_StopConvert, %function
 496              	SAR1_StopConvert:
 497              	.LFB7:
 436:.\Generated_Source\PSoC5/SAR1.c ****         /* Stop all conversions */
 498              		.loc 1 436 0
 499              		.cfi_startproc
 500              		@ args = 0, pretend = 0, frame = 0
 501              		@ frame_needed = 0, uses_anonymous_args = 0
 502              		@ link register save eliminated.
 438:.\Generated_Source\PSoC5/SAR1.c **** 
 503              		.loc 1 438 0
 504 0000 024A     		ldr	r2, .L45
 505 0002 1378     		ldrb	r3, [r2]	@ zero_extendqisi2
 506 0004 03F0FE03 		and	r3, r3, #254
 507 0008 1370     		strb	r3, [r2]
 508 000a 7047     		bx	lr
 509              	.L46:
 510              		.align	2
 511              	.L45:
 512 000c 00590040 		.word	1073764608
 513              		.cfi_endproc
 514              	.LFE7:
 515              		.size	SAR1_StopConvert, .-SAR1_StopConvert
 516              		.section	.text.SAR1_IsEndConversion,"ax",%progbits
 517              		.align	2
 518              		.global	SAR1_IsEndConversion
 519              		.thumb
 520              		.thumb_func
 521              		.type	SAR1_IsEndConversion, %function
 522              	SAR1_IsEndConversion:
 523              	.LFB8:
 476:.\Generated_Source\PSoC5/SAR1.c ****     uint8 status;
ARM GAS  C:\Users\cruiser\AppData\Local\Temp\ccr3hQEq.s 			page 23


 524              		.loc 1 476 0
 525              		.cfi_startproc
 526              		@ args = 0, pretend = 0, frame = 0
 527              		@ frame_needed = 0, uses_anonymous_args = 0
 528              	.LVL37:
 529 0000 10B5     		push	{r4, lr}
 530              		.cfi_def_cfa_offset 8
 531              		.cfi_offset 4, -8
 532              		.cfi_offset 14, -4
 533              	.L49:
 481:.\Generated_Source\PSoC5/SAR1.c ****     } while ((status != SAR1_SAR_EOF_1) && (retMode == SAR1_WAIT_FOR_RESULT));
 534              		.loc 1 481 0 discriminator 2
 535 0002 074B     		ldr	r3, .L52
 536 0004 1B78     		ldrb	r3, [r3]	@ zero_extendqisi2
 537              	.LVL38:
 482:.\Generated_Source\PSoC5/SAR1.c ****     /* If convertion complete, wait until EOF bit released */
 538              		.loc 1 482 0 discriminator 2
 539 0006 13F00104 		ands	r4, r3, #1
 540 000a 01D1     		bne	.L48
 482:.\Generated_Source\PSoC5/SAR1.c ****     /* If convertion complete, wait until EOF bit released */
 541              		.loc 1 482 0 is_stmt 0 discriminator 1
 542 000c 0028     		cmp	r0, #0
 543 000e F8D0     		beq	.L49
 544              	.L48:
 484:.\Generated_Source\PSoC5/SAR1.c ****     {
 545              		.loc 1 484 0 is_stmt 1
 546 0010 24B1     		cbz	r4, .L50
 487:.\Generated_Source\PSoC5/SAR1.c ****         /* Do the unconditional read operation of the CSR1 register to make sure the EOC bit has be
 547              		.loc 1 487 0
 548 0012 0120     		movs	r0, #1
 549              	.LVL39:
 550 0014 FFF7FEFF 		bl	CyDelayUs
 551              	.LVL40:
 489:.\Generated_Source\PSoC5/SAR1.c ****     }
 552              		.loc 1 489 0
 553 0018 014B     		ldr	r3, .L52
 554 001a 1B78     		ldrb	r3, [r3]	@ zero_extendqisi2
 555              	.L50:
 493:.\Generated_Source\PSoC5/SAR1.c **** 
 556              		.loc 1 493 0
 557 001c 2046     		mov	r0, r4
 558 001e 10BD     		pop	{r4, pc}
 559              	.L53:
 560              		.align	2
 561              	.L52:
 562 0020 01590040 		.word	1073764609
 563              		.cfi_endproc
 564              	.LFE8:
 565              		.size	SAR1_IsEndConversion, .-SAR1_IsEndConversion
 566              		.section	.text.SAR1_GetResult8,"ax",%progbits
 567              		.align	2
 568              		.global	SAR1_GetResult8
 569              		.thumb
 570              		.thumb_func
 571              		.type	SAR1_GetResult8, %function
 572              	SAR1_GetResult8:
 573              	.LFB9:
ARM GAS  C:\Users\cruiser\AppData\Local\Temp\ccr3hQEq.s 			page 24


 521:.\Generated_Source\PSoC5/SAR1.c ****     return( (int8)SAR1_SAR_WRK0_REG - (int8)SAR1_shift);
 574              		.loc 1 521 0
 575              		.cfi_startproc
 576              		@ args = 0, pretend = 0, frame = 0
 577              		@ frame_needed = 0, uses_anonymous_args = 0
 578              		@ link register save eliminated.
 522:.\Generated_Source\PSoC5/SAR1.c **** }
 579              		.loc 1 522 0
 580 0000 034B     		ldr	r3, .L55
 581 0002 1B78     		ldrb	r3, [r3]	@ zero_extendqisi2
 582 0004 034A     		ldr	r2, .L55+4
 583 0006 1088     		ldrh	r0, [r2]
 584 0008 181A     		subs	r0, r3, r0
 523:.\Generated_Source\PSoC5/SAR1.c **** 
 585              		.loc 1 523 0
 586 000a 40B2     		sxtb	r0, r0
 587 000c 7047     		bx	lr
 588              	.L56:
 589 000e 00BF     		.align	2
 590              	.L55:
 591 0010 A05B0040 		.word	1073765280
 592 0014 00000000 		.word	SAR1_shift
 593              		.cfi_endproc
 594              	.LFE9:
 595              		.size	SAR1_GetResult8, .-SAR1_GetResult8
 596              		.section	.text.SAR1_GetResult16,"ax",%progbits
 597              		.align	2
 598              		.global	SAR1_GetResult16
 599              		.thumb
 600              		.thumb_func
 601              		.type	SAR1_GetResult16, %function
 602              	SAR1_GetResult16:
 603              	.LFB10:
 551:.\Generated_Source\PSoC5/SAR1.c ****     uint16 res;
 604              		.loc 1 551 0
 605              		.cfi_startproc
 606              		@ args = 0, pretend = 0, frame = 0
 607              		@ frame_needed = 0, uses_anonymous_args = 0
 608              		@ link register save eliminated.
 554:.\Generated_Source\PSoC5/SAR1.c **** 
 609              		.loc 1 554 0
 610 0000 034B     		ldr	r3, .L58
 611 0002 1B88     		ldrh	r3, [r3]
 612              	.LVL41:
 556:.\Generated_Source\PSoC5/SAR1.c **** }
 613              		.loc 1 556 0
 614 0004 034A     		ldr	r2, .L58+4
 615 0006 1088     		ldrh	r0, [r2]
 616 0008 181A     		subs	r0, r3, r0
 557:.\Generated_Source\PSoC5/SAR1.c **** 
 617              		.loc 1 557 0
 618 000a 00B2     		sxth	r0, r0
 619 000c 7047     		bx	lr
 620              	.L59:
 621 000e 00BF     		.align	2
 622              	.L58:
 623 0010 A05B0040 		.word	1073765280
ARM GAS  C:\Users\cruiser\AppData\Local\Temp\ccr3hQEq.s 			page 25


 624 0014 00000000 		.word	SAR1_shift
 625              		.cfi_endproc
 626              	.LFE10:
 627              		.size	SAR1_GetResult16, .-SAR1_GetResult16
 628              		.section	.text.SAR1_SetOffset,"ax",%progbits
 629              		.align	2
 630              		.global	SAR1_SetOffset
 631              		.thumb
 632              		.thumb_func
 633              		.type	SAR1_SetOffset, %function
 634              	SAR1_SetOffset:
 635              	.LFB11:
 586:.\Generated_Source\PSoC5/SAR1.c ****     SAR1_offset = offset;
 636              		.loc 1 586 0
 637              		.cfi_startproc
 638              		@ args = 0, pretend = 0, frame = 0
 639              		@ frame_needed = 0, uses_anonymous_args = 0
 640              		@ link register save eliminated.
 641              	.LVL42:
 587:.\Generated_Source\PSoC5/SAR1.c **** }
 642              		.loc 1 587 0
 643 0000 014B     		ldr	r3, .L61
 644 0002 1880     		strh	r0, [r3]	@ movhi
 645 0004 7047     		bx	lr
 646              	.L62:
 647 0006 00BF     		.align	2
 648              	.L61:
 649 0008 00000000 		.word	SAR1_offset
 650              		.cfi_endproc
 651              	.LFE11:
 652              		.size	SAR1_SetOffset, .-SAR1_SetOffset
 653              		.section	.text.SAR1_SetGain,"ax",%progbits
 654              		.align	2
 655              		.global	SAR1_SetGain
 656              		.thumb
 657              		.thumb_func
 658              		.type	SAR1_SetGain, %function
 659              	SAR1_SetGain:
 660              	.LFB13:
 667:.\Generated_Source\PSoC5/SAR1.c ****     #endif /* End SAR1_DEFAULT_RANGE */
 668:.\Generated_Source\PSoC5/SAR1.c **** }
 669:.\Generated_Source\PSoC5/SAR1.c **** 
 670:.\Generated_Source\PSoC5/SAR1.c **** 
 671:.\Generated_Source\PSoC5/SAR1.c **** /*******************************************************************************
 672:.\Generated_Source\PSoC5/SAR1.c **** * Function Name: SAR1_SetGain
 673:.\Generated_Source\PSoC5/SAR1.c **** ********************************************************************************
 674:.\Generated_Source\PSoC5/SAR1.c **** *
 675:.\Generated_Source\PSoC5/SAR1.c **** * Summary:
 676:.\Generated_Source\PSoC5/SAR1.c **** *  Sets the ADC gain in counts per volt for the voltage conversion functions
 677:.\Generated_Source\PSoC5/SAR1.c **** *  that follow. This value is set by default by the reference and input range
 678:.\Generated_Source\PSoC5/SAR1.c **** *  settings. It should only be used to further calibrate the ADC with a known
 679:.\Generated_Source\PSoC5/SAR1.c **** *  input or if the ADC is using an external reference.
 680:.\Generated_Source\PSoC5/SAR1.c **** *
 681:.\Generated_Source\PSoC5/SAR1.c **** * Parameters:
 682:.\Generated_Source\PSoC5/SAR1.c **** *  int16 adcGain counts per volt
 683:.\Generated_Source\PSoC5/SAR1.c **** *
 684:.\Generated_Source\PSoC5/SAR1.c **** * Return:
ARM GAS  C:\Users\cruiser\AppData\Local\Temp\ccr3hQEq.s 			page 26


 685:.\Generated_Source\PSoC5/SAR1.c **** *  None.
 686:.\Generated_Source\PSoC5/SAR1.c **** *
 687:.\Generated_Source\PSoC5/SAR1.c **** * Global Variables:
 688:.\Generated_Source\PSoC5/SAR1.c **** *  SAR1_countsPer10Volt variable modified. This variable is used
 689:.\Generated_Source\PSoC5/SAR1.c **** *  for gain calibration purpose.
 690:.\Generated_Source\PSoC5/SAR1.c **** *
 691:.\Generated_Source\PSoC5/SAR1.c **** *******************************************************************************/
 692:.\Generated_Source\PSoC5/SAR1.c **** void SAR1_SetGain(int16 adcGain)
 693:.\Generated_Source\PSoC5/SAR1.c **** {
 661              		.loc 1 693 0
 662              		.cfi_startproc
 663              		@ args = 0, pretend = 0, frame = 0
 664              		@ frame_needed = 0, uses_anonymous_args = 0
 665              		@ link register save eliminated.
 666              	.LVL43:
 694:.\Generated_Source\PSoC5/SAR1.c ****     SAR1_countsPer10Volt = (int32)adcGain * 10;
 667              		.loc 1 694 0
 668 0000 00EB8000 		add	r0, r0, r0, lsl #2
 669              	.LVL44:
 670 0004 4000     		lsls	r0, r0, #1
 671 0006 014B     		ldr	r3, .L64
 672 0008 1860     		str	r0, [r3]
 673 000a 7047     		bx	lr
 674              	.L65:
 675              		.align	2
 676              	.L64:
 677 000c 00000000 		.word	SAR1_countsPer10Volt
 678              		.cfi_endproc
 679              	.LFE13:
 680              		.size	SAR1_SetGain, .-SAR1_SetGain
 681              		.section	.text.SAR1_SetScaledGain,"ax",%progbits
 682              		.align	2
 683              		.global	SAR1_SetScaledGain
 684              		.thumb
 685              		.thumb_func
 686              		.type	SAR1_SetScaledGain, %function
 687              	SAR1_SetScaledGain:
 688              	.LFB14:
 695:.\Generated_Source\PSoC5/SAR1.c **** }
 696:.\Generated_Source\PSoC5/SAR1.c **** 
 697:.\Generated_Source\PSoC5/SAR1.c **** 
 698:.\Generated_Source\PSoC5/SAR1.c **** /*******************************************************************************
 699:.\Generated_Source\PSoC5/SAR1.c **** * Function Name: SAR1_SetScaledGain
 700:.\Generated_Source\PSoC5/SAR1.c **** ********************************************************************************
 701:.\Generated_Source\PSoC5/SAR1.c **** *
 702:.\Generated_Source\PSoC5/SAR1.c **** * Summary:
 703:.\Generated_Source\PSoC5/SAR1.c **** *  Sets the ADC gain in counts per 10 volt for the voltage conversion functions
 704:.\Generated_Source\PSoC5/SAR1.c **** *  that follow. This value is set by default by the reference and input range
 705:.\Generated_Source\PSoC5/SAR1.c **** *  settings. It should only be used to further calibrate the ADC with a known
 706:.\Generated_Source\PSoC5/SAR1.c **** *  input or if the ADC is using an external reference.
 707:.\Generated_Source\PSoC5/SAR1.c **** *
 708:.\Generated_Source\PSoC5/SAR1.c **** * Parameters:
 709:.\Generated_Source\PSoC5/SAR1.c **** *  int32 adcGain  counts per 10 volt
 710:.\Generated_Source\PSoC5/SAR1.c **** *
 711:.\Generated_Source\PSoC5/SAR1.c **** * Return:
 712:.\Generated_Source\PSoC5/SAR1.c **** *  None.
 713:.\Generated_Source\PSoC5/SAR1.c **** *
ARM GAS  C:\Users\cruiser\AppData\Local\Temp\ccr3hQEq.s 			page 27


 714:.\Generated_Source\PSoC5/SAR1.c **** * Global Variables:
 715:.\Generated_Source\PSoC5/SAR1.c **** *  SAR1_countsPer10Volt variable modified. This variable is used
 716:.\Generated_Source\PSoC5/SAR1.c **** *  for gain calibration purpose.
 717:.\Generated_Source\PSoC5/SAR1.c **** *
 718:.\Generated_Source\PSoC5/SAR1.c **** *******************************************************************************/
 719:.\Generated_Source\PSoC5/SAR1.c **** void SAR1_SetScaledGain(int32 adcGain)
 720:.\Generated_Source\PSoC5/SAR1.c **** {
 689              		.loc 1 720 0
 690              		.cfi_startproc
 691              		@ args = 0, pretend = 0, frame = 0
 692              		@ frame_needed = 0, uses_anonymous_args = 0
 693              		@ link register save eliminated.
 694              	.LVL45:
 721:.\Generated_Source\PSoC5/SAR1.c ****     SAR1_countsPer10Volt = adcGain;
 695              		.loc 1 721 0
 696 0000 014B     		ldr	r3, .L67
 697 0002 1860     		str	r0, [r3]
 698 0004 7047     		bx	lr
 699              	.L68:
 700 0006 00BF     		.align	2
 701              	.L67:
 702 0008 00000000 		.word	SAR1_countsPer10Volt
 703              		.cfi_endproc
 704              	.LFE14:
 705              		.size	SAR1_SetScaledGain, .-SAR1_SetScaledGain
 706              		.section	.text.SAR1_CountsTo_mVolts,"ax",%progbits
 707              		.align	2
 708              		.global	SAR1_CountsTo_mVolts
 709              		.thumb
 710              		.thumb_func
 711              		.type	SAR1_CountsTo_mVolts, %function
 712              	SAR1_CountsTo_mVolts:
 713              	.LFB15:
 722:.\Generated_Source\PSoC5/SAR1.c **** }
 723:.\Generated_Source\PSoC5/SAR1.c **** 
 724:.\Generated_Source\PSoC5/SAR1.c **** 
 725:.\Generated_Source\PSoC5/SAR1.c **** /*******************************************************************************
 726:.\Generated_Source\PSoC5/SAR1.c **** * Function Name: SAR1_CountsTo_mVolts
 727:.\Generated_Source\PSoC5/SAR1.c **** ********************************************************************************
 728:.\Generated_Source\PSoC5/SAR1.c **** *
 729:.\Generated_Source\PSoC5/SAR1.c **** * Summary:
 730:.\Generated_Source\PSoC5/SAR1.c **** *  Converts the ADC output to millivolts as a 16-bit integer.
 731:.\Generated_Source\PSoC5/SAR1.c **** *
 732:.\Generated_Source\PSoC5/SAR1.c **** * Parameters:
 733:.\Generated_Source\PSoC5/SAR1.c **** *  int16 adcCounts:  Result from the ADC conversion
 734:.\Generated_Source\PSoC5/SAR1.c **** *
 735:.\Generated_Source\PSoC5/SAR1.c **** * Return:
 736:.\Generated_Source\PSoC5/SAR1.c **** *  int16 Result in mVolts
 737:.\Generated_Source\PSoC5/SAR1.c **** *
 738:.\Generated_Source\PSoC5/SAR1.c **** * Global Variables:
 739:.\Generated_Source\PSoC5/SAR1.c **** *  SAR1_offset variable used.
 740:.\Generated_Source\PSoC5/SAR1.c **** *  SAR1_countsPer10Volt variable used.
 741:.\Generated_Source\PSoC5/SAR1.c **** *
 742:.\Generated_Source\PSoC5/SAR1.c **** *******************************************************************************/
 743:.\Generated_Source\PSoC5/SAR1.c **** int16 SAR1_CountsTo_mVolts(int16 adcCounts)
 744:.\Generated_Source\PSoC5/SAR1.c **** {
 714              		.loc 1 744 0
ARM GAS  C:\Users\cruiser\AppData\Local\Temp\ccr3hQEq.s 			page 28


 715              		.cfi_startproc
 716              		@ args = 0, pretend = 0, frame = 0
 717              		@ frame_needed = 0, uses_anonymous_args = 0
 718              		@ link register save eliminated.
 719              	.LVL46:
 745:.\Generated_Source\PSoC5/SAR1.c ****     int16 mVolts;
 746:.\Generated_Source\PSoC5/SAR1.c ****     int32 countsPer10Volt;
 747:.\Generated_Source\PSoC5/SAR1.c **** 
 748:.\Generated_Source\PSoC5/SAR1.c ****     if(SAR1_countsPerVolt != 0)
 720              		.loc 1 748 0
 721 0000 114B     		ldr	r3, .L74
 722 0002 1B88     		ldrh	r3, [r3]
 723 0004 9BB2     		uxth	r3, r3
 724 0006 33B1     		cbz	r3, .L70
 749:.\Generated_Source\PSoC5/SAR1.c ****     {   /* Support obsolete method */
 750:.\Generated_Source\PSoC5/SAR1.c ****         countsPer10Volt = (int32)SAR1_countsPerVolt * 10;
 725              		.loc 1 750 0
 726 0008 0F4B     		ldr	r3, .L74
 727 000a 1988     		ldrh	r1, [r3]
 728 000c 09B2     		sxth	r1, r1
 729 000e 01EB8101 		add	r1, r1, r1, lsl #2
 730 0012 4900     		lsls	r1, r1, #1
 731              	.LVL47:
 732 0014 01E0     		b	.L71
 733              	.LVL48:
 734              	.L70:
 751:.\Generated_Source\PSoC5/SAR1.c ****     }
 752:.\Generated_Source\PSoC5/SAR1.c ****     else
 753:.\Generated_Source\PSoC5/SAR1.c ****     {
 754:.\Generated_Source\PSoC5/SAR1.c ****         countsPer10Volt = SAR1_countsPer10Volt;
 735              		.loc 1 754 0
 736 0016 0D4B     		ldr	r3, .L74+4
 737 0018 1968     		ldr	r1, [r3]
 738              	.LVL49:
 739              	.L71:
 755:.\Generated_Source\PSoC5/SAR1.c ****     }
 756:.\Generated_Source\PSoC5/SAR1.c **** 
 757:.\Generated_Source\PSoC5/SAR1.c ****     /* Subtract ADC offset */
 758:.\Generated_Source\PSoC5/SAR1.c ****     adcCounts -= SAR1_offset;
 740              		.loc 1 758 0
 741 001a 0D4B     		ldr	r3, .L74+8
 742 001c 1A88     		ldrh	r2, [r3]
 743 001e 821A     		subs	r2, r0, r2
 744 0020 12B2     		sxth	r2, r2
 745              	.LVL50:
 759:.\Generated_Source\PSoC5/SAR1.c ****     /* Convert to millivolts with rounding */
 760:.\Generated_Source\PSoC5/SAR1.c ****     mVolts = (int16)( (( (int32)adcCounts * SAR1_10MV_COUNTS ) + ( (adcCounts > 0) ?
 746              		.loc 1 760 0
 747 0022 42F21070 		movw	r0, #10000
 748 0026 00FB02F0 		mul	r0, r0, r2
 761:.\Generated_Source\PSoC5/SAR1.c ****                        (countsPer10Volt / 2) : (-(countsPer10Volt / 2)) )) / countsPer10Volt);
 749              		.loc 1 761 0
 750 002a 002A     		cmp	r2, #0
 751 002c 03DD     		ble	.L72
 752              		.loc 1 761 0 is_stmt 0 discriminator 1
 753 002e 01EBD173 		add	r3, r1, r1, lsr #31
 754 0032 5B10     		asrs	r3, r3, #1
ARM GAS  C:\Users\cruiser\AppData\Local\Temp\ccr3hQEq.s 			page 29


 755 0034 03E0     		b	.L73
 756              	.L72:
 757              		.loc 1 761 0 discriminator 2
 758 0036 01EBD172 		add	r2, r1, r1, lsr #31
 759              	.LVL51:
 760 003a 5210     		asrs	r2, r2, #1
 761 003c 5342     		negs	r3, r2
 762              	.L73:
 760:.\Generated_Source\PSoC5/SAR1.c ****                        (countsPer10Volt / 2) : (-(countsPer10Volt / 2)) )) / countsPer10Volt);
 763              		.loc 1 760 0 is_stmt 1
 764 003e 0344     		add	r3, r3, r0
 765              		.loc 1 761 0
 766 0040 93FBF1F0 		sdiv	r0, r3, r1
 767              	.LVL52:
 762:.\Generated_Source\PSoC5/SAR1.c **** 
 763:.\Generated_Source\PSoC5/SAR1.c ****     return( mVolts );
 764:.\Generated_Source\PSoC5/SAR1.c **** }
 768              		.loc 1 764 0
 769 0044 00B2     		sxth	r0, r0
 770 0046 7047     		bx	lr
 771              	.L75:
 772              		.align	2
 773              	.L74:
 774 0048 00000000 		.word	SAR1_countsPerVolt
 775 004c 00000000 		.word	SAR1_countsPer10Volt
 776 0050 00000000 		.word	SAR1_offset
 777              		.cfi_endproc
 778              	.LFE15:
 779              		.size	SAR1_CountsTo_mVolts, .-SAR1_CountsTo_mVolts
 780              		.global	__aeabi_ldivmod
 781              		.section	.text.SAR1_CountsTo_uVolts,"ax",%progbits
 782              		.align	2
 783              		.global	SAR1_CountsTo_uVolts
 784              		.thumb
 785              		.thumb_func
 786              		.type	SAR1_CountsTo_uVolts, %function
 787              	SAR1_CountsTo_uVolts:
 788              	.LFB16:
 765:.\Generated_Source\PSoC5/SAR1.c **** 
 766:.\Generated_Source\PSoC5/SAR1.c **** 
 767:.\Generated_Source\PSoC5/SAR1.c **** /*******************************************************************************
 768:.\Generated_Source\PSoC5/SAR1.c **** * Function Name: SAR1_CountsTo_uVolts
 769:.\Generated_Source\PSoC5/SAR1.c **** ********************************************************************************
 770:.\Generated_Source\PSoC5/SAR1.c **** *
 771:.\Generated_Source\PSoC5/SAR1.c **** * Summary:
 772:.\Generated_Source\PSoC5/SAR1.c **** *  Converts the ADC output to microvolts as a 32-bit integer.
 773:.\Generated_Source\PSoC5/SAR1.c **** *
 774:.\Generated_Source\PSoC5/SAR1.c **** * Parameters:
 775:.\Generated_Source\PSoC5/SAR1.c **** *  int16 adcCounts: Result from the ADC conversion
 776:.\Generated_Source\PSoC5/SAR1.c **** *
 777:.\Generated_Source\PSoC5/SAR1.c **** * Return:
 778:.\Generated_Source\PSoC5/SAR1.c **** *  int32 Result in micro Volts
 779:.\Generated_Source\PSoC5/SAR1.c **** *
 780:.\Generated_Source\PSoC5/SAR1.c **** * Global Variables:
 781:.\Generated_Source\PSoC5/SAR1.c **** *  SAR1_offset variable used.
 782:.\Generated_Source\PSoC5/SAR1.c **** *  SAR1_countsPer10Volt used to convert ADC counts to uVolts.
 783:.\Generated_Source\PSoC5/SAR1.c **** *
ARM GAS  C:\Users\cruiser\AppData\Local\Temp\ccr3hQEq.s 			page 30


 784:.\Generated_Source\PSoC5/SAR1.c **** *******************************************************************************/
 785:.\Generated_Source\PSoC5/SAR1.c **** int32 SAR1_CountsTo_uVolts(int16 adcCounts)
 786:.\Generated_Source\PSoC5/SAR1.c **** {
 789              		.loc 1 786 0
 790              		.cfi_startproc
 791              		@ args = 0, pretend = 0, frame = 0
 792              		@ frame_needed = 0, uses_anonymous_args = 0
 793              	.LVL53:
 794 0000 38B5     		push	{r3, r4, r5, lr}
 795              		.cfi_def_cfa_offset 16
 796              		.cfi_offset 3, -16
 797              		.cfi_offset 4, -12
 798              		.cfi_offset 5, -8
 799              		.cfi_offset 14, -4
 787:.\Generated_Source\PSoC5/SAR1.c **** 
 788:.\Generated_Source\PSoC5/SAR1.c ****     int64 uVolts;
 789:.\Generated_Source\PSoC5/SAR1.c ****     int32 countsPer10Volt;
 790:.\Generated_Source\PSoC5/SAR1.c **** 
 791:.\Generated_Source\PSoC5/SAR1.c ****     if(SAR1_countsPerVolt != 0)
 800              		.loc 1 791 0
 801 0002 0D4B     		ldr	r3, .L80
 802 0004 1B88     		ldrh	r3, [r3]
 803 0006 9BB2     		uxth	r3, r3
 804 0008 33B1     		cbz	r3, .L77
 792:.\Generated_Source\PSoC5/SAR1.c ****     {   /* Support obsolete method */
 793:.\Generated_Source\PSoC5/SAR1.c ****         countsPer10Volt = (int32)SAR1_countsPerVolt * 10;
 805              		.loc 1 793 0
 806 000a 0B4B     		ldr	r3, .L80
 807 000c 1A88     		ldrh	r2, [r3]
 808 000e 12B2     		sxth	r2, r2
 809 0010 02EB8202 		add	r2, r2, r2, lsl #2
 810 0014 5200     		lsls	r2, r2, #1
 811              	.LVL54:
 812 0016 01E0     		b	.L78
 813              	.LVL55:
 814              	.L77:
 794:.\Generated_Source\PSoC5/SAR1.c ****     }
 795:.\Generated_Source\PSoC5/SAR1.c ****     else
 796:.\Generated_Source\PSoC5/SAR1.c ****     {
 797:.\Generated_Source\PSoC5/SAR1.c ****         countsPer10Volt = SAR1_countsPer10Volt;
 815              		.loc 1 797 0
 816 0018 084B     		ldr	r3, .L80+4
 817 001a 1A68     		ldr	r2, [r3]
 818              	.LVL56:
 819              	.L78:
 798:.\Generated_Source\PSoC5/SAR1.c ****     }
 799:.\Generated_Source\PSoC5/SAR1.c **** 
 800:.\Generated_Source\PSoC5/SAR1.c ****     /* Subtract ADC offset */
 801:.\Generated_Source\PSoC5/SAR1.c ****     adcCounts -= SAR1_offset;
 820              		.loc 1 801 0
 821 001c 084B     		ldr	r3, .L80+8
 822 001e 1C88     		ldrh	r4, [r3]
 823              	.LVL57:
 802:.\Generated_Source\PSoC5/SAR1.c ****     /* To convert adcCounts to microVolts it is required to be multiplied
 803:.\Generated_Source\PSoC5/SAR1.c ****     *  on 10 million and later divide on gain in counts per 10V.
 804:.\Generated_Source\PSoC5/SAR1.c ****     */
 805:.\Generated_Source\PSoC5/SAR1.c ****     uVolts = (( (int64)adcCounts * SAR1_10UV_COUNTS ) / countsPer10Volt);
ARM GAS  C:\Users\cruiser\AppData\Local\Temp\ccr3hQEq.s 			page 31


 824              		.loc 1 805 0
 825 0020 041B     		subs	r4, r0, r4
 826              	.LVL58:
 827 0022 24B2     		sxth	r4, r4
 828 0024 E517     		asrs	r5, r4, #31
 829 0026 074B     		ldr	r3, .L80+12
 830 0028 A4FB0301 		umull	r0, r1, r4, r3
 831 002c 03FB0511 		mla	r1, r3, r5, r1
 832 0030 D317     		asrs	r3, r2, #31
 833 0032 FFF7FEFF 		bl	__aeabi_ldivmod
 834              	.LVL59:
 806:.\Generated_Source\PSoC5/SAR1.c **** 
 807:.\Generated_Source\PSoC5/SAR1.c ****     return( uVolts );
 808:.\Generated_Source\PSoC5/SAR1.c **** }
 835              		.loc 1 808 0
 836 0036 38BD     		pop	{r3, r4, r5, pc}
 837              	.L81:
 838              		.align	2
 839              	.L80:
 840 0038 00000000 		.word	SAR1_countsPerVolt
 841 003c 00000000 		.word	SAR1_countsPer10Volt
 842 0040 00000000 		.word	SAR1_offset
 843 0044 80969800 		.word	10000000
 844              		.cfi_endproc
 845              	.LFE16:
 846              		.size	SAR1_CountsTo_uVolts, .-SAR1_CountsTo_uVolts
 847              		.global	__aeabi_i2f
 848              		.global	__aeabi_fmul
 849              		.global	__aeabi_fdiv
 850              		.section	.text.SAR1_CountsTo_Volts,"ax",%progbits
 851              		.align	2
 852              		.global	SAR1_CountsTo_Volts
 853              		.thumb
 854              		.thumb_func
 855              		.type	SAR1_CountsTo_Volts, %function
 856              	SAR1_CountsTo_Volts:
 857              	.LFB17:
 809:.\Generated_Source\PSoC5/SAR1.c **** 
 810:.\Generated_Source\PSoC5/SAR1.c **** 
 811:.\Generated_Source\PSoC5/SAR1.c **** /*******************************************************************************
 812:.\Generated_Source\PSoC5/SAR1.c **** * Function Name: SAR1_CountsTo_Volts
 813:.\Generated_Source\PSoC5/SAR1.c **** ********************************************************************************
 814:.\Generated_Source\PSoC5/SAR1.c **** *
 815:.\Generated_Source\PSoC5/SAR1.c **** * Summary:
 816:.\Generated_Source\PSoC5/SAR1.c **** *  Converts the ADC output to volts as a floating-point number.
 817:.\Generated_Source\PSoC5/SAR1.c **** *
 818:.\Generated_Source\PSoC5/SAR1.c **** * Parameters:
 819:.\Generated_Source\PSoC5/SAR1.c **** *  int16 adcCounts: Result from the ADC conversion
 820:.\Generated_Source\PSoC5/SAR1.c **** *
 821:.\Generated_Source\PSoC5/SAR1.c **** * Return:
 822:.\Generated_Source\PSoC5/SAR1.c **** *  float Result in Volts
 823:.\Generated_Source\PSoC5/SAR1.c **** *
 824:.\Generated_Source\PSoC5/SAR1.c **** * Global Variables:
 825:.\Generated_Source\PSoC5/SAR1.c **** *  SAR1_offset variable used.
 826:.\Generated_Source\PSoC5/SAR1.c **** *  SAR1_countsPer10Volt used to convert ADC counts to Volts.
 827:.\Generated_Source\PSoC5/SAR1.c **** *
 828:.\Generated_Source\PSoC5/SAR1.c **** *******************************************************************************/
ARM GAS  C:\Users\cruiser\AppData\Local\Temp\ccr3hQEq.s 			page 32


 829:.\Generated_Source\PSoC5/SAR1.c **** float32 SAR1_CountsTo_Volts(int16 adcCounts)
 830:.\Generated_Source\PSoC5/SAR1.c **** {
 858              		.loc 1 830 0
 859              		.cfi_startproc
 860              		@ args = 0, pretend = 0, frame = 0
 861              		@ frame_needed = 0, uses_anonymous_args = 0
 862              	.LVL60:
 863 0000 38B5     		push	{r3, r4, r5, lr}
 864              		.cfi_def_cfa_offset 16
 865              		.cfi_offset 3, -16
 866              		.cfi_offset 4, -12
 867              		.cfi_offset 5, -8
 868              		.cfi_offset 14, -4
 831:.\Generated_Source\PSoC5/SAR1.c ****     float32 volts;
 832:.\Generated_Source\PSoC5/SAR1.c ****     int32 countsPer10Volt;
 833:.\Generated_Source\PSoC5/SAR1.c **** 
 834:.\Generated_Source\PSoC5/SAR1.c ****     if(SAR1_countsPerVolt != 0)
 869              		.loc 1 834 0
 870 0002 0F4B     		ldr	r3, .L86
 871 0004 1B88     		ldrh	r3, [r3]
 872 0006 9BB2     		uxth	r3, r3
 873 0008 33B1     		cbz	r3, .L83
 835:.\Generated_Source\PSoC5/SAR1.c ****     {   /* Support obsolete method */
 836:.\Generated_Source\PSoC5/SAR1.c ****         countsPer10Volt = (int32)SAR1_countsPerVolt * 10;
 874              		.loc 1 836 0
 875 000a 0D4B     		ldr	r3, .L86
 876 000c 1C88     		ldrh	r4, [r3]
 877 000e 24B2     		sxth	r4, r4
 878 0010 04EB8404 		add	r4, r4, r4, lsl #2
 879 0014 6400     		lsls	r4, r4, #1
 880              	.LVL61:
 881 0016 01E0     		b	.L84
 882              	.LVL62:
 883              	.L83:
 837:.\Generated_Source\PSoC5/SAR1.c ****     }
 838:.\Generated_Source\PSoC5/SAR1.c ****     else
 839:.\Generated_Source\PSoC5/SAR1.c ****     {
 840:.\Generated_Source\PSoC5/SAR1.c ****         countsPer10Volt = SAR1_countsPer10Volt;
 884              		.loc 1 840 0
 885 0018 0A4B     		ldr	r3, .L86+4
 886 001a 1C68     		ldr	r4, [r3]
 887              	.LVL63:
 888              	.L84:
 841:.\Generated_Source\PSoC5/SAR1.c ****     }
 842:.\Generated_Source\PSoC5/SAR1.c **** 
 843:.\Generated_Source\PSoC5/SAR1.c ****     /* Subtract ADC offset */
 844:.\Generated_Source\PSoC5/SAR1.c ****     adcCounts -= SAR1_offset;
 889              		.loc 1 844 0
 890 001c 0A4B     		ldr	r3, .L86+8
 891 001e 1B88     		ldrh	r3, [r3]
 892 0020 C01A     		subs	r0, r0, r3
 893              	.LVL64:
 845:.\Generated_Source\PSoC5/SAR1.c **** 
 846:.\Generated_Source\PSoC5/SAR1.c ****     volts = ((float32)adcCounts * SAR1_10V_COUNTS) / (float32)countsPer10Volt;
 894              		.loc 1 846 0
 895 0022 00B2     		sxth	r0, r0
 896 0024 FFF7FEFF 		bl	__aeabi_i2f
ARM GAS  C:\Users\cruiser\AppData\Local\Temp\ccr3hQEq.s 			page 33


 897              	.LVL65:
 898 0028 0849     		ldr	r1, .L86+12
 899 002a FFF7FEFF 		bl	__aeabi_fmul
 900              	.LVL66:
 901 002e 0546     		mov	r5, r0
 902 0030 2046     		mov	r0, r4
 903 0032 FFF7FEFF 		bl	__aeabi_i2f
 904              	.LVL67:
 905 0036 0146     		mov	r1, r0
 906 0038 2846     		mov	r0, r5
 907 003a FFF7FEFF 		bl	__aeabi_fdiv
 908              	.LVL68:
 847:.\Generated_Source\PSoC5/SAR1.c **** 
 848:.\Generated_Source\PSoC5/SAR1.c ****     return( volts );
 849:.\Generated_Source\PSoC5/SAR1.c **** }
 909              		.loc 1 849 0
 910 003e 38BD     		pop	{r3, r4, r5, pc}
 911              	.LVL69:
 912              	.L87:
 913              		.align	2
 914              	.L86:
 915 0040 00000000 		.word	SAR1_countsPerVolt
 916 0044 00000000 		.word	SAR1_countsPer10Volt
 917 0048 00000000 		.word	SAR1_offset
 918 004c 00002041 		.word	1092616192
 919              		.cfi_endproc
 920              	.LFE17:
 921              		.size	SAR1_CountsTo_Volts, .-SAR1_CountsTo_Volts
 922              		.comm	SAR1_shift,2,2
 923              		.comm	SAR1_countsPer10Volt,4,4
 924              		.comm	SAR1_countsPerVolt,2,2
 925              		.comm	SAR1_offset,2,2
 926              		.global	SAR1_initVar
 927              		.bss
 928              		.set	.LANCHOR0,. + 0
 929              		.type	SAR1_initVar, %object
 930              		.size	SAR1_initVar, 1
 931              	SAR1_initVar:
 932 0000 00       		.space	1
 933              		.text
 934              	.Letext0:
 935              		.file 2 ".\\Generated_Source\\PSoC5\\cytypes.h"
 936              		.file 3 ".\\Generated_Source\\PSoC5\\CyLib.h"
 937              		.file 4 ".\\Generated_Source\\PSoC5\\SAR1_theACLK.h"