ARM GAS  C:\Users\cruiser\AppData\Local\Temp\ccuzCjJP.s 			page 1


   1              		.syntax unified
   2              		.cpu cortex-m3
   3              		.fpu softvfp
   4              		.eabi_attribute 20, 1
   5              		.eabi_attribute 21, 1
   6              		.eabi_attribute 23, 3
   7              		.eabi_attribute 24, 1
   8              		.eabi_attribute 25, 1
   9              		.eabi_attribute 26, 1
  10              		.eabi_attribute 30, 1
  11              		.eabi_attribute 34, 1
  12              		.eabi_attribute 18, 4
  13              		.thumb
  14              		.file	"ShiftBy2_1_ShiftBy2.c"
  15              		.text
  16              	.Ltext0:
  17              		.cfi_sections	.debug_frame
  18              		.section	.text.ShiftBy2_1_SetInput,"ax",%progbits
  19              		.align	2
  20              		.global	ShiftBy2_1_SetInput
  21              		.thumb
  22              		.thumb_func
  23              		.type	ShiftBy2_1_SetInput, %function
  24              	ShiftBy2_1_SetInput:
  25              	.LFB0:
  26              		.file 1 ".\\Generated_Source\\PSoC5\\ShiftBy2_1_ShiftBy2.c"
   1:.\Generated_Source\PSoC5/ShiftBy2_1_ShiftBy2.c **** /* ========================================
   2:.\Generated_Source\PSoC5/ShiftBy2_1_ShiftBy2.c ****  *
   3:.\Generated_Source\PSoC5/ShiftBy2_1_ShiftBy2.c ****  * Jay Lin
   4:.\Generated_Source\PSoC5/ShiftBy2_1_ShiftBy2.c ****  * Copyright ALCH3MY, 2016
   5:.\Generated_Source\PSoC5/ShiftBy2_1_ShiftBy2.c ****  * All Rights Reserved
   6:.\Generated_Source\PSoC5/ShiftBy2_1_ShiftBy2.c ****  * UNPUBLISHED, LICENSED SOFTWARE.
   7:.\Generated_Source\PSoC5/ShiftBy2_1_ShiftBy2.c ****  *
   8:.\Generated_Source\PSoC5/ShiftBy2_1_ShiftBy2.c ****  * CONFIDENTIAL AND PROPRIETARY INFORMATION
   9:.\Generated_Source\PSoC5/ShiftBy2_1_ShiftBy2.c ****  * WHICH IS THE PROPERTY OF ALCH3MY.
  10:.\Generated_Source\PSoC5/ShiftBy2_1_ShiftBy2.c ****  *
  11:.\Generated_Source\PSoC5/ShiftBy2_1_ShiftBy2.c ****  * ========================================
  12:.\Generated_Source\PSoC5/ShiftBy2_1_ShiftBy2.c **** */
  13:.\Generated_Source\PSoC5/ShiftBy2_1_ShiftBy2.c **** 
  14:.\Generated_Source\PSoC5/ShiftBy2_1_ShiftBy2.c **** #include "cytypes.h" 
  15:.\Generated_Source\PSoC5/ShiftBy2_1_ShiftBy2.c **** #include "ShiftBy2_1_ShiftBy2.h" 
  16:.\Generated_Source\PSoC5/ShiftBy2_1_ShiftBy2.c **** #include "ShiftBy2_1_defs.h" 
  17:.\Generated_Source\PSoC5/ShiftBy2_1_ShiftBy2.c ****  
  18:.\Generated_Source\PSoC5/ShiftBy2_1_ShiftBy2.c **** void ShiftBy2_1_SetInput(uint16 val) 
  19:.\Generated_Source\PSoC5/ShiftBy2_1_ShiftBy2.c **** { 
  27              		.loc 1 19 0
  28              		.cfi_startproc
  29              		@ args = 0, pretend = 0, frame = 0
  30              		@ frame_needed = 0, uses_anonymous_args = 0
  31              		@ link register save eliminated.
  32              	.LVL0:
  20:.\Generated_Source\PSoC5/ShiftBy2_1_ShiftBy2.c ****     /* Datapath_1 is the instance name from the UDB Editor */ 
  21:.\Generated_Source\PSoC5/ShiftBy2_1_ShiftBy2.c ****     CY_SET_REG16(ShiftBy2_1_Datapath_1_A0_PTR,val);  
  33              		.loc 1 21 0
  34 0000 014B     		ldr	r3, .L2
  35 0002 1880     		strh	r0, [r3]	@ movhi
  36 0004 7047     		bx	lr
ARM GAS  C:\Users\cruiser\AppData\Local\Temp\ccuzCjJP.s 			page 2


  37              	.L3:
  38 0006 00BF     		.align	2
  39              	.L2:
  40 0008 106A0040 		.word	1073768976
  41              		.cfi_endproc
  42              	.LFE0:
  43              		.size	ShiftBy2_1_SetInput, .-ShiftBy2_1_SetInput
  44              		.section	.text.ShiftBy2_1_GetInput,"ax",%progbits
  45              		.align	2
  46              		.global	ShiftBy2_1_GetInput
  47              		.thumb
  48              		.thumb_func
  49              		.type	ShiftBy2_1_GetInput, %function
  50              	ShiftBy2_1_GetInput:
  51              	.LFB1:
  22:.\Generated_Source\PSoC5/ShiftBy2_1_ShiftBy2.c **** } 
  23:.\Generated_Source\PSoC5/ShiftBy2_1_ShiftBy2.c ****  
  24:.\Generated_Source\PSoC5/ShiftBy2_1_ShiftBy2.c **** uint16 ShiftBy2_1_GetInput() 
  25:.\Generated_Source\PSoC5/ShiftBy2_1_ShiftBy2.c **** { 
  52              		.loc 1 25 0
  53              		.cfi_startproc
  54              		@ args = 0, pretend = 0, frame = 0
  55              		@ frame_needed = 0, uses_anonymous_args = 0
  56              		@ link register save eliminated.
  26:.\Generated_Source\PSoC5/ShiftBy2_1_ShiftBy2.c ****     return CY_GET_REG16(ShiftBy2_1_Datapath_1_A0_PTR); 
  57              		.loc 1 26 0
  58 0000 014B     		ldr	r3, .L5
  59 0002 1888     		ldrh	r0, [r3]
  27:.\Generated_Source\PSoC5/ShiftBy2_1_ShiftBy2.c **** } 
  60              		.loc 1 27 0
  61 0004 80B2     		uxth	r0, r0
  62 0006 7047     		bx	lr
  63              	.L6:
  64              		.align	2
  65              	.L5:
  66 0008 106A0040 		.word	1073768976
  67              		.cfi_endproc
  68              	.LFE1:
  69              		.size	ShiftBy2_1_GetInput, .-ShiftBy2_1_GetInput
  70              		.section	.text.ShiftBy2_1_GetOutput,"ax",%progbits
  71              		.align	2
  72              		.global	ShiftBy2_1_GetOutput
  73              		.thumb
  74              		.thumb_func
  75              		.type	ShiftBy2_1_GetOutput, %function
  76              	ShiftBy2_1_GetOutput:
  77              	.LFB2:
  28:.\Generated_Source\PSoC5/ShiftBy2_1_ShiftBy2.c ****  
  29:.\Generated_Source\PSoC5/ShiftBy2_1_ShiftBy2.c **** uint16 ShiftBy2_1_GetOutput(void) 
  30:.\Generated_Source\PSoC5/ShiftBy2_1_ShiftBy2.c **** { 
  78              		.loc 1 30 0
  79              		.cfi_startproc
  80              		@ args = 0, pretend = 0, frame = 0
  81              		@ frame_needed = 0, uses_anonymous_args = 0
  82              		@ link register save eliminated.
  31:.\Generated_Source\PSoC5/ShiftBy2_1_ShiftBy2.c ****     return CY_GET_REG16(ShiftBy2_1_Datapath_1_A1_PTR); 
  83              		.loc 1 31 0
ARM GAS  C:\Users\cruiser\AppData\Local\Temp\ccuzCjJP.s 			page 3


  84 0000 014B     		ldr	r3, .L8
  85 0002 1888     		ldrh	r0, [r3]
  32:.\Generated_Source\PSoC5/ShiftBy2_1_ShiftBy2.c **** } 
  86              		.loc 1 32 0
  87 0004 80B2     		uxth	r0, r0
  88 0006 7047     		bx	lr
  89              	.L9:
  90              		.align	2
  91              	.L8:
  92 0008 306A0040 		.word	1073769008
  93              		.cfi_endproc
  94              	.LFE2:
  95              		.size	ShiftBy2_1_GetOutput, .-ShiftBy2_1_GetOutput
  96              		.text
  97              	.Letext0:
  98              		.file 2 ".\\Generated_Source\\PSoC5\\cytypes.h"