ARM GAS  C:\Users\cruiser\AppData\Local\Temp\cc8SekaC.s 			page 1


   1              		.syntax unified
   2              		.cpu cortex-m3
   3              		.fpu softvfp
   4              		.eabi_attribute 20, 1
   5              		.eabi_attribute 21, 1
   6              		.eabi_attribute 23, 3
   7              		.eabi_attribute 24, 1
   8              		.eabi_attribute 25, 1
   9              		.eabi_attribute 26, 1
  10              		.eabi_attribute 30, 1
  11              		.eabi_attribute 34, 1
  12              		.eabi_attribute 18, 4
  13              		.thumb
  14              		.file	"USB.c"
  15              		.text
  16              	.Ltext0:
  17              		.cfi_sections	.debug_frame
  18              		.section	.text.USB_Init,"ax",%progbits
  19              		.align	2
  20              		.global	USB_Init
  21              		.thumb
  22              		.thumb_func
  23              		.type	USB_Init, %function
  24              	USB_Init:
  25              	.LFB1:
  26              		.file 1 ".\\Generated_Source\\PSoC5\\USB.c"
   1:.\Generated_Source\PSoC5/USB.c **** /***************************************************************************//**
   2:.\Generated_Source\PSoC5/USB.c **** * \file USB.c
   3:.\Generated_Source\PSoC5/USB.c **** * \version 3.0
   4:.\Generated_Source\PSoC5/USB.c **** *
   5:.\Generated_Source\PSoC5/USB.c **** * \brief
   6:.\Generated_Source\PSoC5/USB.c **** *  This file contains the global USBFS API functions.
   7:.\Generated_Source\PSoC5/USB.c **** *
   8:.\Generated_Source\PSoC5/USB.c **** * Note:
   9:.\Generated_Source\PSoC5/USB.c **** *  Many of the functions use an endpoint number. SRAM arrays are sized with 9
  10:.\Generated_Source\PSoC5/USB.c **** *  elements, so they are indexed directly by epNumber.  The SIE and ARB
  11:.\Generated_Source\PSoC5/USB.c **** *  registers are indexed by variations of epNumber - 1.
  12:.\Generated_Source\PSoC5/USB.c **** *
  13:.\Generated_Source\PSoC5/USB.c **** ********************************************************************************
  14:.\Generated_Source\PSoC5/USB.c **** * \copyright
  15:.\Generated_Source\PSoC5/USB.c **** * Copyright 2008-2015, Cypress Semiconductor Corporation.  All rights reserved.
  16:.\Generated_Source\PSoC5/USB.c **** * You may use this file only in accordance with the license, terms, conditions,
  17:.\Generated_Source\PSoC5/USB.c **** * disclaimers, and limitations in the end user license agreement accompanying
  18:.\Generated_Source\PSoC5/USB.c **** * the software package with which this file was provided.
  19:.\Generated_Source\PSoC5/USB.c **** *******************************************************************************/
  20:.\Generated_Source\PSoC5/USB.c **** 
  21:.\Generated_Source\PSoC5/USB.c **** #include "USB_pvt.h"
  22:.\Generated_Source\PSoC5/USB.c **** #include "USB_cydmac.h"
  23:.\Generated_Source\PSoC5/USB.c **** #include "USB_hid.h"
  24:.\Generated_Source\PSoC5/USB.c **** 
  25:.\Generated_Source\PSoC5/USB.c **** 
  26:.\Generated_Source\PSoC5/USB.c **** /***************************************
  27:.\Generated_Source\PSoC5/USB.c **** * Global data allocation
  28:.\Generated_Source\PSoC5/USB.c **** ***************************************/
  29:.\Generated_Source\PSoC5/USB.c **** 
  30:.\Generated_Source\PSoC5/USB.c **** /** Indicates whether the USBFS has been initialized. The variable is
  31:.\Generated_Source\PSoC5/USB.c **** * initialized to 0 after device reset and set to 1 the first time USBFS_Start()
ARM GAS  C:\Users\cruiser\AppData\Local\Temp\cc8SekaC.s 			page 2


  32:.\Generated_Source\PSoC5/USB.c **** * is called. This allows the Component to restart without reinitialization after
  33:.\Generated_Source\PSoC5/USB.c **** * the first call to the USBFS_Start() routine.
  34:.\Generated_Source\PSoC5/USB.c **** * If re-initialization of the Component is required, the variable should be set
  35:.\Generated_Source\PSoC5/USB.c **** * to 0 before the USBFS_Start() routine is called. Alternatively, the USBFS can
  36:.\Generated_Source\PSoC5/USB.c **** * be reinitialized by calling both USBFS_Init() and USBFS_InitComponent()
  37:.\Generated_Source\PSoC5/USB.c **** * functions.
  38:.\Generated_Source\PSoC5/USB.c **** */
  39:.\Generated_Source\PSoC5/USB.c **** uint8 USB_initVar = 0u;
  40:.\Generated_Source\PSoC5/USB.c **** 
  41:.\Generated_Source\PSoC5/USB.c **** #if (USB_EP_MANAGEMENT_DMA)
  42:.\Generated_Source\PSoC5/USB.c ****     #if (CY_PSOC4)
  43:.\Generated_Source\PSoC5/USB.c ****         static void USB_InitEpDma(void);
  44:.\Generated_Source\PSoC5/USB.c **** 
  45:.\Generated_Source\PSoC5/USB.c ****         /* DMA chanels assigend for endpoints. */
  46:.\Generated_Source\PSoC5/USB.c ****         const uint8 USB_DmaChan[USB_MAX_EP] =
  47:.\Generated_Source\PSoC5/USB.c ****         {
  48:.\Generated_Source\PSoC5/USB.c ****             0u,
  49:.\Generated_Source\PSoC5/USB.c ****             0u,
  50:.\Generated_Source\PSoC5/USB.c ****             0u,
  51:.\Generated_Source\PSoC5/USB.c ****             0u,
  52:.\Generated_Source\PSoC5/USB.c ****             0u,
  53:.\Generated_Source\PSoC5/USB.c ****             0u,
  54:.\Generated_Source\PSoC5/USB.c ****             0u,
  55:.\Generated_Source\PSoC5/USB.c ****             0u,
  56:.\Generated_Source\PSoC5/USB.c ****             0u,
  57:.\Generated_Source\PSoC5/USB.c ****         };        
  58:.\Generated_Source\PSoC5/USB.c ****     #else
  59:.\Generated_Source\PSoC5/USB.c ****         /* DMA chanels assigend for endpoints. */
  60:.\Generated_Source\PSoC5/USB.c ****         uint8 USB_DmaChan[USB_MAX_EP];
  61:.\Generated_Source\PSoC5/USB.c ****         
  62:.\Generated_Source\PSoC5/USB.c ****         /* DMA TDs require for PSoC 3/5LP operation. */
  63:.\Generated_Source\PSoC5/USB.c ****         uint8 USB_DmaTd[USB_MAX_EP];
  64:.\Generated_Source\PSoC5/USB.c ****     #endif /* (CY_PSOC4) */
  65:.\Generated_Source\PSoC5/USB.c **** #endif /* (USB_EP_MANAGEMENT_DMA) */
  66:.\Generated_Source\PSoC5/USB.c **** 
  67:.\Generated_Source\PSoC5/USB.c **** #if (USB_EP_MANAGEMENT_DMA_AUTO)
  68:.\Generated_Source\PSoC5/USB.c **** #if (CY_PSOC4)
  69:.\Generated_Source\PSoC5/USB.c ****     /* Number of DMA bursts. */
  70:.\Generated_Source\PSoC5/USB.c ****     uint8  USB_DmaEpBurstCnt   [USB_MAX_EP];
  71:.\Generated_Source\PSoC5/USB.c ****     
  72:.\Generated_Source\PSoC5/USB.c ****     /* Number of bytes to transfer in last DMA burst. */
  73:.\Generated_Source\PSoC5/USB.c ****     uint8  USB_DmaEpLastBurstEl[USB_MAX_EP];
  74:.\Generated_Source\PSoC5/USB.c **** 
  75:.\Generated_Source\PSoC5/USB.c ****     /* Storage for arrays above. */
  76:.\Generated_Source\PSoC5/USB.c ****     uint8  USB_DmaEpBurstCntBackup  [USB_MAX_EP];
  77:.\Generated_Source\PSoC5/USB.c ****     uint32 USB_DmaEpBufferAddrBackup[USB_MAX_EP];
  78:.\Generated_Source\PSoC5/USB.c ****      
  79:.\Generated_Source\PSoC5/USB.c ****     /* DMA trigger mux output for usb.dma_req[0-7]. */
  80:.\Generated_Source\PSoC5/USB.c ****     const uint8 USB_DmaReqOut[USB_MAX_EP] =
  81:.\Generated_Source\PSoC5/USB.c ****     {
  82:.\Generated_Source\PSoC5/USB.c ****         0u,
  83:.\Generated_Source\PSoC5/USB.c ****         USB_ep1_dma__TR_OUTPUT,
  84:.\Generated_Source\PSoC5/USB.c ****         0u,
  85:.\Generated_Source\PSoC5/USB.c ****         0u,
  86:.\Generated_Source\PSoC5/USB.c ****         0u,
  87:.\Generated_Source\PSoC5/USB.c ****         0u,
  88:.\Generated_Source\PSoC5/USB.c ****         0u,
ARM GAS  C:\Users\cruiser\AppData\Local\Temp\cc8SekaC.s 			page 3


  89:.\Generated_Source\PSoC5/USB.c ****         0u,
  90:.\Generated_Source\PSoC5/USB.c ****         0u,
  91:.\Generated_Source\PSoC5/USB.c ****     };
  92:.\Generated_Source\PSoC5/USB.c **** 
  93:.\Generated_Source\PSoC5/USB.c ****     /* DMA trigger mux output for usb.dma_burstend[0-7]. */
  94:.\Generated_Source\PSoC5/USB.c ****     const uint8 USB_DmaBurstEndOut[USB_MAX_EP] =
  95:.\Generated_Source\PSoC5/USB.c ****     {
  96:.\Generated_Source\PSoC5/USB.c ****         0u,
  97:.\Generated_Source\PSoC5/USB.c ****         USB_BURSTEND_0_TR_OUTPUT,
  98:.\Generated_Source\PSoC5/USB.c ****         USB_BURSTEND_1_TR_OUTPUT,
  99:.\Generated_Source\PSoC5/USB.c ****         USB_BURSTEND_2_TR_OUTPUT,
 100:.\Generated_Source\PSoC5/USB.c ****         USB_BURSTEND_3_TR_OUTPUT,
 101:.\Generated_Source\PSoC5/USB.c ****         USB_BURSTEND_4_TR_OUTPUT,
 102:.\Generated_Source\PSoC5/USB.c ****         USB_BURSTEND_5_TR_OUTPUT,
 103:.\Generated_Source\PSoC5/USB.c ****         USB_BURSTEND_6_TR_OUTPUT,
 104:.\Generated_Source\PSoC5/USB.c ****         USB_BURSTEND_7_TR_OUTPUT
 105:.\Generated_Source\PSoC5/USB.c ****     };
 106:.\Generated_Source\PSoC5/USB.c ****     
 107:.\Generated_Source\PSoC5/USB.c **** #else
 108:.\Generated_Source\PSoC5/USB.c ****     #if (USB_EP_DMA_AUTO_OPT == 0u)
 109:.\Generated_Source\PSoC5/USB.c ****         static uint8 clearInDataRdyStatus = USB_ARB_EPX_CFG_DEFAULT;
 110:.\Generated_Source\PSoC5/USB.c ****         uint8 USB_DmaNextTd[USB_MAX_EP];
 111:.\Generated_Source\PSoC5/USB.c ****         const uint8 USB_epX_TD_TERMOUT_EN[USB_MAX_EP] =
 112:.\Generated_Source\PSoC5/USB.c ****         {
 113:.\Generated_Source\PSoC5/USB.c ****             0u,
 114:.\Generated_Source\PSoC5/USB.c ****             0u,
 115:.\Generated_Source\PSoC5/USB.c ****             0u,
 116:.\Generated_Source\PSoC5/USB.c ****             0u,
 117:.\Generated_Source\PSoC5/USB.c ****             0u,
 118:.\Generated_Source\PSoC5/USB.c ****             0u,
 119:.\Generated_Source\PSoC5/USB.c ****             0u,
 120:.\Generated_Source\PSoC5/USB.c ****             0u,
 121:.\Generated_Source\PSoC5/USB.c ****             0u,
 122:.\Generated_Source\PSoC5/USB.c ****         };
 123:.\Generated_Source\PSoC5/USB.c **** 
 124:.\Generated_Source\PSoC5/USB.c ****         volatile uint16 USB_inLength[USB_MAX_EP];
 125:.\Generated_Source\PSoC5/USB.c ****         const uint8 *USB_inDataPointer[USB_MAX_EP];
 126:.\Generated_Source\PSoC5/USB.c ****         volatile uint8 USB_inBufFull[USB_MAX_EP];
 127:.\Generated_Source\PSoC5/USB.c ****     #endif /* (USB_EP_DMA_AUTO_OPT == 0u) */
 128:.\Generated_Source\PSoC5/USB.c **** #endif /* (CY_PSOC4) */
 129:.\Generated_Source\PSoC5/USB.c **** #endif /* (USB_EP_MANAGEMENT_DMA_AUTO) */
 130:.\Generated_Source\PSoC5/USB.c **** 
 131:.\Generated_Source\PSoC5/USB.c **** 
 132:.\Generated_Source\PSoC5/USB.c **** /*******************************************************************************
 133:.\Generated_Source\PSoC5/USB.c **** * Function Name: USB_Start
 134:.\Generated_Source\PSoC5/USB.c **** ****************************************************************************//**
 135:.\Generated_Source\PSoC5/USB.c **** *
 136:.\Generated_Source\PSoC5/USB.c **** *   This function performs all required initialization for the USBFS component.
 137:.\Generated_Source\PSoC5/USB.c **** *   After this function call, the USB device initiates communication with the
 138:.\Generated_Source\PSoC5/USB.c **** *   host by pull-up D+ line. This is the preferred method to begin component
 139:.\Generated_Source\PSoC5/USB.c **** *   operation.
 140:.\Generated_Source\PSoC5/USB.c **** *
 141:.\Generated_Source\PSoC5/USB.c **** *   Note that global interrupts have to be enabled because interrupts are
 142:.\Generated_Source\PSoC5/USB.c **** *   required for USBFS component operation.
 143:.\Generated_Source\PSoC5/USB.c **** *
 144:.\Generated_Source\PSoC5/USB.c **** *   PSoC 4200L devices: when USBFS component configured to DMA with Automatic
 145:.\Generated_Source\PSoC5/USB.c **** *   Buffer Management, the DMA interrupt priority is changed to the highest
ARM GAS  C:\Users\cruiser\AppData\Local\Temp\cc8SekaC.s 			page 4


 146:.\Generated_Source\PSoC5/USB.c **** *   (priority 0) inside this function.
 147:.\Generated_Source\PSoC5/USB.c **** *
 148:.\Generated_Source\PSoC5/USB.c **** *   PSoC 3/PSoC 5LP devices: when USBFS component configured to DMA with
 149:.\Generated_Source\PSoC5/USB.c **** *   Automatic Buffer Management, the Arbiter interrupt priority is changed to
 150:.\Generated_Source\PSoC5/USB.c **** *   the highest (priority 0) inside this function.
 151:.\Generated_Source\PSoC5/USB.c **** *
 152:.\Generated_Source\PSoC5/USB.c **** *  \param device
 153:.\Generated_Source\PSoC5/USB.c **** *          Contains the device number of the desired device descriptor.
 154:.\Generated_Source\PSoC5/USB.c **** *          The device number can be found in the Device Descriptor Tab of
 155:.\Generated_Source\PSoC5/USB.c **** *          "Configure" dialog, under the settings of desired Device Descriptor,
 156:.\Generated_Source\PSoC5/USB.c **** *          in the "Device Number" field.
 157:.\Generated_Source\PSoC5/USB.c **** *  \param mode:
 158:.\Generated_Source\PSoC5/USB.c **** *   The operating voltage. This determines whether the voltage regulator
 159:.\Generated_Source\PSoC5/USB.c **** *   is enabled for 5V operation or if pass through mode is used for 3.3V
 160:.\Generated_Source\PSoC5/USB.c **** *   operation. Symbolic names and their associated values are given in the
 161:.\Generated_Source\PSoC5/USB.c **** *   following list.
 162:.\Generated_Source\PSoC5/USB.c **** *
 163:.\Generated_Source\PSoC5/USB.c **** *       *USB_3V_OPERATION* - Disable voltage regulator and pass-
 164:.\Generated_Source\PSoC5/USB.c **** *                                      through Vcc for pull-up
 165:.\Generated_Source\PSoC5/USB.c **** *
 166:.\Generated_Source\PSoC5/USB.c **** *       *USB_5V_OPERATION* - Enable voltage regulator and use
 167:.\Generated_Source\PSoC5/USB.c **** *                                      regulator for pull-up
 168:.\Generated_Source\PSoC5/USB.c **** *
 169:.\Generated_Source\PSoC5/USB.c **** *       *USB_DWR_POWER_OPERATION* - Enable or disable the voltage
 170:.\Generated_Source\PSoC5/USB.c **** *                                      regulator depending on the power supply
 171:.\Generated_Source\PSoC5/USB.c **** *                                      voltage configuration in the DWR tab.
 172:.\Generated_Source\PSoC5/USB.c **** *                                      For PSoC 3/5LP devices, the VDDD supply
 173:.\Generated_Source\PSoC5/USB.c **** *                                      voltage is considered and for PSoC 4A-L,
 174:.\Generated_Source\PSoC5/USB.c **** *                                      the VBUS supply voltage is considered.*
 175:.\Generated_Source\PSoC5/USB.c **** * \globalvars
 176:.\Generated_Source\PSoC5/USB.c **** *  \ref USB_initVar
 177:.\Generated_Source\PSoC5/USB.c **** *
 178:.\Generated_Source\PSoC5/USB.c **** * \sideeffect
 179:.\Generated_Source\PSoC5/USB.c **** *   This function will reset all communication states to default.
 180:.\Generated_Source\PSoC5/USB.c **** *
 181:.\Generated_Source\PSoC5/USB.c **** * \reentrant
 182:.\Generated_Source\PSoC5/USB.c **** *  No.
 183:.\Generated_Source\PSoC5/USB.c **** *
 184:.\Generated_Source\PSoC5/USB.c **** *******************************************************************************/
 185:.\Generated_Source\PSoC5/USB.c **** void USB_Start(uint8 device, uint8 mode) 
 186:.\Generated_Source\PSoC5/USB.c **** {
 187:.\Generated_Source\PSoC5/USB.c ****     if (0u == USB_initVar)
 188:.\Generated_Source\PSoC5/USB.c ****     {
 189:.\Generated_Source\PSoC5/USB.c ****         USB_Init();
 190:.\Generated_Source\PSoC5/USB.c ****         USB_initVar = 1u;
 191:.\Generated_Source\PSoC5/USB.c ****     }
 192:.\Generated_Source\PSoC5/USB.c **** 
 193:.\Generated_Source\PSoC5/USB.c ****     USB_InitComponent(device, mode);
 194:.\Generated_Source\PSoC5/USB.c **** }
 195:.\Generated_Source\PSoC5/USB.c **** 
 196:.\Generated_Source\PSoC5/USB.c **** 
 197:.\Generated_Source\PSoC5/USB.c **** /*******************************************************************************
 198:.\Generated_Source\PSoC5/USB.c **** * Function Name: USB_Init
 199:.\Generated_Source\PSoC5/USB.c **** ****************************************************************************//**
 200:.\Generated_Source\PSoC5/USB.c **** *
 201:.\Generated_Source\PSoC5/USB.c **** * This function initializes or restores the component according to the
 202:.\Generated_Source\PSoC5/USB.c **** * customizer Configure dialog settings. It is not necessary to call
ARM GAS  C:\Users\cruiser\AppData\Local\Temp\cc8SekaC.s 			page 5


 203:.\Generated_Source\PSoC5/USB.c **** * USB_Init() because the USB_Start() routine calls
 204:.\Generated_Source\PSoC5/USB.c **** * this function and is the preferred method to begin component operation.
 205:.\Generated_Source\PSoC5/USB.c **** *
 206:.\Generated_Source\PSoC5/USB.c **** * \reentrant
 207:.\Generated_Source\PSoC5/USB.c **** *  No.
 208:.\Generated_Source\PSoC5/USB.c **** *
 209:.\Generated_Source\PSoC5/USB.c **** *******************************************************************************/
 210:.\Generated_Source\PSoC5/USB.c **** void USB_Init(void) 
 211:.\Generated_Source\PSoC5/USB.c **** {
  27              		.loc 1 211 0
  28              		.cfi_startproc
  29              		@ args = 0, pretend = 0, frame = 0
  30              		@ frame_needed = 0, uses_anonymous_args = 0
  31 0000 F8B5     		push	{r3, r4, r5, r6, r7, lr}
  32              		.cfi_def_cfa_offset 24
  33              		.cfi_offset 3, -24
  34              		.cfi_offset 4, -20
  35              		.cfi_offset 5, -16
  36              		.cfi_offset 6, -12
  37              		.cfi_offset 7, -8
  38              		.cfi_offset 14, -4
 212:.\Generated_Source\PSoC5/USB.c **** #if (CY_PSOC4)
 213:.\Generated_Source\PSoC5/USB.c ****     /* Enable clock to USB IP. */
 214:.\Generated_Source\PSoC5/USB.c ****     USB_USB_CLK_EN_REG = USB_USB_CLK_CSR_CLK_EN;
 215:.\Generated_Source\PSoC5/USB.c **** 
 216:.\Generated_Source\PSoC5/USB.c ****     /* The internal regulator (CR1.REG_ENABLE) is enabled in
 217:.\Generated_Source\PSoC5/USB.c ****     * USB_InitComponent() if it is required.
 218:.\Generated_Source\PSoC5/USB.c ****     */
 219:.\Generated_Source\PSoC5/USB.c **** 
 220:.\Generated_Source\PSoC5/USB.c ****     /* Enable USBIO control on drive mode of D+ and D- pins. */
 221:.\Generated_Source\PSoC5/USB.c ****     USB_USBIO_CR1_REG &= ~ (uint32) USB_USBIO_CR1_IOMODE;
 222:.\Generated_Source\PSoC5/USB.c **** 
 223:.\Generated_Source\PSoC5/USB.c ****     /* Set number of LF CLK to detect UBS bus reset. */
 224:.\Generated_Source\PSoC5/USB.c ****     USB_BUS_RST_CNT_REG = USB_DEFUALT_BUS_RST_CNT;
 225:.\Generated_Source\PSoC5/USB.c **** 
 226:.\Generated_Source\PSoC5/USB.c ****     /* Select VBUS detection source and clear PHY isolate. The application level
 227:.\Generated_Source\PSoC5/USB.c ****     * must ensure that VBUS is valid. There is no need to wait 2us before VBUS is valid.
 228:.\Generated_Source\PSoC5/USB.c ****     */
 229:.\Generated_Source\PSoC5/USB.c ****     USB_POWER_CTRL_REG = USB_DEFAULT_POWER_CTRL_VBUS;
 230:.\Generated_Source\PSoC5/USB.c **** 
 231:.\Generated_Source\PSoC5/USB.c ****     /* Enable PHY detector and single-ended and differential receivers. */
 232:.\Generated_Source\PSoC5/USB.c ****     USB_POWER_CTRL_REG |= USB_DEFAULT_POWER_CTRL_PHY;
 233:.\Generated_Source\PSoC5/USB.c **** 
 234:.\Generated_Source\PSoC5/USB.c ****     /* Suspend clear sequence. */
 235:.\Generated_Source\PSoC5/USB.c ****     USB_POWER_CTRL_REG &= (uint32) ~USB_POWER_CTRL_SUSPEND;
 236:.\Generated_Source\PSoC5/USB.c ****     CyDelayUs(USB_WAIT_SUSPEND_DEL_DISABLE);
 237:.\Generated_Source\PSoC5/USB.c ****     USB_POWER_CTRL_REG &= (uint32) ~USB_POWER_CTRL_SUSPEND_DEL;
 238:.\Generated_Source\PSoC5/USB.c **** 
 239:.\Generated_Source\PSoC5/USB.c ****     /* Sets IMO lock options and clear all other bits. */
 240:.\Generated_Source\PSoC5/USB.c ****     USB_CR1_REG = USB_DEFUALT_CR1;
 241:.\Generated_Source\PSoC5/USB.c **** 
 242:.\Generated_Source\PSoC5/USB.c ****     /* Configure level (hi, lo, med) for each interrupt source. */
 243:.\Generated_Source\PSoC5/USB.c ****     USB_INTR_LVL_SEL_REG = USB_DEFAULT_INTR_LVL_SEL;
 244:.\Generated_Source\PSoC5/USB.c **** 
 245:.\Generated_Source\PSoC5/USB.c ****     /* Configure interrupt sources from: SOF, Bus Reset and EP0. */
 246:.\Generated_Source\PSoC5/USB.c ****     USB_INTR_SIE_MASK_REG = USB_DEFAULT_INTR_SIE_MASK;
 247:.\Generated_Source\PSoC5/USB.c **** 
ARM GAS  C:\Users\cruiser\AppData\Local\Temp\cc8SekaC.s 			page 6


 248:.\Generated_Source\PSoC5/USB.c **** #else
 249:.\Generated_Source\PSoC5/USB.c ****     uint8 enableInterrupts = CyEnterCriticalSection();
  39              		.loc 1 249 0
  40 0002 FFF7FEFF 		bl	CyEnterCriticalSection
  41              	.LVL0:
  42 0006 0546     		mov	r5, r0
  43              	.LVL1:
 250:.\Generated_Source\PSoC5/USB.c **** 
 251:.\Generated_Source\PSoC5/USB.c **** #if (USB_EP_MANAGEMENT_DMA)
 252:.\Generated_Source\PSoC5/USB.c ****     uint16 i;
 253:.\Generated_Source\PSoC5/USB.c **** #endif /* (USB_EP_MANAGEMENT_DMA) */
 254:.\Generated_Source\PSoC5/USB.c **** 
 255:.\Generated_Source\PSoC5/USB.c ****     /* Enable USB block. */
 256:.\Generated_Source\PSoC5/USB.c ****     USB_PM_ACT_CFG_REG |= USB_PM_ACT_EN_FSUSB;
  44              		.loc 1 256 0
  45 0008 344A     		ldr	r2, .L3
  46 000a 1378     		ldrb	r3, [r2]	@ zero_extendqisi2
  47 000c 43F00103 		orr	r3, r3, #1
  48 0010 1370     		strb	r3, [r2]
 257:.\Generated_Source\PSoC5/USB.c ****     /* Enable USB block for Standby Power Mode. */
 258:.\Generated_Source\PSoC5/USB.c ****     USB_PM_STBY_CFG_REG |= USB_PM_STBY_EN_FSUSB;
  49              		.loc 1 258 0
  50 0012 1032     		adds	r2, r2, #16
  51 0014 1378     		ldrb	r3, [r2]	@ zero_extendqisi2
  52 0016 43F00103 		orr	r3, r3, #1
  53 001a 1370     		strb	r3, [r2]
 259:.\Generated_Source\PSoC5/USB.c **** 
 260:.\Generated_Source\PSoC5/USB.c ****     /* Enable core clock. */
 261:.\Generated_Source\PSoC5/USB.c ****     USB_USB_CLK_EN_REG = USB_USB_CLK_ENABLE;
  54              		.loc 1 261 0
  55 001c 0127     		movs	r7, #1
  56 001e 304B     		ldr	r3, .L3+4
  57 0020 1F70     		strb	r7, [r3]
 262:.\Generated_Source\PSoC5/USB.c **** 
 263:.\Generated_Source\PSoC5/USB.c ****     USB_CR1_REG = USB_CR1_ENABLE_LOCK;
  58              		.loc 1 263 0
  59 0022 0226     		movs	r6, #2
  60 0024 943B     		subs	r3, r3, #148
  61 0026 1E70     		strb	r6, [r3]
 264:.\Generated_Source\PSoC5/USB.c **** 
 265:.\Generated_Source\PSoC5/USB.c ****     /* ENABLING USBIO PADS IN USB MODE FROM I/O MODE. */
 266:.\Generated_Source\PSoC5/USB.c ****     /* Ensure USB transmit enable is low (USB_USBIO_CR0.ten). - Manual Transmission - Disabled. */
 267:.\Generated_Source\PSoC5/USB.c ****     USB_USBIO_CR0_REG &= (uint8) ~USB_USBIO_CR0_TEN;
  62              		.loc 1 267 0
  63 0028 02F5E252 		add	r2, r2, #7232
  64 002c 1B32     		adds	r2, r2, #27
  65 002e 1378     		ldrb	r3, [r2]	@ zero_extendqisi2
  66 0030 03F07F03 		and	r3, r3, #127
  67 0034 1370     		strb	r3, [r2]
 268:.\Generated_Source\PSoC5/USB.c ****     CyDelayUs(USB_WAIT_REG_STABILITY_50NS);  /* ~50ns delay. */
  68              		.loc 1 268 0
  69 0036 0020     		movs	r0, #0
  70 0038 FFF7FEFF 		bl	CyDelayUs
  71              	.LVL2:
 269:.\Generated_Source\PSoC5/USB.c ****     /* Disable USBIO by asserting PM.USB_CR0.fsusbio_pd_n(Inverted.
 270:.\Generated_Source\PSoC5/USB.c ****     *  high. These bits will be set low by the power manager out-of-reset.
 271:.\Generated_Source\PSoC5/USB.c ****     *  Also confirm USBIO pull-up is disabled.
ARM GAS  C:\Users\cruiser\AppData\Local\Temp\cc8SekaC.s 			page 7


 272:.\Generated_Source\PSoC5/USB.c ****     */
 273:.\Generated_Source\PSoC5/USB.c ****     USB_PM_USB_CR0_REG &= (uint8) ~(USB_PM_USB_CR0_PD_N |
  72              		.loc 1 273 0
  73 003c 294C     		ldr	r4, .L3+8
  74 003e 2378     		ldrb	r3, [r4]	@ zero_extendqisi2
  75 0040 03F0F903 		and	r3, r3, #249
  76 0044 2370     		strb	r3, [r4]
 274:.\Generated_Source\PSoC5/USB.c ****                                                  USB_PM_USB_CR0_PD_PULLUP_N);
 275:.\Generated_Source\PSoC5/USB.c **** 
 276:.\Generated_Source\PSoC5/USB.c ****     /* Select IOMODE to USB mode. */
 277:.\Generated_Source\PSoC5/USB.c ****     USB_USBIO_CR1_REG &= (uint8) ~USB_USBIO_CR1_IOMODE;
  77              		.loc 1 277 0
  78 0046 284A     		ldr	r2, .L3+12
  79 0048 1378     		ldrb	r3, [r2]	@ zero_extendqisi2
  80 004a 03F0DF03 		and	r3, r3, #223
  81 004e 1370     		strb	r3, [r2]
 278:.\Generated_Source\PSoC5/USB.c **** 
 279:.\Generated_Source\PSoC5/USB.c ****     /* Enable USBIO reference by setting PM.USB_CR0.fsusbio_ref_en. */
 280:.\Generated_Source\PSoC5/USB.c ****     USB_PM_USB_CR0_REG |= USB_PM_USB_CR0_REF_EN;
  82              		.loc 1 280 0
  83 0050 2378     		ldrb	r3, [r4]	@ zero_extendqisi2
  84 0052 3B43     		orrs	r3, r3, r7
  85 0054 2370     		strb	r3, [r4]
 281:.\Generated_Source\PSoC5/USB.c ****     /* Reference is available for 1us after regulator is enabled. */
 282:.\Generated_Source\PSoC5/USB.c ****     CyDelayUs(USB_WAIT_REG_STABILITY_1US);
  86              		.loc 1 282 0
  87 0056 3846     		mov	r0, r7
  88 0058 FFF7FEFF 		bl	CyDelayUs
  89              	.LVL3:
 283:.\Generated_Source\PSoC5/USB.c ****     /* OR 40us after power is restored. */
 284:.\Generated_Source\PSoC5/USB.c ****     CyDelayUs(USB_WAIT_VREF_RESTORE);
  90              		.loc 1 284 0
  91 005c 2820     		movs	r0, #40
  92 005e FFF7FEFF 		bl	CyDelayUs
  93              	.LVL4:
 285:.\Generated_Source\PSoC5/USB.c ****     /* Ensure single-ended disable bits are low (PRT15.INP_DIS[7:6])(input receiver enabled). */
 286:.\Generated_Source\PSoC5/USB.c ****     USB_DM_INP_DIS_REG &= (uint8) ~USB_DM_MASK;
  94              		.loc 1 286 0
  95 0062 224B     		ldr	r3, .L3+16
  96 0064 1A78     		ldrb	r2, [r3]	@ zero_extendqisi2
  97 0066 02F07F02 		and	r2, r2, #127
  98 006a 1A70     		strb	r2, [r3]
 287:.\Generated_Source\PSoC5/USB.c ****     USB_DP_INP_DIS_REG &= (uint8) ~USB_DP_MASK;
  99              		.loc 1 287 0
 100 006c 1A78     		ldrb	r2, [r3]	@ zero_extendqisi2
 101 006e 02F0BF02 		and	r2, r2, #191
 102 0072 1A70     		strb	r2, [r3]
 288:.\Generated_Source\PSoC5/USB.c **** 
 289:.\Generated_Source\PSoC5/USB.c ****     /* Enable USBIO. */
 290:.\Generated_Source\PSoC5/USB.c ****     USB_PM_USB_CR0_REG |= USB_PM_USB_CR0_PD_N;
 103              		.loc 1 290 0
 104 0074 2378     		ldrb	r3, [r4]	@ zero_extendqisi2
 105 0076 3343     		orrs	r3, r3, r6
 106 0078 2370     		strb	r3, [r4]
 291:.\Generated_Source\PSoC5/USB.c ****     CyDelayUs(USB_WAIT_PD_PULLUP_N_ENABLE);
 107              		.loc 1 291 0
 108 007a 3046     		mov	r0, r6
ARM GAS  C:\Users\cruiser\AppData\Local\Temp\cc8SekaC.s 			page 8


 109 007c FFF7FEFF 		bl	CyDelayUs
 110              	.LVL5:
 292:.\Generated_Source\PSoC5/USB.c ****     /* Set USBIO pull-up enable. */
 293:.\Generated_Source\PSoC5/USB.c ****     USB_PM_USB_CR0_REG |= USB_PM_USB_CR0_PD_PULLUP_N;
 111              		.loc 1 293 0
 112 0080 2378     		ldrb	r3, [r4]	@ zero_extendqisi2
 113 0082 43F00403 		orr	r3, r3, #4
 114 0086 2370     		strb	r3, [r4]
 294:.\Generated_Source\PSoC5/USB.c **** 
 295:.\Generated_Source\PSoC5/USB.c ****     /* Reset Arbiter Write Address register for endpoint 1. */
 296:.\Generated_Source\PSoC5/USB.c ****     CY_SET_REG8(USB_ARB_RW1_WA_PTR,     0u);
 115              		.loc 1 296 0
 116 0088 0023     		movs	r3, #0
 117 008a 194A     		ldr	r2, .L3+20
 118 008c 1370     		strb	r3, [r2]
 297:.\Generated_Source\PSoC5/USB.c ****     CY_SET_REG8(USB_ARB_RW1_WA_MSB_PTR, 0u);
 119              		.loc 1 297 0
 120 008e 0132     		adds	r2, r2, #1
 121 0090 1370     		strb	r3, [r2]
 298:.\Generated_Source\PSoC5/USB.c **** 
 299:.\Generated_Source\PSoC5/USB.c **** #if (USB_EP_MANAGEMENT_DMA)
 300:.\Generated_Source\PSoC5/USB.c ****     /* Initialize transfer descriptor. This will be used to detect DMA state - initialized or not. 
 301:.\Generated_Source\PSoC5/USB.c ****     for (i = 0u; i < USB_MAX_EP; ++i)
 302:.\Generated_Source\PSoC5/USB.c ****     {
 303:.\Generated_Source\PSoC5/USB.c ****         USB_DmaTd[i] = DMA_INVALID_TD;
 304:.\Generated_Source\PSoC5/USB.c **** 
 305:.\Generated_Source\PSoC5/USB.c ****     #if (USB_EP_MANAGEMENT_DMA_AUTO && (USB_EP_DMA_AUTO_OPT == 0u))
 306:.\Generated_Source\PSoC5/USB.c ****         USB_DmaNextTd[i] = DMA_INVALID_TD;
 307:.\Generated_Source\PSoC5/USB.c ****     #endif /* (USB_EP_MANAGEMENT_DMA_AUTO && (USB_EP_DMA_AUTO_OPT == 0u)) */
 308:.\Generated_Source\PSoC5/USB.c ****     }
 309:.\Generated_Source\PSoC5/USB.c **** #endif /* (USB_EP_MANAGEMENT_DMA) */
 310:.\Generated_Source\PSoC5/USB.c **** 
 311:.\Generated_Source\PSoC5/USB.c ****     CyExitCriticalSection(enableInterrupts);
 122              		.loc 1 311 0
 123 0092 2846     		mov	r0, r5
 124 0094 FFF7FEFF 		bl	CyExitCriticalSection
 125              	.LVL6:
 312:.\Generated_Source\PSoC5/USB.c **** #endif /* (CY_PSOC4) */
 313:.\Generated_Source\PSoC5/USB.c **** 
 314:.\Generated_Source\PSoC5/USB.c ****     /* Configure interrupts from USB block. */
 315:.\Generated_Source\PSoC5/USB.c **** #if (CY_PSOC4)
 316:.\Generated_Source\PSoC5/USB.c ****     /* Configure hi_int: set handler and priority. */
 317:.\Generated_Source\PSoC5/USB.c ****     CyIntSetPriority     (USB_INTR_HI_VECT_NUM,  USB_INTR_HI_PRIORITY);
 318:.\Generated_Source\PSoC5/USB.c ****     (void) CyIntSetVector(USB_INTR_HI_VECT_NUM, &USB_INTR_HI_ISR);
 319:.\Generated_Source\PSoC5/USB.c **** 
 320:.\Generated_Source\PSoC5/USB.c ****     /* Configure lo_int: set handler and priority. */
 321:.\Generated_Source\PSoC5/USB.c ****     CyIntSetPriority     (USB_INTR_LO_VECT_NUM,  USB_INTR_LO_PRIORITY);
 322:.\Generated_Source\PSoC5/USB.c ****     (void) CyIntSetVector(USB_INTR_LO_VECT_NUM, &USB_INTR_LO_ISR);
 323:.\Generated_Source\PSoC5/USB.c **** 
 324:.\Generated_Source\PSoC5/USB.c ****     /* Configure med_int: set handler and priority (routed through DSI). */
 325:.\Generated_Source\PSoC5/USB.c ****     CyIntSetPriority     (USB_INTR_MED_VECT_NUM,  USB_INTR_MED_PRIORITY);
 326:.\Generated_Source\PSoC5/USB.c ****     (void) CyIntSetVector(USB_INTR_MED_VECT_NUM, &USB_INTR_MED_ISR);
 327:.\Generated_Source\PSoC5/USB.c **** 
 328:.\Generated_Source\PSoC5/USB.c **** #else
 329:.\Generated_Source\PSoC5/USB.c ****     /* Set bus reset interrupt. */
 330:.\Generated_Source\PSoC5/USB.c ****     CyIntSetPriority(USB_BUS_RESET_VECT_NUM, USB_BUS_RESET_PRIOR);
 126              		.loc 1 330 0
ARM GAS  C:\Users\cruiser\AppData\Local\Temp\cc8SekaC.s 			page 9


 127 0098 1720     		movs	r0, #23
 128 009a 0721     		movs	r1, #7
 129 009c FFF7FEFF 		bl	CyIntSetPriority
 130              	.LVL7:
 331:.\Generated_Source\PSoC5/USB.c ****     (void) CyIntSetVector(USB_BUS_RESET_VECT_NUM,   &USB_BUS_RESET_ISR);
 131              		.loc 1 331 0
 132 00a0 1720     		movs	r0, #23
 133 00a2 1449     		ldr	r1, .L3+24
 134 00a4 FFF7FEFF 		bl	CyIntSetVector
 135              	.LVL8:
 332:.\Generated_Source\PSoC5/USB.c **** 
 333:.\Generated_Source\PSoC5/USB.c ****     /* Set Control Endpoint Interrupt. */
 334:.\Generated_Source\PSoC5/USB.c ****     CyIntSetPriority(USB_EP_0_VECT_NUM, USB_EP_0_PRIOR);
 136              		.loc 1 334 0
 137 00a8 1820     		movs	r0, #24
 138 00aa 0721     		movs	r1, #7
 139 00ac FFF7FEFF 		bl	CyIntSetPriority
 140              	.LVL9:
 335:.\Generated_Source\PSoC5/USB.c ****     (void) CyIntSetVector(USB_EP_0_VECT_NUM,   &USB_EP_0_ISR);
 141              		.loc 1 335 0
 142 00b0 1820     		movs	r0, #24
 143 00b2 1149     		ldr	r1, .L3+28
 144 00b4 FFF7FEFF 		bl	CyIntSetVector
 145              	.LVL10:
 336:.\Generated_Source\PSoC5/USB.c **** 
 337:.\Generated_Source\PSoC5/USB.c ****     /* Set SOF interrupt. */
 338:.\Generated_Source\PSoC5/USB.c ****     #if (USB_SOF_ISR_ACTIVE)
 339:.\Generated_Source\PSoC5/USB.c ****         CyIntSetPriority     (USB_SOF_VECT_NUM,  USB_SOF_PRIOR);
 340:.\Generated_Source\PSoC5/USB.c ****         (void) CyIntSetVector(USB_SOF_VECT_NUM, &USB_SOF_ISR);
 341:.\Generated_Source\PSoC5/USB.c ****     #endif /* (USB_SOF_ISR_ACTIVE) */
 342:.\Generated_Source\PSoC5/USB.c **** 
 343:.\Generated_Source\PSoC5/USB.c ****     /* Set Data Endpoint 1 Interrupt. */
 344:.\Generated_Source\PSoC5/USB.c ****     #if (USB_EP1_ISR_ACTIVE)
 345:.\Generated_Source\PSoC5/USB.c ****         CyIntSetPriority     (USB_EP_1_VECT_NUM,  USB_EP_1_PRIOR);
 146              		.loc 1 345 0
 147 00b8 0320     		movs	r0, #3
 148 00ba 0721     		movs	r1, #7
 149 00bc FFF7FEFF 		bl	CyIntSetPriority
 150              	.LVL11:
 346:.\Generated_Source\PSoC5/USB.c ****         (void) CyIntSetVector(USB_EP_1_VECT_NUM,  &USB_EP_1_ISR);
 151              		.loc 1 346 0
 152 00c0 0320     		movs	r0, #3
 153 00c2 0E49     		ldr	r1, .L3+32
 154 00c4 FFF7FEFF 		bl	CyIntSetVector
 155              	.LVL12:
 347:.\Generated_Source\PSoC5/USB.c ****     #endif /* (USB_EP1_ISR_ACTIVE) */
 348:.\Generated_Source\PSoC5/USB.c **** 
 349:.\Generated_Source\PSoC5/USB.c ****     /* Set Data Endpoint 2 Interrupt. */
 350:.\Generated_Source\PSoC5/USB.c ****     #if (USB_EP2_ISR_ACTIVE)
 351:.\Generated_Source\PSoC5/USB.c ****         CyIntSetPriority     (USB_EP_2_VECT_NUM,  USB_EP_2_PRIOR);
 352:.\Generated_Source\PSoC5/USB.c ****         (void) CyIntSetVector(USB_EP_2_VECT_NUM, &USB_EP_2_ISR);
 353:.\Generated_Source\PSoC5/USB.c ****     #endif /* (USB_EP2_ISR_ACTIVE) */
 354:.\Generated_Source\PSoC5/USB.c **** 
 355:.\Generated_Source\PSoC5/USB.c ****     /* Set Data Endpoint 3 Interrupt. */
 356:.\Generated_Source\PSoC5/USB.c ****     #if (USB_EP3_ISR_ACTIVE)
 357:.\Generated_Source\PSoC5/USB.c ****         CyIntSetPriority     (USB_EP_3_VECT_NUM,  USB_EP_3_PRIOR);
 358:.\Generated_Source\PSoC5/USB.c ****         (void) CyIntSetVector(USB_EP_3_VECT_NUM, &USB_EP_3_ISR);
ARM GAS  C:\Users\cruiser\AppData\Local\Temp\cc8SekaC.s 			page 10


 359:.\Generated_Source\PSoC5/USB.c ****     #endif /* (USB_EP3_ISR_ACTIVE) */
 360:.\Generated_Source\PSoC5/USB.c **** 
 361:.\Generated_Source\PSoC5/USB.c ****     /* Set Data Endpoint 4 Interrupt. */
 362:.\Generated_Source\PSoC5/USB.c ****     #if (USB_EP4_ISR_ACTIVE)
 363:.\Generated_Source\PSoC5/USB.c ****         CyIntSetPriority     (USB_EP_4_VECT_NUM,  USB_EP_4_PRIOR);
 364:.\Generated_Source\PSoC5/USB.c ****         (void) CyIntSetVector(USB_EP_4_VECT_NUM, &USB_EP_4_ISR);
 365:.\Generated_Source\PSoC5/USB.c ****     #endif /* (USB_EP4_ISR_ACTIVE) */
 366:.\Generated_Source\PSoC5/USB.c **** 
 367:.\Generated_Source\PSoC5/USB.c ****     /* Set Data Endpoint 5 Interrupt. */
 368:.\Generated_Source\PSoC5/USB.c ****     #if (USB_EP5_ISR_ACTIVE)
 369:.\Generated_Source\PSoC5/USB.c ****         CyIntSetPriority     (USB_EP_5_VECT_NUM,  USB_EP_5_PRIOR);
 370:.\Generated_Source\PSoC5/USB.c ****         (void) CyIntSetVector(USB_EP_5_VECT_NUM, &USB_EP_5_ISR);
 371:.\Generated_Source\PSoC5/USB.c ****     #endif /* (USB_EP5_ISR_ACTIVE) */
 372:.\Generated_Source\PSoC5/USB.c **** 
 373:.\Generated_Source\PSoC5/USB.c ****     /* Set Data Endpoint 6 Interrupt. */
 374:.\Generated_Source\PSoC5/USB.c ****     #if (USB_EP6_ISR_ACTIVE)
 375:.\Generated_Source\PSoC5/USB.c ****         CyIntSetPriority     (USB_EP_6_VECT_NUM,  USB_EP_6_PRIOR);
 376:.\Generated_Source\PSoC5/USB.c ****         (void) CyIntSetVector(USB_EP_6_VECT_NUM, &USB_EP_6_ISR);
 377:.\Generated_Source\PSoC5/USB.c ****     #endif /* (USB_EP6_ISR_ACTIVE) */
 378:.\Generated_Source\PSoC5/USB.c **** 
 379:.\Generated_Source\PSoC5/USB.c ****      /* Set Data Endpoint 7 Interrupt. */
 380:.\Generated_Source\PSoC5/USB.c ****     #if (USB_EP7_ISR_ACTIVE)
 381:.\Generated_Source\PSoC5/USB.c ****         CyIntSetPriority     (USB_EP_7_VECT_NUM,  USB_EP_7_PRIOR);
 382:.\Generated_Source\PSoC5/USB.c ****         (void) CyIntSetVector(USB_EP_7_VECT_NUM, &USB_EP_7_ISR);
 383:.\Generated_Source\PSoC5/USB.c ****     #endif /* (USB_EP7_ISR_ACTIVE) */
 384:.\Generated_Source\PSoC5/USB.c **** 
 385:.\Generated_Source\PSoC5/USB.c ****     /* Set Data Endpoint 8 Interrupt. */
 386:.\Generated_Source\PSoC5/USB.c ****     #if (USB_EP8_ISR_ACTIVE)
 387:.\Generated_Source\PSoC5/USB.c ****         CyIntSetPriority     (USB_EP_8_VECT_NUM,  USB_EP_8_PRIOR);
 388:.\Generated_Source\PSoC5/USB.c ****         (void) CyIntSetVector(USB_EP_8_VECT_NUM, &USB_EP_8_ISR);
 389:.\Generated_Source\PSoC5/USB.c ****     #endif /* (USB_EP8_ISR_ACTIVE) */
 390:.\Generated_Source\PSoC5/USB.c **** 
 391:.\Generated_Source\PSoC5/USB.c ****     /* Set ARB Interrupt. */
 392:.\Generated_Source\PSoC5/USB.c ****     #if (USB_EP_MANAGEMENT_DMA && USB_ARB_ISR_ACTIVE)
 393:.\Generated_Source\PSoC5/USB.c ****         CyIntSetPriority     (USB_ARB_VECT_NUM,  USB_ARB_PRIOR);
 394:.\Generated_Source\PSoC5/USB.c ****         (void) CyIntSetVector(USB_ARB_VECT_NUM, &USB_ARB_ISR);
 395:.\Generated_Source\PSoC5/USB.c ****     #endif /* (USB_EP_MANAGEMENT_DMA && USB_ARB_ISR_ACTIVE) */
 396:.\Generated_Source\PSoC5/USB.c **** #endif /* (CY_PSOC4) */
 397:.\Generated_Source\PSoC5/USB.c **** 
 398:.\Generated_Source\PSoC5/USB.c ****     /* Common: Configure GPIO interrupt for wakeup. */
 399:.\Generated_Source\PSoC5/USB.c **** #if (USB_DP_ISR_ACTIVE)
 400:.\Generated_Source\PSoC5/USB.c ****     CyIntSetPriority     (USB_DP_INTC_VECT_NUM,  USB_DP_INTC_PRIORITY);
 156              		.loc 1 400 0
 157 00c8 0C20     		movs	r0, #12
 158 00ca 0721     		movs	r1, #7
 159 00cc FFF7FEFF 		bl	CyIntSetPriority
 160              	.LVL13:
 401:.\Generated_Source\PSoC5/USB.c ****     (void) CyIntSetVector(USB_DP_INTC_VECT_NUM, &USB_DP_ISR);
 161              		.loc 1 401 0
 162 00d0 0C20     		movs	r0, #12
 163 00d2 0B49     		ldr	r1, .L3+36
 164 00d4 FFF7FEFF 		bl	CyIntSetVector
 165              	.LVL14:
 166 00d8 F8BD     		pop	{r3, r4, r5, r6, r7, pc}
 167              	.LVL15:
 168              	.L4:
 169 00da 00BF     		.align	2
ARM GAS  C:\Users\cruiser\AppData\Local\Temp\cc8SekaC.s 			page 11


 170              	.L3:
 171 00dc A5430040 		.word	1073759141
 172 00e0 9D600040 		.word	1073766557
 173 00e4 94430040 		.word	1073759124
 174 00e8 12600040 		.word	1073766418
 175 00ec F8510040 		.word	1073762808
 176 00f0 84600040 		.word	1073766532
 177 00f4 00000000 		.word	USB_BUS_RESET_ISR
 178 00f8 00000000 		.word	USB_EP_0_ISR
 179 00fc 00000000 		.word	USB_EP_1_ISR
 180 0100 00000000 		.word	USB_DP_ISR
 181              		.cfi_endproc
 182              	.LFE1:
 183              		.size	USB_Init, .-USB_Init
 184              		.section	.text.USB_InitComponent,"ax",%progbits
 185              		.align	2
 186              		.global	USB_InitComponent
 187              		.thumb
 188              		.thumb_func
 189              		.type	USB_InitComponent, %function
 190              	USB_InitComponent:
 191              	.LFB2:
 402:.\Generated_Source\PSoC5/USB.c **** #endif /* (USB_DP_ISR_ACTIVE) */
 403:.\Generated_Source\PSoC5/USB.c **** 
 404:.\Generated_Source\PSoC5/USB.c **** #if (USB_EP_MANAGEMENT_DMA && CY_PSOC4)
 405:.\Generated_Source\PSoC5/USB.c ****     /* Initialize DMA channels. */
 406:.\Generated_Source\PSoC5/USB.c ****     USB_InitEpDma();
 407:.\Generated_Source\PSoC5/USB.c **** #endif /* (USB_EP_MANAGEMENT_DMA && CY_PSOC4) */
 408:.\Generated_Source\PSoC5/USB.c **** }
 409:.\Generated_Source\PSoC5/USB.c **** 
 410:.\Generated_Source\PSoC5/USB.c **** 
 411:.\Generated_Source\PSoC5/USB.c **** /*******************************************************************************
 412:.\Generated_Source\PSoC5/USB.c **** * Function Name: USB_InitComponent
 413:.\Generated_Source\PSoC5/USB.c **** ****************************************************************************//**
 414:.\Generated_Source\PSoC5/USB.c **** *
 415:.\Generated_Source\PSoC5/USB.c **** *   This function initializes the component’s global variables and initiates
 416:.\Generated_Source\PSoC5/USB.c **** *   communication with the host by pull-up D+ line.
 417:.\Generated_Source\PSoC5/USB.c **** *
 418:.\Generated_Source\PSoC5/USB.c **** * \param device:
 419:.\Generated_Source\PSoC5/USB.c **** *   Contains the device number of the desired device descriptor. The device
 420:.\Generated_Source\PSoC5/USB.c **** *   number can be found in the Device Descriptor Tab of "Configure" dialog,
 421:.\Generated_Source\PSoC5/USB.c **** *   under the settings of desired Device Descriptor, in the *Device Number*
 422:.\Generated_Source\PSoC5/USB.c **** *   field.
 423:.\Generated_Source\PSoC5/USB.c **** *  \param mode:
 424:.\Generated_Source\PSoC5/USB.c **** *   The operating voltage. This determines whether the voltage regulator
 425:.\Generated_Source\PSoC5/USB.c **** *   is enabled for 5V operation or if pass through mode is used for 3.3V
 426:.\Generated_Source\PSoC5/USB.c **** *   operation. Symbolic names and their associated values are given in the
 427:.\Generated_Source\PSoC5/USB.c **** *   following list.
 428:.\Generated_Source\PSoC5/USB.c **** *
 429:.\Generated_Source\PSoC5/USB.c **** *       *USB_3V_OPERATION* - Disable voltage regulator and pass-
 430:.\Generated_Source\PSoC5/USB.c **** *                                      through Vcc for pull-up
 431:.\Generated_Source\PSoC5/USB.c **** *
 432:.\Generated_Source\PSoC5/USB.c **** *       *USB_5V_OPERATION* - Enable voltage regulator and use
 433:.\Generated_Source\PSoC5/USB.c **** *                                      regulator for pull-up
 434:.\Generated_Source\PSoC5/USB.c **** *
 435:.\Generated_Source\PSoC5/USB.c **** *       *USB_DWR_POWER_OPERATION* - Enable or disable the voltage
 436:.\Generated_Source\PSoC5/USB.c **** *                                      regulator depending on the power supply
ARM GAS  C:\Users\cruiser\AppData\Local\Temp\cc8SekaC.s 			page 12


 437:.\Generated_Source\PSoC5/USB.c **** *                                      voltage configuration in the DWR tab.
 438:.\Generated_Source\PSoC5/USB.c **** *                                      For PSoC 3/5LP devices, the VDDD supply
 439:.\Generated_Source\PSoC5/USB.c **** *                                      voltage is considered and for PSoC 4A-L,
 440:.\Generated_Source\PSoC5/USB.c **** *                                      the VBUS supply voltage is considered.
 441:.\Generated_Source\PSoC5/USB.c **** *
 442:.\Generated_Source\PSoC5/USB.c **** * \globalvars
 443:.\Generated_Source\PSoC5/USB.c **** *   \ref USB_device
 444:.\Generated_Source\PSoC5/USB.c **** *   \ref USB_transferState
 445:.\Generated_Source\PSoC5/USB.c **** *   \ref USB_configuration
 446:.\Generated_Source\PSoC5/USB.c **** *   \ref USB_deviceStatus
 447:.\Generated_Source\PSoC5/USB.c **** *
 448:.\Generated_Source\PSoC5/USB.c **** *   \ref USB_deviceAddress - Contains the current device address. This
 449:.\Generated_Source\PSoC5/USB.c **** *       variable is initialized to zero in this API. The Host starts to communicate
 450:.\Generated_Source\PSoC5/USB.c **** *      to the device with address 0 and then sets it to a whatever value using a
 451:.\Generated_Source\PSoC5/USB.c **** *      SET_ADDRESS request.
 452:.\Generated_Source\PSoC5/USB.c **** *
 453:.\Generated_Source\PSoC5/USB.c **** *   \ref USB_lastPacketSize - Initialized to 0;
 454:.\Generated_Source\PSoC5/USB.c **** *
 455:.\Generated_Source\PSoC5/USB.c **** * \reentrant
 456:.\Generated_Source\PSoC5/USB.c **** *  No.
 457:.\Generated_Source\PSoC5/USB.c **** *
 458:.\Generated_Source\PSoC5/USB.c **** *******************************************************************************/
 459:.\Generated_Source\PSoC5/USB.c **** void USB_InitComponent(uint8 device, uint8 mode) 
 460:.\Generated_Source\PSoC5/USB.c **** {
 192              		.loc 1 460 0
 193              		.cfi_startproc
 194              		@ args = 0, pretend = 0, frame = 0
 195              		@ frame_needed = 0, uses_anonymous_args = 0
 196              	.LVL16:
 197 0000 08B5     		push	{r3, lr}
 198              		.cfi_def_cfa_offset 8
 199              		.cfi_offset 3, -8
 200              		.cfi_offset 14, -4
 461:.\Generated_Source\PSoC5/USB.c ****     /* Initialize _hidProtocol variable to comply with
 462:.\Generated_Source\PSoC5/USB.c ****     *  HID 7.2.6 Set_Protocol Request:
 463:.\Generated_Source\PSoC5/USB.c ****     *  "When initialized, all devices default to report protocol."
 464:.\Generated_Source\PSoC5/USB.c ****     */
 465:.\Generated_Source\PSoC5/USB.c **** #if defined(USB_ENABLE_HID_CLASS)
 466:.\Generated_Source\PSoC5/USB.c ****     uint8 i;
 467:.\Generated_Source\PSoC5/USB.c **** 
 468:.\Generated_Source\PSoC5/USB.c ****     for (i = 0u; i < USB_MAX_INTERFACES_NUMBER; i++)
 469:.\Generated_Source\PSoC5/USB.c ****     {
 470:.\Generated_Source\PSoC5/USB.c ****         USB_hidProtocol[i] = USB_PROTOCOL_REPORT;
 471:.\Generated_Source\PSoC5/USB.c ****     }
 472:.\Generated_Source\PSoC5/USB.c **** #endif /* USB_ENABLE_HID_CLASS */
 473:.\Generated_Source\PSoC5/USB.c **** 
 474:.\Generated_Source\PSoC5/USB.c ****     /* Store device number to access descriptor. */
 475:.\Generated_Source\PSoC5/USB.c ****     USB_device = device;
 201              		.loc 1 475 0
 202 0002 1E4B     		ldr	r3, .L12
 203 0004 1870     		strb	r0, [r3]
 476:.\Generated_Source\PSoC5/USB.c **** 
 477:.\Generated_Source\PSoC5/USB.c ****     /* Reset component internal variables. */
 478:.\Generated_Source\PSoC5/USB.c ****     USB_transferState   = USB_TRANS_STATE_IDLE;
 204              		.loc 1 478 0
 205 0006 0023     		movs	r3, #0
 206 0008 1D4A     		ldr	r2, .L12+4
ARM GAS  C:\Users\cruiser\AppData\Local\Temp\cc8SekaC.s 			page 13


 207 000a 1370     		strb	r3, [r2]
 479:.\Generated_Source\PSoC5/USB.c ****     USB_configurationChanged = 0u;
 208              		.loc 1 479 0
 209 000c 1D4A     		ldr	r2, .L12+8
 210 000e 1370     		strb	r3, [r2]
 480:.\Generated_Source\PSoC5/USB.c ****     USB_configuration   = 0u;
 211              		.loc 1 480 0
 212 0010 1D4A     		ldr	r2, .L12+12
 213 0012 1370     		strb	r3, [r2]
 481:.\Generated_Source\PSoC5/USB.c ****     USB_interfaceNumber = 0u;
 214              		.loc 1 481 0
 215 0014 1D4A     		ldr	r2, .L12+16
 216 0016 1370     		strb	r3, [r2]
 482:.\Generated_Source\PSoC5/USB.c ****     USB_deviceAddress   = 0u;
 217              		.loc 1 482 0
 218 0018 1D4A     		ldr	r2, .L12+20
 219 001a 1370     		strb	r3, [r2]
 483:.\Generated_Source\PSoC5/USB.c ****     USB_deviceStatus    = 0u;
 220              		.loc 1 483 0
 221 001c 1D4A     		ldr	r2, .L12+24
 222 001e 1370     		strb	r3, [r2]
 484:.\Generated_Source\PSoC5/USB.c ****     USB_lastPacketSize  = 0u;
 223              		.loc 1 484 0
 224 0020 1D4A     		ldr	r2, .L12+28
 225 0022 1370     		strb	r3, [r2]
 485:.\Generated_Source\PSoC5/USB.c **** 
 486:.\Generated_Source\PSoC5/USB.c ****     /* Enable component interrupts. */
 487:.\Generated_Source\PSoC5/USB.c **** #if (CY_PSOC4)
 488:.\Generated_Source\PSoC5/USB.c ****     CyIntEnable(USB_INTR_HI_VECT_NUM);
 489:.\Generated_Source\PSoC5/USB.c ****     CyIntEnable(USB_INTR_MED_VECT_NUM);
 490:.\Generated_Source\PSoC5/USB.c ****     CyIntEnable(USB_INTR_LO_VECT_NUM);
 491:.\Generated_Source\PSoC5/USB.c **** #else
 492:.\Generated_Source\PSoC5/USB.c ****     CyIntEnable(USB_BUS_RESET_VECT_NUM);
 226              		.loc 1 492 0
 227 0024 1D4B     		ldr	r3, .L12+32
 228 0026 4FF40002 		mov	r2, #8388608
 229 002a 1A60     		str	r2, [r3]
 493:.\Generated_Source\PSoC5/USB.c ****     CyIntEnable(USB_EP_0_VECT_NUM);
 230              		.loc 1 493 0
 231 002c 4FF08072 		mov	r2, #16777216
 232 0030 1A60     		str	r2, [r3]
 494:.\Generated_Source\PSoC5/USB.c **** 
 495:.\Generated_Source\PSoC5/USB.c ****     #if (USB_SOF_ISR_ACTIVE)
 496:.\Generated_Source\PSoC5/USB.c ****         CyIntEnable(USB_SOF_VECT_NUM);
 497:.\Generated_Source\PSoC5/USB.c ****     #endif /* (USB_SOF_ISR_ACTIVE) */
 498:.\Generated_Source\PSoC5/USB.c **** 
 499:.\Generated_Source\PSoC5/USB.c ****     #if (USB_EP1_ISR_ACTIVE)
 500:.\Generated_Source\PSoC5/USB.c ****         CyIntEnable(USB_EP_1_VECT_NUM);
 233              		.loc 1 500 0
 234 0032 0822     		movs	r2, #8
 235 0034 1A60     		str	r2, [r3]
 501:.\Generated_Source\PSoC5/USB.c ****     #endif /* (USB_EP1_ISR_ACTIVE) */
 502:.\Generated_Source\PSoC5/USB.c **** 
 503:.\Generated_Source\PSoC5/USB.c ****     #if (USB_EP2_ISR_ACTIVE)
 504:.\Generated_Source\PSoC5/USB.c ****         CyIntEnable(USB_EP_2_VECT_NUM);
 505:.\Generated_Source\PSoC5/USB.c ****     #endif /* (USB_EP5_ISR_ACTIVE) */
 506:.\Generated_Source\PSoC5/USB.c **** 
ARM GAS  C:\Users\cruiser\AppData\Local\Temp\cc8SekaC.s 			page 14


 507:.\Generated_Source\PSoC5/USB.c ****     #if (USB_EP3_ISR_ACTIVE)
 508:.\Generated_Source\PSoC5/USB.c ****         CyIntEnable(USB_EP_3_VECT_NUM);
 509:.\Generated_Source\PSoC5/USB.c ****     #endif /* (USB_EP5_ISR_ACTIVE) */
 510:.\Generated_Source\PSoC5/USB.c **** 
 511:.\Generated_Source\PSoC5/USB.c ****     #if (USB_EP4_ISR_ACTIVE)
 512:.\Generated_Source\PSoC5/USB.c ****         CyIntEnable(USB_EP_4_VECT_NUM);
 513:.\Generated_Source\PSoC5/USB.c ****     #endif /* (USB_EP5_ISR_ACTIVE) */
 514:.\Generated_Source\PSoC5/USB.c **** 
 515:.\Generated_Source\PSoC5/USB.c ****     #if (USB_EP5_ISR_ACTIVE)
 516:.\Generated_Source\PSoC5/USB.c ****         CyIntEnable(USB_EP_5_VECT_NUM);
 517:.\Generated_Source\PSoC5/USB.c ****     #endif /* (USB_EP5_ISR_ACTIVE) */
 518:.\Generated_Source\PSoC5/USB.c **** 
 519:.\Generated_Source\PSoC5/USB.c ****     #if (USB_EP6_ISR_ACTIVE)
 520:.\Generated_Source\PSoC5/USB.c ****         CyIntEnable(USB_EP_6_VECT_NUM);
 521:.\Generated_Source\PSoC5/USB.c ****     #endif /* USB_EP6_ISR_REMOVE */
 522:.\Generated_Source\PSoC5/USB.c **** 
 523:.\Generated_Source\PSoC5/USB.c ****     #if (USB_EP7_ISR_ACTIVE)
 524:.\Generated_Source\PSoC5/USB.c ****         CyIntEnable(USB_EP_7_VECT_NUM);
 525:.\Generated_Source\PSoC5/USB.c ****     #endif /* (USB_EP7_ISR_ACTIVE) */
 526:.\Generated_Source\PSoC5/USB.c **** 
 527:.\Generated_Source\PSoC5/USB.c ****     #if (USB_EP8_ISR_ACTIVE)
 528:.\Generated_Source\PSoC5/USB.c ****         CyIntEnable(USB_EP_8_VECT_NUM);
 529:.\Generated_Source\PSoC5/USB.c ****     #endif /* (USB_EP8_ISR_ACTIVE) */
 530:.\Generated_Source\PSoC5/USB.c **** #endif /* (CY_PSOC4) */
 531:.\Generated_Source\PSoC5/USB.c **** 
 532:.\Generated_Source\PSoC5/USB.c **** #if (USB_EP_MANAGEMENT_DMA && USB_ARB_ISR_ACTIVE)
 533:.\Generated_Source\PSoC5/USB.c ****     /* Enable ARB EP interrupt sources. */
 534:.\Generated_Source\PSoC5/USB.c ****     USB_ARB_INT_EN_REG = USB_DEFAULT_ARB_INT_EN;
 535:.\Generated_Source\PSoC5/USB.c **** 
 536:.\Generated_Source\PSoC5/USB.c ****     #if (CY_PSOC3 || CY_PSOC5)
 537:.\Generated_Source\PSoC5/USB.c ****         CyIntEnable(USB_ARB_VECT_NUM);
 538:.\Generated_Source\PSoC5/USB.c ****     #endif /* (CY_PSOC3 || CY_PSOC5) */
 539:.\Generated_Source\PSoC5/USB.c **** #endif   /* (USB_EP_MANAGEMENT_DMA && USB_ARB_ISR_ACTIVE) */
 540:.\Generated_Source\PSoC5/USB.c **** 
 541:.\Generated_Source\PSoC5/USB.c **** /* Arbiter configuration for DMA transfers. */
 542:.\Generated_Source\PSoC5/USB.c **** #if (USB_EP_MANAGEMENT_DMA)
 543:.\Generated_Source\PSoC5/USB.c ****     /* Configure Arbiter for Manual or Auto DMA operation and clear configuration completion. */
 544:.\Generated_Source\PSoC5/USB.c ****     USB_ARB_CFG_REG = USB_DEFAULT_ARB_CFG;
 545:.\Generated_Source\PSoC5/USB.c **** 
 546:.\Generated_Source\PSoC5/USB.c ****     #if (CY_PSOC4)
 547:.\Generated_Source\PSoC5/USB.c ****         /* Enable DMA operation. */
 548:.\Generated_Source\PSoC5/USB.c ****         CyDmaEnable();
 549:.\Generated_Source\PSoC5/USB.c **** 
 550:.\Generated_Source\PSoC5/USB.c ****         #if (USB_EP_MANAGEMENT_DMA_AUTO)
 551:.\Generated_Source\PSoC5/USB.c ****             /* Change DMA priority to be highest. */
 552:.\Generated_Source\PSoC5/USB.c ****              CyIntSetPriority(CYDMA_INTR_NUMBER, USB_DMA_AUTO_INTR_PRIO);
 553:.\Generated_Source\PSoC5/USB.c ****         #endif /* (USB_EP_MANAGEMENT_DMA_AUTO) */
 554:.\Generated_Source\PSoC5/USB.c ****     #endif /* (CY_PSOC4) */
 555:.\Generated_Source\PSoC5/USB.c **** 
 556:.\Generated_Source\PSoC5/USB.c ****     #if (USB_EP_MANAGEMENT_DMA_AUTO)
 557:.\Generated_Source\PSoC5/USB.c ****         #if (CY_PSOC4)
 558:.\Generated_Source\PSoC5/USB.c ****             /* Enable DMA interrupt to handle DMA management. */
 559:.\Generated_Source\PSoC5/USB.c ****             CyIntEnable(CYDMA_INTR_NUMBER);
 560:.\Generated_Source\PSoC5/USB.c ****         #else
 561:.\Generated_Source\PSoC5/USB.c ****             #if (USB_EP_DMA_AUTO_OPT == 0u)
 562:.\Generated_Source\PSoC5/USB.c ****                 /* Initialize interrupts which handle verification of successful DMA transaction. *
 563:.\Generated_Source\PSoC5/USB.c ****                 USB_EP_DMA_Done_isr_StartEx(&USB_EP_DMA_DONE_ISR);
ARM GAS  C:\Users\cruiser\AppData\Local\Temp\cc8SekaC.s 			page 15


 564:.\Generated_Source\PSoC5/USB.c ****                 USB_EP17_DMA_Done_SR_InterruptEnable();
 565:.\Generated_Source\PSoC5/USB.c ****                 USB_EP8_DMA_Done_SR_InterruptEnable();
 566:.\Generated_Source\PSoC5/USB.c ****             #endif /* (USB_EP_DMA_AUTO_OPT == 0u) */
 567:.\Generated_Source\PSoC5/USB.c ****         #endif /* (CY_PSOC4) */
 568:.\Generated_Source\PSoC5/USB.c ****     #endif /* (USB_EP_MANAGEMENT_DMA_AUTO) */
 569:.\Generated_Source\PSoC5/USB.c **** #endif /* (USB_EP_MANAGEMENT_DMA) */
 570:.\Generated_Source\PSoC5/USB.c **** 
 571:.\Generated_Source\PSoC5/USB.c ****     /* Enable USB regulator depends on operation voltage. IMO Locking is enabled in Init(). */
 572:.\Generated_Source\PSoC5/USB.c ****     switch(mode)
 236              		.loc 1 572 0
 237 0036 11B1     		cbz	r1, .L7
 238 0038 0129     		cmp	r1, #1
 239 003a 06D0     		beq	.L8
 240 003c 0BE0     		b	.L10
 241              	.L7:
 573:.\Generated_Source\PSoC5/USB.c ****     {
 574:.\Generated_Source\PSoC5/USB.c ****     case USB_3V_OPERATION:
 575:.\Generated_Source\PSoC5/USB.c ****         /* Disable regulator for 3V operation. */
 576:.\Generated_Source\PSoC5/USB.c ****         USB_CR1_REG &= (uint8) ~USB_CR1_REG_ENABLE;
 242              		.loc 1 576 0
 243 003e 184A     		ldr	r2, .L12+36
 244 0040 1378     		ldrb	r3, [r2]	@ zero_extendqisi2
 245 0042 03F0FE03 		and	r3, r3, #254
 246 0046 1370     		strb	r3, [r2]
 577:.\Generated_Source\PSoC5/USB.c ****         break;
 247              		.loc 1 577 0
 248 0048 0AE0     		b	.L9
 249              	.L8:
 578:.\Generated_Source\PSoC5/USB.c **** 
 579:.\Generated_Source\PSoC5/USB.c ****     case USB_5V_OPERATION:
 580:.\Generated_Source\PSoC5/USB.c ****         /* Enable regulator for 5V operation. */
 581:.\Generated_Source\PSoC5/USB.c ****         USB_CR1_REG |= (uint8)  USB_CR1_REG_ENABLE;
 250              		.loc 1 581 0
 251 004a 154A     		ldr	r2, .L12+36
 252 004c 1378     		ldrb	r3, [r2]	@ zero_extendqisi2
 253 004e 43F00103 		orr	r3, r3, #1
 254 0052 1370     		strb	r3, [r2]
 582:.\Generated_Source\PSoC5/USB.c ****         break;
 255              		.loc 1 582 0
 256 0054 04E0     		b	.L9
 257              	.L10:
 583:.\Generated_Source\PSoC5/USB.c **** 
 584:.\Generated_Source\PSoC5/USB.c ****     default: /* Check DWR settings of USB power supply. */
 585:.\Generated_Source\PSoC5/USB.c ****     #if (USB_VDDD_MV < USB_3500MV)
 586:.\Generated_Source\PSoC5/USB.c ****         /* Disable regulator for 3V operation. */
 587:.\Generated_Source\PSoC5/USB.c ****         USB_CR1_REG &= (uint8) ~USB_CR1_REG_ENABLE;
 588:.\Generated_Source\PSoC5/USB.c ****     #else
 589:.\Generated_Source\PSoC5/USB.c ****         /* Enable regulator for 5V operation. */
 590:.\Generated_Source\PSoC5/USB.c ****         USB_CR1_REG |= (uint8)  USB_CR1_REG_ENABLE;
 258              		.loc 1 590 0
 259 0056 124A     		ldr	r2, .L12+36
 260 0058 1378     		ldrb	r3, [r2]	@ zero_extendqisi2
 261 005a 43F00103 		orr	r3, r3, #1
 262 005e 1370     		strb	r3, [r2]
 263              	.L9:
 591:.\Generated_Source\PSoC5/USB.c ****     #endif /* (USB_VDDD_MV < USB_3500MV) */
 592:.\Generated_Source\PSoC5/USB.c ****         break;
ARM GAS  C:\Users\cruiser\AppData\Local\Temp\cc8SekaC.s 			page 16


 593:.\Generated_Source\PSoC5/USB.c ****     }
 594:.\Generated_Source\PSoC5/USB.c **** 
 595:.\Generated_Source\PSoC5/USB.c **** #if (CY_PSOC4)
 596:.\Generated_Source\PSoC5/USB.c ****     /* Clear bus activity. */
 597:.\Generated_Source\PSoC5/USB.c ****     USB_CR1_REG &= (uint32) ~USB_CR1_BUS_ACTIVITY;
 598:.\Generated_Source\PSoC5/USB.c **** 
 599:.\Generated_Source\PSoC5/USB.c ****     /* Clear EP0 count register. */
 600:.\Generated_Source\PSoC5/USB.c ****     USB_EP0_CNT_REG = USB_CLEAR_REG;
 601:.\Generated_Source\PSoC5/USB.c **** 
 602:.\Generated_Source\PSoC5/USB.c ****     /* Set EP0.CR: ACK Setup, NAK IN/OUT. */
 603:.\Generated_Source\PSoC5/USB.c ****     USB_EP0_CR_REG = USB_MODE_NAK_IN_OUT;
 604:.\Generated_Source\PSoC5/USB.c **** 
 605:.\Generated_Source\PSoC5/USB.c ****     #if (USB_LPM_ACTIVE)
 606:.\Generated_Source\PSoC5/USB.c ****         if (NULL != USB_GetBOSPtr())
 607:.\Generated_Source\PSoC5/USB.c ****         {
 608:.\Generated_Source\PSoC5/USB.c ****             /* Enable LPM and acknowledge LPM packets for active device.
 609:.\Generated_Source\PSoC5/USB.c ****             * Reset NYET_EN and SUB_RESP bits in the LPM_CTRL register.
 610:.\Generated_Source\PSoC5/USB.c ****             */
 611:.\Generated_Source\PSoC5/USB.c ****             USB_LPM_CTRL_REG = (USB_LPM_CTRL_LPM_EN | \
 612:.\Generated_Source\PSoC5/USB.c ****                                              USB_LPM_CTRL_LPM_ACK_RESP);
 613:.\Generated_Source\PSoC5/USB.c ****         }
 614:.\Generated_Source\PSoC5/USB.c ****         else
 615:.\Generated_Source\PSoC5/USB.c ****         {
 616:.\Generated_Source\PSoC5/USB.c ****             /* Disable LPM for active device. */
 617:.\Generated_Source\PSoC5/USB.c ****             USB_LPM_CTRL_REG &= (uint32) ~USB_LPM_CTRL_LPM_EN;
 618:.\Generated_Source\PSoC5/USB.c ****         }
 619:.\Generated_Source\PSoC5/USB.c ****     #endif /* (USB_LPM_ACTIVE) */
 620:.\Generated_Source\PSoC5/USB.c **** 
 621:.\Generated_Source\PSoC5/USB.c ****     /* Enable device to responds to USB traffic with address 0. */
 622:.\Generated_Source\PSoC5/USB.c ****     USB_CR0_REG = USB_DEFUALT_CR0;
 623:.\Generated_Source\PSoC5/USB.c **** 
 624:.\Generated_Source\PSoC5/USB.c **** #else
 625:.\Generated_Source\PSoC5/USB.c ****     /* Set EP0.CR: ACK Setup, STALL IN/OUT. */
 626:.\Generated_Source\PSoC5/USB.c ****     USB_EP0_CR_REG = USB_MODE_STALL_IN_OUT;
 264              		.loc 1 626 0
 265 0060 0322     		movs	r2, #3
 266 0062 104B     		ldr	r3, .L12+40
 267 0064 1A70     		strb	r2, [r3]
 627:.\Generated_Source\PSoC5/USB.c **** 
 628:.\Generated_Source\PSoC5/USB.c ****     /* Enable device to respond to USB traffic with address 0. */
 629:.\Generated_Source\PSoC5/USB.c ****     USB_CR0_REG = USB_DEFUALT_CR0;
 268              		.loc 1 629 0
 269 0066 8022     		movs	r2, #128
 270 0068 203B     		subs	r3, r3, #32
 271 006a 1A70     		strb	r2, [r3]
 630:.\Generated_Source\PSoC5/USB.c ****     CyDelayCycles(USB_WAIT_CR0_REG_STABILITY);
 272              		.loc 1 630 0
 273 006c 0120     		movs	r0, #1
 274              	.LVL17:
 275 006e FFF7FEFF 		bl	CyDelayCycles
 276              	.LVL18:
 631:.\Generated_Source\PSoC5/USB.c **** #endif /* (CY_PSOC4) */
 632:.\Generated_Source\PSoC5/USB.c **** 
 633:.\Generated_Source\PSoC5/USB.c ****     /* Enable D+ pull-up and keep USB control on IO. */
 634:.\Generated_Source\PSoC5/USB.c ****     USB_USBIO_CR1_REG = USB_USBIO_CR1_USBPUEN;
 277              		.loc 1 634 0
 278 0072 0422     		movs	r2, #4
ARM GAS  C:\Users\cruiser\AppData\Local\Temp\cc8SekaC.s 			page 17


 279 0074 0C4B     		ldr	r3, .L12+44
 280 0076 1A70     		strb	r2, [r3]
 281 0078 08BD     		pop	{r3, pc}
 282              	.L13:
 283 007a 00BF     		.align	2
 284              	.L12:
 285 007c 00000000 		.word	USB_device
 286 0080 00000000 		.word	USB_transferState
 287 0084 00000000 		.word	USB_configurationChanged
 288 0088 00000000 		.word	USB_configuration
 289 008c 00000000 		.word	USB_interfaceNumber
 290 0090 00000000 		.word	USB_deviceAddress
 291 0094 00000000 		.word	USB_deviceStatus
 292 0098 00000000 		.word	USB_lastPacketSize
 293 009c 00E100E0 		.word	-536813312
 294 00a0 09600040 		.word	1073766409
 295 00a4 28600040 		.word	1073766440
 296 00a8 12600040 		.word	1073766418
 297              		.cfi_endproc
 298              	.LFE2:
 299              		.size	USB_InitComponent, .-USB_InitComponent
 300              		.section	.text.USB_Start,"ax",%progbits
 301              		.align	2
 302              		.global	USB_Start
 303              		.thumb
 304              		.thumb_func
 305              		.type	USB_Start, %function
 306              	USB_Start:
 307              	.LFB0:
 186:.\Generated_Source\PSoC5/USB.c ****     if (0u == USB_initVar)
 308              		.loc 1 186 0
 309              		.cfi_startproc
 310              		@ args = 0, pretend = 0, frame = 0
 311              		@ frame_needed = 0, uses_anonymous_args = 0
 312              	.LVL19:
 313 0000 38B5     		push	{r3, r4, r5, lr}
 314              		.cfi_def_cfa_offset 16
 315              		.cfi_offset 3, -16
 316              		.cfi_offset 4, -12
 317              		.cfi_offset 5, -8
 318              		.cfi_offset 14, -4
 319 0002 0546     		mov	r5, r0
 320 0004 0C46     		mov	r4, r1
 187:.\Generated_Source\PSoC5/USB.c ****     {
 321              		.loc 1 187 0
 322 0006 064B     		ldr	r3, .L17
 323 0008 1B78     		ldrb	r3, [r3]	@ zero_extendqisi2
 324 000a 23B9     		cbnz	r3, .L15
 189:.\Generated_Source\PSoC5/USB.c ****         USB_initVar = 1u;
 325              		.loc 1 189 0
 326 000c FFF7FEFF 		bl	USB_Init
 327              	.LVL20:
 190:.\Generated_Source\PSoC5/USB.c ****     }
 328              		.loc 1 190 0
 329 0010 0122     		movs	r2, #1
 330 0012 034B     		ldr	r3, .L17
 331 0014 1A70     		strb	r2, [r3]
ARM GAS  C:\Users\cruiser\AppData\Local\Temp\cc8SekaC.s 			page 18


 332              	.L15:
 193:.\Generated_Source\PSoC5/USB.c **** }
 333              		.loc 1 193 0
 334 0016 2846     		mov	r0, r5
 335 0018 2146     		mov	r1, r4
 336 001a FFF7FEFF 		bl	USB_InitComponent
 337              	.LVL21:
 338 001e 38BD     		pop	{r3, r4, r5, pc}
 339              	.L18:
 340              		.align	2
 341              	.L17:
 342 0020 00000000 		.word	.LANCHOR0
 343              		.cfi_endproc
 344              	.LFE0:
 345              		.size	USB_Start, .-USB_Start
 346              		.section	.text.USB_ReInitComponent,"ax",%progbits
 347              		.align	2
 348              		.global	USB_ReInitComponent
 349              		.thumb
 350              		.thumb_func
 351              		.type	USB_ReInitComponent, %function
 352              	USB_ReInitComponent:
 353              	.LFB3:
 635:.\Generated_Source\PSoC5/USB.c **** }
 636:.\Generated_Source\PSoC5/USB.c **** 
 637:.\Generated_Source\PSoC5/USB.c **** 
 638:.\Generated_Source\PSoC5/USB.c **** /*******************************************************************************
 639:.\Generated_Source\PSoC5/USB.c **** * Function Name: USB_ReInitComponent
 640:.\Generated_Source\PSoC5/USB.c **** ****************************************************************************//**
 641:.\Generated_Source\PSoC5/USB.c **** *
 642:.\Generated_Source\PSoC5/USB.c **** *  This function reinitialize the component configuration and is
 643:.\Generated_Source\PSoC5/USB.c **** *  intend to be called from the Reset interrupt.
 644:.\Generated_Source\PSoC5/USB.c **** *
 645:.\Generated_Source\PSoC5/USB.c **** * \globalvars
 646:.\Generated_Source\PSoC5/USB.c **** *   USB_device - Contains the device number of the desired Device
 647:.\Generated_Source\PSoC5/USB.c **** *        Descriptor. The device number can be found in the Device Descriptor tab
 648:.\Generated_Source\PSoC5/USB.c **** *       of the Configure dialog, under the settings of the desired Device Descriptor,
 649:.\Generated_Source\PSoC5/USB.c **** *       in the Device Number field.
 650:.\Generated_Source\PSoC5/USB.c **** *   USB_transferState - This variable is used by the communication
 651:.\Generated_Source\PSoC5/USB.c **** *       functions to handle the current transfer state. Initialized to
 652:.\Generated_Source\PSoC5/USB.c **** *       TRANS_STATE_IDLE in this API.
 653:.\Generated_Source\PSoC5/USB.c **** *   USB_configuration - Contains the current configuration number
 654:.\Generated_Source\PSoC5/USB.c **** *       set by the Host using a SET_CONFIGURATION request.
 655:.\Generated_Source\PSoC5/USB.c **** *       Initialized to zero in this API.
 656:.\Generated_Source\PSoC5/USB.c **** *   USB_deviceAddress - Contains the current device address. This
 657:.\Generated_Source\PSoC5/USB.c **** *       variable is initialized to zero in this API. The Host starts to communicate
 658:.\Generated_Source\PSoC5/USB.c **** *      to the device with address 0 and then sets it to a whatever value using
 659:.\Generated_Source\PSoC5/USB.c **** *      a SET_ADDRESS request.
 660:.\Generated_Source\PSoC5/USB.c **** *   USB_deviceStatus - Initialized to 0.
 661:.\Generated_Source\PSoC5/USB.c **** *       This is a two-bit variable which contains the power status in the first bit
 662:.\Generated_Source\PSoC5/USB.c **** *       (DEVICE_STATUS_BUS_POWERED or DEVICE_STATUS_SELF_POWERED) and the remote
 663:.\Generated_Source\PSoC5/USB.c **** *       wakeup status (DEVICE_STATUS_REMOTE_WAKEUP) in the second bit.
 664:.\Generated_Source\PSoC5/USB.c **** *   USB_lastPacketSize - Initialized to 0;
 665:.\Generated_Source\PSoC5/USB.c **** *
 666:.\Generated_Source\PSoC5/USB.c **** * \reentrant
 667:.\Generated_Source\PSoC5/USB.c **** *  No.
 668:.\Generated_Source\PSoC5/USB.c **** *
ARM GAS  C:\Users\cruiser\AppData\Local\Temp\cc8SekaC.s 			page 19


 669:.\Generated_Source\PSoC5/USB.c **** *******************************************************************************/
 670:.\Generated_Source\PSoC5/USB.c **** void USB_ReInitComponent(void) 
 671:.\Generated_Source\PSoC5/USB.c **** {
 354              		.loc 1 671 0
 355              		.cfi_startproc
 356              		@ args = 0, pretend = 0, frame = 0
 357              		@ frame_needed = 0, uses_anonymous_args = 0
 358              		@ link register save eliminated.
 672:.\Generated_Source\PSoC5/USB.c ****     /* Initialize _hidProtocol variable to comply with HID 7.2.6 Set_Protocol
 673:.\Generated_Source\PSoC5/USB.c ****     *  Request: "When initialized, all devices default to report protocol."
 674:.\Generated_Source\PSoC5/USB.c ****     */
 675:.\Generated_Source\PSoC5/USB.c **** #if defined(USB_ENABLE_HID_CLASS)
 676:.\Generated_Source\PSoC5/USB.c ****     uint8 i;
 677:.\Generated_Source\PSoC5/USB.c **** 
 678:.\Generated_Source\PSoC5/USB.c ****     for (i = 0u; i < USB_MAX_INTERFACES_NUMBER; i++)
 679:.\Generated_Source\PSoC5/USB.c ****     {
 680:.\Generated_Source\PSoC5/USB.c ****         USB_hidProtocol[i] = USB_PROTOCOL_REPORT;
 681:.\Generated_Source\PSoC5/USB.c ****     }
 682:.\Generated_Source\PSoC5/USB.c **** #endif /* USB_ENABLE_HID_CLASS */
 683:.\Generated_Source\PSoC5/USB.c **** 
 684:.\Generated_Source\PSoC5/USB.c ****     /* Reset component internal variables. */
 685:.\Generated_Source\PSoC5/USB.c ****     USB_transferState   = USB_TRANS_STATE_IDLE;
 359              		.loc 1 685 0
 360 0000 0023     		movs	r3, #0
 361 0002 0A4A     		ldr	r2, .L20
 362 0004 1370     		strb	r3, [r2]
 686:.\Generated_Source\PSoC5/USB.c ****     USB_configurationChanged = 0u;
 363              		.loc 1 686 0
 364 0006 0A4A     		ldr	r2, .L20+4
 365 0008 1370     		strb	r3, [r2]
 687:.\Generated_Source\PSoC5/USB.c ****     USB_configuration   = 0u;
 366              		.loc 1 687 0
 367 000a 0A4A     		ldr	r2, .L20+8
 368 000c 1370     		strb	r3, [r2]
 688:.\Generated_Source\PSoC5/USB.c ****     USB_interfaceNumber = 0u;
 369              		.loc 1 688 0
 370 000e 0A4A     		ldr	r2, .L20+12
 371 0010 1370     		strb	r3, [r2]
 689:.\Generated_Source\PSoC5/USB.c ****     USB_deviceAddress   = 0u;
 372              		.loc 1 689 0
 373 0012 0A4A     		ldr	r2, .L20+16
 374 0014 1370     		strb	r3, [r2]
 690:.\Generated_Source\PSoC5/USB.c ****     USB_deviceStatus    = 0u;
 375              		.loc 1 690 0
 376 0016 0A4A     		ldr	r2, .L20+20
 377 0018 1370     		strb	r3, [r2]
 691:.\Generated_Source\PSoC5/USB.c ****     USB_lastPacketSize  = 0u;
 378              		.loc 1 691 0
 379 001a 0A4A     		ldr	r2, .L20+24
 380 001c 1370     		strb	r3, [r2]
 692:.\Generated_Source\PSoC5/USB.c **** 
 693:.\Generated_Source\PSoC5/USB.c **** #if (CY_PSOC4)
 694:.\Generated_Source\PSoC5/USB.c ****     /* Set EP0.CR: ACK Setup, NAK IN/OUT. */
 695:.\Generated_Source\PSoC5/USB.c ****     USB_EP0_CR_REG = USB_MODE_NAK_IN_OUT;
 696:.\Generated_Source\PSoC5/USB.c **** #else
 697:.\Generated_Source\PSoC5/USB.c ****     /* Set EP0.CR: ACK Setup, STALL IN/OUT. */
 698:.\Generated_Source\PSoC5/USB.c ****     USB_EP0_CR_REG = USB_MODE_STALL_IN_OUT;
ARM GAS  C:\Users\cruiser\AppData\Local\Temp\cc8SekaC.s 			page 20


 381              		.loc 1 698 0
 382 001e 0322     		movs	r2, #3
 383 0020 094B     		ldr	r3, .L20+28
 384 0022 1A70     		strb	r2, [r3]
 699:.\Generated_Source\PSoC5/USB.c **** #endif /* (CY_PSOC4) */
 700:.\Generated_Source\PSoC5/USB.c **** 
 701:.\Generated_Source\PSoC5/USB.c ****     /* Enable device to respond to USB traffic with address 0. */
 702:.\Generated_Source\PSoC5/USB.c ****     USB_CR0_REG = USB_DEFUALT_CR0;
 385              		.loc 1 702 0
 386 0024 8022     		movs	r2, #128
 387 0026 203B     		subs	r3, r3, #32
 388 0028 1A70     		strb	r2, [r3]
 389 002a 7047     		bx	lr
 390              	.L21:
 391              		.align	2
 392              	.L20:
 393 002c 00000000 		.word	USB_transferState
 394 0030 00000000 		.word	USB_configurationChanged
 395 0034 00000000 		.word	USB_configuration
 396 0038 00000000 		.word	USB_interfaceNumber
 397 003c 00000000 		.word	USB_deviceAddress
 398 0040 00000000 		.word	USB_deviceStatus
 399 0044 00000000 		.word	USB_lastPacketSize
 400 0048 28600040 		.word	1073766440
 401              		.cfi_endproc
 402              	.LFE3:
 403              		.size	USB_ReInitComponent, .-USB_ReInitComponent
 404              		.section	.text.USB_Stop,"ax",%progbits
 405              		.align	2
 406              		.global	USB_Stop
 407              		.thumb
 408              		.thumb_func
 409              		.type	USB_Stop, %function
 410              	USB_Stop:
 411              	.LFB4:
 703:.\Generated_Source\PSoC5/USB.c **** }
 704:.\Generated_Source\PSoC5/USB.c **** 
 705:.\Generated_Source\PSoC5/USB.c **** 
 706:.\Generated_Source\PSoC5/USB.c **** /*******************************************************************************
 707:.\Generated_Source\PSoC5/USB.c **** * Function Name: USB_Stop
 708:.\Generated_Source\PSoC5/USB.c **** ****************************************************************************//**
 709:.\Generated_Source\PSoC5/USB.c **** *
 710:.\Generated_Source\PSoC5/USB.c **** *  This function shuts down the USB function including to release
 711:.\Generated_Source\PSoC5/USB.c **** *  the D+ pull-up and disabling the SIE.
 712:.\Generated_Source\PSoC5/USB.c **** *
 713:.\Generated_Source\PSoC5/USB.c **** * \globalvars
 714:.\Generated_Source\PSoC5/USB.c **** *   \ref USB_configuration
 715:.\Generated_Source\PSoC5/USB.c **** *
 716:.\Generated_Source\PSoC5/USB.c **** *   USB_deviceAddress - Contains the current device address. This
 717:.\Generated_Source\PSoC5/USB.c **** *       variable is initialized to zero in this API. The Host starts to communicate
 718:.\Generated_Source\PSoC5/USB.c **** *      to the device with address 0 and then sets it to a whatever value using
 719:.\Generated_Source\PSoC5/USB.c **** *      a SET_ADDRESS request.
 720:.\Generated_Source\PSoC5/USB.c **** *
 721:.\Generated_Source\PSoC5/USB.c **** *   \ref USB_deviceStatus
 722:.\Generated_Source\PSoC5/USB.c **** *
 723:.\Generated_Source\PSoC5/USB.c **** *   \ref USB_configurationChanged
 724:.\Generated_Source\PSoC5/USB.c **** *
ARM GAS  C:\Users\cruiser\AppData\Local\Temp\cc8SekaC.s 			page 21


 725:.\Generated_Source\PSoC5/USB.c **** *   USB_intiVar -  This variable is set to zero
 726:.\Generated_Source\PSoC5/USB.c **** *
 727:.\Generated_Source\PSoC5/USB.c **** *******************************************************************************/
 728:.\Generated_Source\PSoC5/USB.c **** void USB_Stop(void) 
 729:.\Generated_Source\PSoC5/USB.c **** {
 412              		.loc 1 729 0
 413              		.cfi_startproc
 414              		@ args = 0, pretend = 0, frame = 0
 415              		@ frame_needed = 0, uses_anonymous_args = 0
 416 0000 08B5     		push	{r3, lr}
 417              		.cfi_def_cfa_offset 8
 418              		.cfi_offset 3, -8
 419              		.cfi_offset 14, -4
 730:.\Generated_Source\PSoC5/USB.c ****     uint8 enableInterrupts;
 731:.\Generated_Source\PSoC5/USB.c **** 
 732:.\Generated_Source\PSoC5/USB.c **** #if (USB_EP_MANAGEMENT_DMA)
 733:.\Generated_Source\PSoC5/USB.c ****     /* Stop all DMA channels. */
 734:.\Generated_Source\PSoC5/USB.c ****     USB_Stop_DMA(USB_MAX_EP);
 735:.\Generated_Source\PSoC5/USB.c **** #endif /* (USB_EP_MANAGEMENT_DMA) */
 736:.\Generated_Source\PSoC5/USB.c **** 
 737:.\Generated_Source\PSoC5/USB.c ****     enableInterrupts = CyEnterCriticalSection();
 420              		.loc 1 737 0
 421 0002 FFF7FEFF 		bl	CyEnterCriticalSection
 422              	.LVL22:
 738:.\Generated_Source\PSoC5/USB.c **** 
 739:.\Generated_Source\PSoC5/USB.c ****     /* Disable USB IP to respond to USB traffic. */
 740:.\Generated_Source\PSoC5/USB.c ****     USB_CR0_REG &= (uint8) ~USB_CR0_ENABLE;
 423              		.loc 1 740 0
 424 0006 174A     		ldr	r2, .L24
 425 0008 1378     		ldrb	r3, [r2]	@ zero_extendqisi2
 426 000a 03F07F03 		and	r3, r3, #127
 427 000e 1370     		strb	r3, [r2]
 741:.\Generated_Source\PSoC5/USB.c **** 
 742:.\Generated_Source\PSoC5/USB.c ****     /* Disable D+ pull-up. */
 743:.\Generated_Source\PSoC5/USB.c ****     USB_USBIO_CR1_REG &= (uint8) ~ USB_USBIO_CR1_USBPUEN;
 428              		.loc 1 743 0
 429 0010 0A32     		adds	r2, r2, #10
 430 0012 1378     		ldrb	r3, [r2]	@ zero_extendqisi2
 431 0014 03F0FB03 		and	r3, r3, #251
 432 0018 1370     		strb	r3, [r2]
 744:.\Generated_Source\PSoC5/USB.c **** 
 745:.\Generated_Source\PSoC5/USB.c **** #if (CY_PSOC4)
 746:.\Generated_Source\PSoC5/USB.c ****     /* Disable USBFS block. */
 747:.\Generated_Source\PSoC5/USB.c ****     USB_POWER_CTRL_REG &= (uint32) ~USB_POWER_CTRL_ENABLE;
 748:.\Generated_Source\PSoC5/USB.c **** #else
 749:.\Generated_Source\PSoC5/USB.c ****     /* Clear power active and standby mode templates. */
 750:.\Generated_Source\PSoC5/USB.c ****     USB_PM_ACT_CFG_REG  &= (uint8) ~USB_PM_ACT_EN_FSUSB;
 433              		.loc 1 750 0
 434 001a A2F5E352 		sub	r2, r2, #7264
 435 001e 0D3A     		subs	r2, r2, #13
 436 0020 1378     		ldrb	r3, [r2]	@ zero_extendqisi2
 437 0022 03F0FE03 		and	r3, r3, #254
 438 0026 1370     		strb	r3, [r2]
 751:.\Generated_Source\PSoC5/USB.c ****     USB_PM_STBY_CFG_REG &= (uint8) ~USB_PM_STBY_EN_FSUSB;
 439              		.loc 1 751 0
 440 0028 1032     		adds	r2, r2, #16
 441 002a 1378     		ldrb	r3, [r2]	@ zero_extendqisi2
ARM GAS  C:\Users\cruiser\AppData\Local\Temp\cc8SekaC.s 			page 22


 442 002c 03F0FE03 		and	r3, r3, #254
 443 0030 1370     		strb	r3, [r2]
 752:.\Generated_Source\PSoC5/USB.c **** #endif /* (CY_PSOC4) */
 753:.\Generated_Source\PSoC5/USB.c **** 
 754:.\Generated_Source\PSoC5/USB.c ****     CyExitCriticalSection(enableInterrupts);
 444              		.loc 1 754 0
 445 0032 FFF7FEFF 		bl	CyExitCriticalSection
 446              	.LVL23:
 755:.\Generated_Source\PSoC5/USB.c **** 
 756:.\Generated_Source\PSoC5/USB.c ****     /* Disable component interrupts. */
 757:.\Generated_Source\PSoC5/USB.c **** #if (CY_PSOC4)
 758:.\Generated_Source\PSoC5/USB.c ****     CyIntDisable(USB_INTR_HI_VECT_NUM);
 759:.\Generated_Source\PSoC5/USB.c ****     CyIntDisable(USB_INTR_LO_VECT_NUM);
 760:.\Generated_Source\PSoC5/USB.c ****     CyIntDisable(USB_INTR_MED_VECT_NUM);
 761:.\Generated_Source\PSoC5/USB.c **** #else
 762:.\Generated_Source\PSoC5/USB.c **** 
 763:.\Generated_Source\PSoC5/USB.c ****     CyIntDisable(USB_BUS_RESET_VECT_NUM);
 447              		.loc 1 763 0
 448 0036 0C4B     		ldr	r3, .L24+4
 449 0038 4FF40002 		mov	r2, #8388608
 450 003c 1A60     		str	r2, [r3]
 764:.\Generated_Source\PSoC5/USB.c ****     CyIntDisable(USB_EP_0_VECT_NUM);
 451              		.loc 1 764 0
 452 003e 4FF08072 		mov	r2, #16777216
 453 0042 1A60     		str	r2, [r3]
 765:.\Generated_Source\PSoC5/USB.c **** 
 766:.\Generated_Source\PSoC5/USB.c ****     #if (USB_SOF_ISR_ACTIVE)
 767:.\Generated_Source\PSoC5/USB.c ****         CyIntDisable(USB_SOF_VECT_NUM);
 768:.\Generated_Source\PSoC5/USB.c ****     #endif /* (USB_SOF_ISR_ACTIVE) */
 769:.\Generated_Source\PSoC5/USB.c **** 
 770:.\Generated_Source\PSoC5/USB.c ****     #if (USB_EP1_ISR_ACTIVE)
 771:.\Generated_Source\PSoC5/USB.c ****         CyIntDisable(USB_EP_1_VECT_NUM);
 454              		.loc 1 771 0
 455 0044 0822     		movs	r2, #8
 456 0046 1A60     		str	r2, [r3]
 772:.\Generated_Source\PSoC5/USB.c ****     #endif /* (USB_EP1_ISR_ACTIVE) */
 773:.\Generated_Source\PSoC5/USB.c **** 
 774:.\Generated_Source\PSoC5/USB.c ****     #if (USB_EP2_ISR_ACTIVE)
 775:.\Generated_Source\PSoC5/USB.c ****         CyIntDisable(USB_EP_2_VECT_NUM);
 776:.\Generated_Source\PSoC5/USB.c ****     #endif /* (USB_EP2_ISR_ACTIVE) */
 777:.\Generated_Source\PSoC5/USB.c **** 
 778:.\Generated_Source\PSoC5/USB.c ****     #if (USB_EP3_ISR_ACTIVE)
 779:.\Generated_Source\PSoC5/USB.c ****         CyIntDisable(USB_EP_3_VECT_NUM);
 780:.\Generated_Source\PSoC5/USB.c ****     #endif /* (USB_EP3_ISR_ACTIVE) */
 781:.\Generated_Source\PSoC5/USB.c **** 
 782:.\Generated_Source\PSoC5/USB.c ****     #if (USB_EP4_ISR_ACTIVE)
 783:.\Generated_Source\PSoC5/USB.c ****         CyIntDisable(USB_EP_4_VECT_NUM);
 784:.\Generated_Source\PSoC5/USB.c ****     #endif /* (USB_EP4_ISR_ACTIVE) */
 785:.\Generated_Source\PSoC5/USB.c **** 
 786:.\Generated_Source\PSoC5/USB.c ****     #if (USB_EP5_ISR_ACTIVE)
 787:.\Generated_Source\PSoC5/USB.c ****         CyIntDisable(USB_EP_5_VECT_NUM);
 788:.\Generated_Source\PSoC5/USB.c ****     #endif /* (USB_EP5_ISR_ACTIVE) */
 789:.\Generated_Source\PSoC5/USB.c **** 
 790:.\Generated_Source\PSoC5/USB.c ****     #if (USB_EP6_ISR_ACTIVE)
 791:.\Generated_Source\PSoC5/USB.c ****         CyIntDisable(USB_EP_6_VECT_NUM);
 792:.\Generated_Source\PSoC5/USB.c ****     #endif /* USB_EP6_ISR_REMOVE */
 793:.\Generated_Source\PSoC5/USB.c **** 
ARM GAS  C:\Users\cruiser\AppData\Local\Temp\cc8SekaC.s 			page 23


 794:.\Generated_Source\PSoC5/USB.c ****     #if (USB_EP7_ISR_ACTIVE)
 795:.\Generated_Source\PSoC5/USB.c ****         CyIntDisable(USB_EP_7_VECT_NUM);
 796:.\Generated_Source\PSoC5/USB.c ****     #endif /* (USB_EP7_ISR_ACTIVE) */
 797:.\Generated_Source\PSoC5/USB.c **** 
 798:.\Generated_Source\PSoC5/USB.c ****     #if (USB_EP8_ISR_ACTIVE)
 799:.\Generated_Source\PSoC5/USB.c ****         CyIntDisable(USB_EP_8_VECT_NUM);
 800:.\Generated_Source\PSoC5/USB.c ****     #endif /* (USB_EP8_ISR_ACTIVE) */
 801:.\Generated_Source\PSoC5/USB.c **** #endif /* (CY_PSOC4) */
 802:.\Generated_Source\PSoC5/USB.c **** 
 803:.\Generated_Source\PSoC5/USB.c ****     /* Reset component internal variables. */
 804:.\Generated_Source\PSoC5/USB.c ****     USB_configurationChanged = 0u;
 457              		.loc 1 804 0
 458 0048 0023     		movs	r3, #0
 459 004a 084A     		ldr	r2, .L24+8
 460 004c 1370     		strb	r3, [r2]
 805:.\Generated_Source\PSoC5/USB.c ****     USB_configuration   = 0u;
 461              		.loc 1 805 0
 462 004e 084A     		ldr	r2, .L24+12
 463 0050 1370     		strb	r3, [r2]
 806:.\Generated_Source\PSoC5/USB.c ****     USB_interfaceNumber = 0u;
 464              		.loc 1 806 0
 465 0052 084A     		ldr	r2, .L24+16
 466 0054 1370     		strb	r3, [r2]
 807:.\Generated_Source\PSoC5/USB.c ****     USB_deviceAddress   = 0u;
 467              		.loc 1 807 0
 468 0056 084A     		ldr	r2, .L24+20
 469 0058 1370     		strb	r3, [r2]
 808:.\Generated_Source\PSoC5/USB.c ****     USB_deviceStatus    = 0u;
 470              		.loc 1 808 0
 471 005a 084A     		ldr	r2, .L24+24
 472 005c 1370     		strb	r3, [r2]
 809:.\Generated_Source\PSoC5/USB.c **** 
 810:.\Generated_Source\PSoC5/USB.c ****     /* It is mandatory for correct device startup. */
 811:.\Generated_Source\PSoC5/USB.c ****     USB_initVar = 0u;
 473              		.loc 1 811 0
 474 005e 084A     		ldr	r2, .L24+28
 475 0060 1370     		strb	r3, [r2]
 476 0062 08BD     		pop	{r3, pc}
 477              	.L25:
 478              		.align	2
 479              	.L24:
 480 0064 08600040 		.word	1073766408
 481 0068 80E100E0 		.word	-536813184
 482 006c 00000000 		.word	USB_configurationChanged
 483 0070 00000000 		.word	USB_configuration
 484 0074 00000000 		.word	USB_interfaceNumber
 485 0078 00000000 		.word	USB_deviceAddress
 486 007c 00000000 		.word	USB_deviceStatus
 487 0080 00000000 		.word	.LANCHOR0
 488              		.cfi_endproc
 489              	.LFE4:
 490              		.size	USB_Stop, .-USB_Stop
 491              		.section	.text.USB_CheckActivity,"ax",%progbits
 492              		.align	2
 493              		.global	USB_CheckActivity
 494              		.thumb
 495              		.thumb_func
ARM GAS  C:\Users\cruiser\AppData\Local\Temp\cc8SekaC.s 			page 24


 496              		.type	USB_CheckActivity, %function
 497              	USB_CheckActivity:
 498              	.LFB5:
 812:.\Generated_Source\PSoC5/USB.c **** }
 813:.\Generated_Source\PSoC5/USB.c **** 
 814:.\Generated_Source\PSoC5/USB.c **** 
 815:.\Generated_Source\PSoC5/USB.c **** /*******************************************************************************
 816:.\Generated_Source\PSoC5/USB.c **** * Function Name: USB_CheckActivity
 817:.\Generated_Source\PSoC5/USB.c **** ****************************************************************************//**
 818:.\Generated_Source\PSoC5/USB.c **** *
 819:.\Generated_Source\PSoC5/USB.c **** *  This function returns the activity status of the bus. It clears the hardware
 820:.\Generated_Source\PSoC5/USB.c **** *  status to provide updated status on the next call of this function. It
 821:.\Generated_Source\PSoC5/USB.c **** *  provides a way to determine whether any USB bus activity occurred. The
 822:.\Generated_Source\PSoC5/USB.c **** *  application should use this function to determine if the USB suspend
 823:.\Generated_Source\PSoC5/USB.c **** *  conditions are met.
 824:.\Generated_Source\PSoC5/USB.c **** *
 825:.\Generated_Source\PSoC5/USB.c **** *
 826:.\Generated_Source\PSoC5/USB.c **** * \return
 827:.\Generated_Source\PSoC5/USB.c **** *  cystatus: Status of the bus since the last call of the function.
 828:.\Generated_Source\PSoC5/USB.c **** *  Return Value |   Description
 829:.\Generated_Source\PSoC5/USB.c **** *  -------------|---------------------------------------------------------------
 830:.\Generated_Source\PSoC5/USB.c **** *  1            |Bus activity was detected since the last call to this function
 831:.\Generated_Source\PSoC5/USB.c **** *  0            |Bus activity was not detected since the last call to this function
 832:.\Generated_Source\PSoC5/USB.c **** *
 833:.\Generated_Source\PSoC5/USB.c **** *
 834:.\Generated_Source\PSoC5/USB.c **** *******************************************************************************/
 835:.\Generated_Source\PSoC5/USB.c **** uint8 USB_CheckActivity(void) 
 836:.\Generated_Source\PSoC5/USB.c **** {
 499              		.loc 1 836 0
 500              		.cfi_startproc
 501              		@ args = 0, pretend = 0, frame = 0
 502              		@ frame_needed = 0, uses_anonymous_args = 0
 503              		@ link register save eliminated.
 837:.\Generated_Source\PSoC5/USB.c ****     uint8 cr1Reg = USB_CR1_REG;
 504              		.loc 1 837 0
 505 0000 064A     		ldr	r2, .L28
 506 0002 1378     		ldrb	r3, [r2]	@ zero_extendqisi2
 507 0004 DBB2     		uxtb	r3, r3
 508              	.LVL24:
 838:.\Generated_Source\PSoC5/USB.c **** 
 839:.\Generated_Source\PSoC5/USB.c ****     /* Clear bus activity. */
 840:.\Generated_Source\PSoC5/USB.c ****     USB_CR1_REG = (cr1Reg & (uint8) ~USB_CR1_BUS_ACTIVITY);
 509              		.loc 1 840 0
 510 0006 03F0FB01 		and	r1, r3, #251
 511 000a 1170     		strb	r1, [r2]
 841:.\Generated_Source\PSoC5/USB.c **** 
 842:.\Generated_Source\PSoC5/USB.c ****     /* Get bus activity. */
 843:.\Generated_Source\PSoC5/USB.c ****     return ((0u != (cr1Reg & USB_CR1_BUS_ACTIVITY)) ? (1u) : (0u));
 512              		.loc 1 843 0
 513 000c 03F00403 		and	r3, r3, #4
 514              	.LVL25:
 515 0010 03F0FF00 		and	r0, r3, #255
 516 0014 03B1     		cbz	r3, .L27
 517 0016 0120     		movs	r0, #1
 518              	.L27:
 844:.\Generated_Source\PSoC5/USB.c **** }
 519              		.loc 1 844 0 discriminator 4
ARM GAS  C:\Users\cruiser\AppData\Local\Temp\cc8SekaC.s 			page 25


 520 0018 7047     		bx	lr
 521              	.L29:
 522 001a 00BF     		.align	2
 523              	.L28:
 524 001c 09600040 		.word	1073766409
 525              		.cfi_endproc
 526              	.LFE5:
 527              		.size	USB_CheckActivity, .-USB_CheckActivity
 528              		.section	.text.USB_GetConfiguration,"ax",%progbits
 529              		.align	2
 530              		.global	USB_GetConfiguration
 531              		.thumb
 532              		.thumb_func
 533              		.type	USB_GetConfiguration, %function
 534              	USB_GetConfiguration:
 535              	.LFB6:
 845:.\Generated_Source\PSoC5/USB.c **** 
 846:.\Generated_Source\PSoC5/USB.c **** 
 847:.\Generated_Source\PSoC5/USB.c **** /*******************************************************************************
 848:.\Generated_Source\PSoC5/USB.c **** * Function Name: USB_GetConfiguration
 849:.\Generated_Source\PSoC5/USB.c **** ****************************************************************************//**
 850:.\Generated_Source\PSoC5/USB.c **** *
 851:.\Generated_Source\PSoC5/USB.c **** *  This function gets the current configuration of the USB device.
 852:.\Generated_Source\PSoC5/USB.c **** *
 853:.\Generated_Source\PSoC5/USB.c **** * \return
 854:.\Generated_Source\PSoC5/USB.c **** *  Returns the currently assigned configuration. Returns 0 if the device
 855:.\Generated_Source\PSoC5/USB.c **** *  is not configured
 856:.\Generated_Source\PSoC5/USB.c **** *
 857:.\Generated_Source\PSoC5/USB.c **** *******************************************************************************/
 858:.\Generated_Source\PSoC5/USB.c **** uint8 USB_GetConfiguration(void) 
 859:.\Generated_Source\PSoC5/USB.c **** {
 536              		.loc 1 859 0
 537              		.cfi_startproc
 538              		@ args = 0, pretend = 0, frame = 0
 539              		@ frame_needed = 0, uses_anonymous_args = 0
 540              		@ link register save eliminated.
 860:.\Generated_Source\PSoC5/USB.c ****     return (USB_configuration);
 541              		.loc 1 860 0
 542 0000 014B     		ldr	r3, .L31
 543 0002 1878     		ldrb	r0, [r3]	@ zero_extendqisi2
 861:.\Generated_Source\PSoC5/USB.c **** }
 544              		.loc 1 861 0
 545 0004 7047     		bx	lr
 546              	.L32:
 547 0006 00BF     		.align	2
 548              	.L31:
 549 0008 00000000 		.word	USB_configuration
 550              		.cfi_endproc
 551              	.LFE6:
 552              		.size	USB_GetConfiguration, .-USB_GetConfiguration
 553              		.section	.text.USB_IsConfigurationChanged,"ax",%progbits
 554              		.align	2
 555              		.global	USB_IsConfigurationChanged
 556              		.thumb
 557              		.thumb_func
 558              		.type	USB_IsConfigurationChanged, %function
 559              	USB_IsConfigurationChanged:
ARM GAS  C:\Users\cruiser\AppData\Local\Temp\cc8SekaC.s 			page 26


 560              	.LFB7:
 862:.\Generated_Source\PSoC5/USB.c **** 
 863:.\Generated_Source\PSoC5/USB.c **** 
 864:.\Generated_Source\PSoC5/USB.c **** /*******************************************************************************
 865:.\Generated_Source\PSoC5/USB.c **** * Function Name: USB_IsConfigurationChanged
 866:.\Generated_Source\PSoC5/USB.c **** ****************************************************************************//**
 867:.\Generated_Source\PSoC5/USB.c **** *
 868:.\Generated_Source\PSoC5/USB.c **** *  This function returns the clear-on-read configuration state.  It is useful
 869:.\Generated_Source\PSoC5/USB.c **** *  when the host sends double SET_CONFIGURATION request with the same 
 870:.\Generated_Source\PSoC5/USB.c **** *  configuration number or changes alternate settings of the interface. 
 871:.\Generated_Source\PSoC5/USB.c **** *  After configuration has been changed the OUT endpoints must be enabled and IN 
 872:.\Generated_Source\PSoC5/USB.c **** *  endpoint must be loaded with data to start communication with the host.
 873:.\Generated_Source\PSoC5/USB.c **** *
 874:.\Generated_Source\PSoC5/USB.c **** * \return
 875:.\Generated_Source\PSoC5/USB.c **** *  None-zero value when new configuration has been changed, otherwise zero is
 876:.\Generated_Source\PSoC5/USB.c **** *  returned.
 877:.\Generated_Source\PSoC5/USB.c **** *
 878:.\Generated_Source\PSoC5/USB.c **** * \globalvars
 879:.\Generated_Source\PSoC5/USB.c **** *
 880:.\Generated_Source\PSoC5/USB.c **** *  \ref USB_configurationChanged - This variable is set to 1 after
 881:.\Generated_Source\PSoC5/USB.c **** *   a SET_CONFIGURATION request and cleared in this function.
 882:.\Generated_Source\PSoC5/USB.c **** *
 883:.\Generated_Source\PSoC5/USB.c **** *******************************************************************************/
 884:.\Generated_Source\PSoC5/USB.c **** uint8 USB_IsConfigurationChanged(void) 
 885:.\Generated_Source\PSoC5/USB.c **** {
 561              		.loc 1 885 0
 562              		.cfi_startproc
 563              		@ args = 0, pretend = 0, frame = 0
 564              		@ frame_needed = 0, uses_anonymous_args = 0
 565              		@ link register save eliminated.
 566              	.LVL26:
 886:.\Generated_Source\PSoC5/USB.c ****     uint8 res = 0u;
 887:.\Generated_Source\PSoC5/USB.c **** 
 888:.\Generated_Source\PSoC5/USB.c ****     if (USB_configurationChanged != 0u)
 567              		.loc 1 888 0
 568 0000 064B     		ldr	r3, .L36
 569 0002 1B78     		ldrb	r3, [r3]	@ zero_extendqisi2
 570 0004 13F0FF0F 		tst	r3, #255
 571 0008 05D0     		beq	.L35
 889:.\Generated_Source\PSoC5/USB.c ****     {
 890:.\Generated_Source\PSoC5/USB.c ****         res = USB_configurationChanged;
 572              		.loc 1 890 0
 573 000a 044B     		ldr	r3, .L36
 574 000c 1878     		ldrb	r0, [r3]	@ zero_extendqisi2
 575 000e C0B2     		uxtb	r0, r0
 576              	.LVL27:
 891:.\Generated_Source\PSoC5/USB.c ****         USB_configurationChanged = 0u;
 577              		.loc 1 891 0
 578 0010 0022     		movs	r2, #0
 579 0012 1A70     		strb	r2, [r3]
 580 0014 7047     		bx	lr
 581              	.LVL28:
 582              	.L35:
 886:.\Generated_Source\PSoC5/USB.c ****     uint8 res = 0u;
 583              		.loc 1 886 0
 584 0016 0020     		movs	r0, #0
 585              	.LVL29:
ARM GAS  C:\Users\cruiser\AppData\Local\Temp\cc8SekaC.s 			page 27


 892:.\Generated_Source\PSoC5/USB.c ****     }
 893:.\Generated_Source\PSoC5/USB.c **** 
 894:.\Generated_Source\PSoC5/USB.c ****     return (res);
 895:.\Generated_Source\PSoC5/USB.c **** }
 586              		.loc 1 895 0
 587 0018 7047     		bx	lr
 588              	.L37:
 589 001a 00BF     		.align	2
 590              	.L36:
 591 001c 00000000 		.word	USB_configurationChanged
 592              		.cfi_endproc
 593              	.LFE7:
 594              		.size	USB_IsConfigurationChanged, .-USB_IsConfigurationChanged
 595              		.section	.text.USB_GetInterfaceSetting,"ax",%progbits
 596              		.align	2
 597              		.global	USB_GetInterfaceSetting
 598              		.thumb
 599              		.thumb_func
 600              		.type	USB_GetInterfaceSetting, %function
 601              	USB_GetInterfaceSetting:
 602              	.LFB8:
 896:.\Generated_Source\PSoC5/USB.c **** 
 897:.\Generated_Source\PSoC5/USB.c **** 
 898:.\Generated_Source\PSoC5/USB.c **** /*******************************************************************************
 899:.\Generated_Source\PSoC5/USB.c **** * Function Name: USB_GetInterfaceSetting
 900:.\Generated_Source\PSoC5/USB.c **** ****************************************************************************//**
 901:.\Generated_Source\PSoC5/USB.c **** *
 902:.\Generated_Source\PSoC5/USB.c **** *  This function gets the current alternate setting for the specified interface.
 903:.\Generated_Source\PSoC5/USB.c **** *  It is useful to identify which alternate settings are active in the specified 
 904:.\Generated_Source\PSoC5/USB.c **** *  interface.
 905:.\Generated_Source\PSoC5/USB.c **** *
 906:.\Generated_Source\PSoC5/USB.c **** *  \param
 907:.\Generated_Source\PSoC5/USB.c **** *  interfaceNumber interface number
 908:.\Generated_Source\PSoC5/USB.c **** *
 909:.\Generated_Source\PSoC5/USB.c **** * \return
 910:.\Generated_Source\PSoC5/USB.c **** *  Returns the current alternate setting for the specified interface.
 911:.\Generated_Source\PSoC5/USB.c **** *
 912:.\Generated_Source\PSoC5/USB.c **** *******************************************************************************/
 913:.\Generated_Source\PSoC5/USB.c **** uint8  USB_GetInterfaceSetting(uint8 interfaceNumber)
 914:.\Generated_Source\PSoC5/USB.c ****                                                     
 915:.\Generated_Source\PSoC5/USB.c **** {
 603              		.loc 1 915 0
 604              		.cfi_startproc
 605              		@ args = 0, pretend = 0, frame = 0
 606              		@ frame_needed = 0, uses_anonymous_args = 0
 607              		@ link register save eliminated.
 608              	.LVL30:
 916:.\Generated_Source\PSoC5/USB.c ****     return (USB_interfaceSetting[interfaceNumber]);
 609              		.loc 1 916 0
 610 0000 014B     		ldr	r3, .L39
 611 0002 185C     		ldrb	r0, [r3, r0]	@ zero_extendqisi2
 612              	.LVL31:
 917:.\Generated_Source\PSoC5/USB.c **** }
 613              		.loc 1 917 0
 614 0004 7047     		bx	lr
 615              	.L40:
 616 0006 00BF     		.align	2
ARM GAS  C:\Users\cruiser\AppData\Local\Temp\cc8SekaC.s 			page 28


 617              	.L39:
 618 0008 00000000 		.word	USB_interfaceSetting
 619              		.cfi_endproc
 620              	.LFE8:
 621              		.size	USB_GetInterfaceSetting, .-USB_GetInterfaceSetting
 622              		.section	.text.USB_GetEPState,"ax",%progbits
 623              		.align	2
 624              		.global	USB_GetEPState
 625              		.thumb
 626              		.thumb_func
 627              		.type	USB_GetEPState, %function
 628              	USB_GetEPState:
 629              	.LFB9:
 918:.\Generated_Source\PSoC5/USB.c **** 
 919:.\Generated_Source\PSoC5/USB.c **** 
 920:.\Generated_Source\PSoC5/USB.c **** /*******************************************************************************
 921:.\Generated_Source\PSoC5/USB.c **** * Function Name: USB_GetEPState
 922:.\Generated_Source\PSoC5/USB.c **** ****************************************************************************//**
 923:.\Generated_Source\PSoC5/USB.c **** *
 924:.\Generated_Source\PSoC5/USB.c **** *  This function returns the state of the requested endpoint.
 925:.\Generated_Source\PSoC5/USB.c **** *
 926:.\Generated_Source\PSoC5/USB.c **** * \param epNumber Data endpoint number
 927:.\Generated_Source\PSoC5/USB.c **** *
 928:.\Generated_Source\PSoC5/USB.c **** * \return
 929:.\Generated_Source\PSoC5/USB.c **** *  Returns the current state of the specified USBFS endpoint. Symbolic names and
 930:.\Generated_Source\PSoC5/USB.c **** *  their associated values are given in the following table. Use these constants
 931:.\Generated_Source\PSoC5/USB.c **** *  whenever you write code to change the state of the endpoints, such as ISR
 932:.\Generated_Source\PSoC5/USB.c **** *  code, to handle data sent or received.
 933:.\Generated_Source\PSoC5/USB.c **** *
 934:.\Generated_Source\PSoC5/USB.c **** *  Return Value           | Description
 935:.\Generated_Source\PSoC5/USB.c **** *  -----------------------|-----------------------------------------------------
 936:.\Generated_Source\PSoC5/USB.c **** *  USBFS_NO_EVENT_PENDING |The endpoint is awaiting SIE action
 937:.\Generated_Source\PSoC5/USB.c **** *  USBFS_EVENT_PENDING    |The endpoint is awaiting CPU action
 938:.\Generated_Source\PSoC5/USB.c **** *  USBFS_NO_EVENT_ALLOWED |The endpoint is locked from access
 939:.\Generated_Source\PSoC5/USB.c **** *  USBFS_IN_BUFFER_FULL   |The IN endpoint is loaded and the mode is set to ACK IN
 940:.\Generated_Source\PSoC5/USB.c **** *  USBFS_IN_BUFFER_EMPTY  |An IN transaction occurred and more data can be loaded
 941:.\Generated_Source\PSoC5/USB.c **** *  USBFS_OUT_BUFFER_EMPTY |The OUT endpoint is set to ACK OUT and is waiting for data
 942:.\Generated_Source\PSoC5/USB.c **** *  USBFS_OUT_BUFFER_FULL  |An OUT transaction has occurred and data can be read
 943:.\Generated_Source\PSoC5/USB.c **** *
 944:.\Generated_Source\PSoC5/USB.c **** *******************************************************************************/
 945:.\Generated_Source\PSoC5/USB.c **** uint8 USB_GetEPState(uint8 epNumber) 
 946:.\Generated_Source\PSoC5/USB.c **** {
 630              		.loc 1 946 0
 631              		.cfi_startproc
 632              		@ args = 0, pretend = 0, frame = 0
 633              		@ frame_needed = 0, uses_anonymous_args = 0
 634              		@ link register save eliminated.
 635              	.LVL32:
 947:.\Generated_Source\PSoC5/USB.c ****     return (USB_EP[epNumber].apiEpState);
 636              		.loc 1 947 0
 637 0000 00EB4000 		add	r0, r0, r0, lsl #1
 638              	.LVL33:
 639 0004 8000     		lsls	r0, r0, #2
 640 0006 024B     		ldr	r3, .L42
 641 0008 1844     		add	r0, r0, r3
 642 000a 4078     		ldrb	r0, [r0, #1]	@ zero_extendqisi2
 948:.\Generated_Source\PSoC5/USB.c **** }
ARM GAS  C:\Users\cruiser\AppData\Local\Temp\cc8SekaC.s 			page 29


 643              		.loc 1 948 0
 644 000c 7047     		bx	lr
 645              	.L43:
 646 000e 00BF     		.align	2
 647              	.L42:
 648 0010 00000000 		.word	USB_EP
 649              		.cfi_endproc
 650              	.LFE9:
 651              		.size	USB_GetEPState, .-USB_GetEPState
 652              		.section	.text.USB_GetEPCount,"ax",%progbits
 653              		.align	2
 654              		.global	USB_GetEPCount
 655              		.thumb
 656              		.thumb_func
 657              		.type	USB_GetEPCount, %function
 658              	USB_GetEPCount:
 659              	.LFB10:
 949:.\Generated_Source\PSoC5/USB.c **** 
 950:.\Generated_Source\PSoC5/USB.c **** 
 951:.\Generated_Source\PSoC5/USB.c **** /*******************************************************************************
 952:.\Generated_Source\PSoC5/USB.c **** * Function Name: USB_GetEPCount
 953:.\Generated_Source\PSoC5/USB.c **** ****************************************************************************//**
 954:.\Generated_Source\PSoC5/USB.c **** *
 955:.\Generated_Source\PSoC5/USB.c **** *  This function supports Data Endpoints only(EP1-EP8).
 956:.\Generated_Source\PSoC5/USB.c **** *  Returns the transfer count for the requested endpoint.  The value from
 957:.\Generated_Source\PSoC5/USB.c **** *  the count registers includes 2 counts for the two byte checksum of the
 958:.\Generated_Source\PSoC5/USB.c **** *  packet.  This function subtracts the two counts.
 959:.\Generated_Source\PSoC5/USB.c **** *
 960:.\Generated_Source\PSoC5/USB.c **** *  \param epNumber Data Endpoint Number.
 961:.\Generated_Source\PSoC5/USB.c **** *                   Valid values are between 1 and 8.
 962:.\Generated_Source\PSoC5/USB.c **** *
 963:.\Generated_Source\PSoC5/USB.c **** * \return
 964:.\Generated_Source\PSoC5/USB.c **** *  Returns the current byte count from the specified endpoint or 0 for an
 965:.\Generated_Source\PSoC5/USB.c **** *  invalid endpoint.
 966:.\Generated_Source\PSoC5/USB.c **** *
 967:.\Generated_Source\PSoC5/USB.c **** *******************************************************************************/
 968:.\Generated_Source\PSoC5/USB.c **** uint16 USB_GetEPCount(uint8 epNumber) 
 969:.\Generated_Source\PSoC5/USB.c **** {
 660              		.loc 1 969 0
 661              		.cfi_startproc
 662              		@ args = 0, pretend = 0, frame = 0
 663              		@ frame_needed = 0, uses_anonymous_args = 0
 664              		@ link register save eliminated.
 665              	.LVL34:
 970:.\Generated_Source\PSoC5/USB.c ****     uint16 cntr = 0u;
 971:.\Generated_Source\PSoC5/USB.c **** 
 972:.\Generated_Source\PSoC5/USB.c ****     if ((epNumber > USB_EP0) && (epNumber < USB_MAX_EP))
 666              		.loc 1 972 0
 667 0000 431E     		subs	r3, r0, #1
 668 0002 DBB2     		uxtb	r3, r3
 669 0004 072B     		cmp	r3, #7
 670 0006 0BD8     		bhi	.L46
 973:.\Generated_Source\PSoC5/USB.c ****     {
 974:.\Generated_Source\PSoC5/USB.c ****         /* Get 11-bits EP counter where epCnt0 - 3 bits MSB and epCnt1 - 8 bits LSB. */
 975:.\Generated_Source\PSoC5/USB.c ****         cntr  = ((uint16) USB_SIE_EP_BASE.sieEp[epNumber].epCnt0) & USB_EPX_CNT0_MASK;
 671              		.loc 1 975 0
 672 0008 064B     		ldr	r3, .L47
ARM GAS  C:\Users\cruiser\AppData\Local\Temp\cc8SekaC.s 			page 30


 673 000a 0001     		lsls	r0, r0, #4
 674              	.LVL35:
 675 000c 1A18     		adds	r2, r3, r0
 676 000e 185C     		ldrb	r0, [r3, r0]	@ zero_extendqisi2
 677 0010 00F00F00 		and	r0, r0, #15
 678              	.LVL36:
 976:.\Generated_Source\PSoC5/USB.c ****         cntr  = ((uint16) (cntr << 8u)) | ((uint16) USB_SIE_EP_BASE.sieEp[epNumber].epCnt1);
 679              		.loc 1 976 0
 680 0014 5378     		ldrb	r3, [r2, #1]	@ zero_extendqisi2
 681 0016 43EA0020 		orr	r0, r3, r0, lsl #8
 682              	.LVL37:
 977:.\Generated_Source\PSoC5/USB.c ****         cntr -= USB_EPX_CNTX_CRC_COUNT;
 683              		.loc 1 977 0
 684 001a 0238     		subs	r0, r0, #2
 685              	.LVL38:
 686 001c 80B2     		uxth	r0, r0
 687              	.LVL39:
 688 001e 7047     		bx	lr
 689              	.LVL40:
 690              	.L46:
 970:.\Generated_Source\PSoC5/USB.c **** 
 691              		.loc 1 970 0
 692 0020 0020     		movs	r0, #0
 693              	.LVL41:
 978:.\Generated_Source\PSoC5/USB.c ****     }
 979:.\Generated_Source\PSoC5/USB.c **** 
 980:.\Generated_Source\PSoC5/USB.c ****     return (cntr);
 981:.\Generated_Source\PSoC5/USB.c **** }
 694              		.loc 1 981 0
 695 0022 7047     		bx	lr
 696              	.L48:
 697              		.align	2
 698              	.L47:
 699 0024 FC5F0040 		.word	1073766396
 700              		.cfi_endproc
 701              	.LFE10:
 702              		.size	USB_GetEPCount, .-USB_GetEPCount
 703              		.section	.text.USB_LoadInEP,"ax",%progbits
 704              		.align	2
 705              		.global	USB_LoadInEP
 706              		.thumb
 707              		.thumb_func
 708              		.type	USB_LoadInEP, %function
 709              	USB_LoadInEP:
 710              	.LFB11:
 982:.\Generated_Source\PSoC5/USB.c **** 
 983:.\Generated_Source\PSoC5/USB.c **** 
 984:.\Generated_Source\PSoC5/USB.c **** #if (USB_EP_MANAGEMENT_DMA)
 985:.\Generated_Source\PSoC5/USB.c **** #if (CY_PSOC4)
 986:.\Generated_Source\PSoC5/USB.c ****     /*******************************************************************************
 987:.\Generated_Source\PSoC5/USB.c ****     * Function Name: USB_InitEpDma
 988:.\Generated_Source\PSoC5/USB.c ****     ****************************************************************************//**
 989:.\Generated_Source\PSoC5/USB.c ****     *
 990:.\Generated_Source\PSoC5/USB.c ****     *  This function configures priority for all DMA channels utilized by the
 991:.\Generated_Source\PSoC5/USB.c ****     *  component. Also sets callbacks for DMA auto mode.
 992:.\Generated_Source\PSoC5/USB.c ****     *
 993:.\Generated_Source\PSoC5/USB.c ****     *******************************************************************************/
ARM GAS  C:\Users\cruiser\AppData\Local\Temp\cc8SekaC.s 			page 31


 994:.\Generated_Source\PSoC5/USB.c ****     static void USB_InitEpDma(void)
 995:.\Generated_Source\PSoC5/USB.c ****     {
 996:.\Generated_Source\PSoC5/USB.c ****     #if (USB_DMA1_ACTIVE)
 997:.\Generated_Source\PSoC5/USB.c ****         CYDMA_CH_CTL_BASE.ctl[USB_ep1_dma_CHANNEL] = USB_ep1_dma_CHANNEL_CFG;
 998:.\Generated_Source\PSoC5/USB.c ****     #endif /* (USB_DMA1_ACTIVE) */
 999:.\Generated_Source\PSoC5/USB.c **** 
1000:.\Generated_Source\PSoC5/USB.c ****     #if (USB_DMA2_ACTIVE)
1001:.\Generated_Source\PSoC5/USB.c ****         CYDMA_CH_CTL_BASE.ctl[USB_ep2_dma_CHANNEL] = USB_ep2_dma_CHANNEL_CFG;
1002:.\Generated_Source\PSoC5/USB.c ****     #endif /* (USB_DMA2_ACTIVE) */
1003:.\Generated_Source\PSoC5/USB.c **** 
1004:.\Generated_Source\PSoC5/USB.c ****     #if (USB_DMA3_ACTIVE)
1005:.\Generated_Source\PSoC5/USB.c ****         CYDMA_CH_CTL_BASE.ctl[USB_ep3_dma_CHANNEL] = USB_ep3_dma_CHANNEL_CFG;
1006:.\Generated_Source\PSoC5/USB.c ****     #endif /* (USB_DMA3_ACTIVE) */
1007:.\Generated_Source\PSoC5/USB.c **** 
1008:.\Generated_Source\PSoC5/USB.c ****     #if (USB_DMA4_ACTIVE)
1009:.\Generated_Source\PSoC5/USB.c ****         CYDMA_CH_CTL_BASE.ctl[USB_ep4_dma_CHANNEL] = USB_ep4_dma_CHANNEL_CFG;
1010:.\Generated_Source\PSoC5/USB.c ****     #endif /* (USB_DMA4_ACTIVE) */
1011:.\Generated_Source\PSoC5/USB.c **** 
1012:.\Generated_Source\PSoC5/USB.c ****     #if (USB_DMA5_ACTIVE)
1013:.\Generated_Source\PSoC5/USB.c ****         CYDMA_CH_CTL_BASE.ctl[USB_ep5_dma_CHANNEL] = USB_ep5_dma_CHANNEL_CFG;
1014:.\Generated_Source\PSoC5/USB.c ****     #endif /* (USB_DMA5_ACTIVE) */
1015:.\Generated_Source\PSoC5/USB.c **** 
1016:.\Generated_Source\PSoC5/USB.c ****     #if (USB_DMA6_ACTIVE)
1017:.\Generated_Source\PSoC5/USB.c ****         CYDMA_CH_CTL_BASE.ctl[USB_ep6_dma_CHANNEL] = USB_ep6_dma_CHANNEL_CFG;
1018:.\Generated_Source\PSoC5/USB.c ****     #endif /* (USB_DMA6_ACTIVE) */
1019:.\Generated_Source\PSoC5/USB.c **** 
1020:.\Generated_Source\PSoC5/USB.c ****     #if (USB_DMA7_ACTIVE)
1021:.\Generated_Source\PSoC5/USB.c ****         CYDMA_CH_CTL_BASE.ctl[USB_ep7_dma_CHANNEL] = USB_ep7_dma_CHANNEL_CFG;
1022:.\Generated_Source\PSoC5/USB.c ****     #endif /* (USB_DMA7_ACTIVE) */
1023:.\Generated_Source\PSoC5/USB.c **** 
1024:.\Generated_Source\PSoC5/USB.c ****     #if (USB_DMA8_ACTIVE)
1025:.\Generated_Source\PSoC5/USB.c ****         CYDMA_CH_CTL_BASE.ctl[USB_ep8_dma_CHANNEL] = USB_ep8_dma_CHANNEL_CFG;
1026:.\Generated_Source\PSoC5/USB.c ****     #endif /* (USB_DMA8_ACTIVE) */
1027:.\Generated_Source\PSoC5/USB.c **** 
1028:.\Generated_Source\PSoC5/USB.c ****     #if (USB_EP_MANAGEMENT_DMA_AUTO)
1029:.\Generated_Source\PSoC5/USB.c ****         /* Initialize DMA channel callbacks. */
1030:.\Generated_Source\PSoC5/USB.c ****         #if (USB_DMA1_ACTIVE)
1031:.\Generated_Source\PSoC5/USB.c ****             (void) USB_ep1_dma_SetInterruptCallback(&USB_EP1_DMA_DONE_ISR);
1032:.\Generated_Source\PSoC5/USB.c ****         #endif /* (USB_DMA1_ACTIVE) */
1033:.\Generated_Source\PSoC5/USB.c **** 
1034:.\Generated_Source\PSoC5/USB.c ****         #if (USB_DMA2_ACTIVE)
1035:.\Generated_Source\PSoC5/USB.c ****             (void) USB_ep2_dma_SetInterruptCallback(&USB_EP2_DMA_DONE_ISR);
1036:.\Generated_Source\PSoC5/USB.c ****         #endif /* (USB_DMA2_ACTIVE) */
1037:.\Generated_Source\PSoC5/USB.c **** 
1038:.\Generated_Source\PSoC5/USB.c ****         #if (USB_DMA3_ACTIVE)
1039:.\Generated_Source\PSoC5/USB.c ****             (void) USB_ep3_dma_SetInterruptCallback(&USB_EP3_DMA_DONE_ISR);
1040:.\Generated_Source\PSoC5/USB.c ****         #endif /* (USB_DMA3_ACTIVE) */
1041:.\Generated_Source\PSoC5/USB.c **** 
1042:.\Generated_Source\PSoC5/USB.c ****         #if (USB_DMA4_ACTIVE)
1043:.\Generated_Source\PSoC5/USB.c ****             (void) USB_ep4_dma_SetInterruptCallback(&USB_EP4_DMA_DONE_ISR);
1044:.\Generated_Source\PSoC5/USB.c ****         #endif /* (USB_DMA4_ACTIVE) */
1045:.\Generated_Source\PSoC5/USB.c **** 
1046:.\Generated_Source\PSoC5/USB.c ****         #if (USB_DMA5_ACTIVE)
1047:.\Generated_Source\PSoC5/USB.c ****             (void) USB_ep5_dma_SetInterruptCallback(&USB_EP5_DMA_DONE_ISR);
1048:.\Generated_Source\PSoC5/USB.c ****         #endif /* (USB_DMA5_ACTIVE) */
1049:.\Generated_Source\PSoC5/USB.c **** 
1050:.\Generated_Source\PSoC5/USB.c ****         #if (USB_DMA6_ACTIVE)
ARM GAS  C:\Users\cruiser\AppData\Local\Temp\cc8SekaC.s 			page 32


1051:.\Generated_Source\PSoC5/USB.c ****             (void) USB_ep6_dma_SetInterruptCallback(&USB_EP6_DMA_DONE_ISR);
1052:.\Generated_Source\PSoC5/USB.c ****         #endif /* (USB_DMA6_ACTIVE) */
1053:.\Generated_Source\PSoC5/USB.c **** 
1054:.\Generated_Source\PSoC5/USB.c ****         #if (USB_DMA7_ACTIVE)
1055:.\Generated_Source\PSoC5/USB.c ****             (void) USB_ep7_dma_SetInterruptCallback(&USB_EP7_DMA_DONE_ISR);
1056:.\Generated_Source\PSoC5/USB.c ****         #endif /* (USB_DMA7_ACTIVE) */
1057:.\Generated_Source\PSoC5/USB.c **** 
1058:.\Generated_Source\PSoC5/USB.c ****         #if (USB_DMA8_ACTIVE)
1059:.\Generated_Source\PSoC5/USB.c ****             (void) USB_ep8_dma_SetInterruptCallback(&USB_EP8_DMA_DONE_ISR);
1060:.\Generated_Source\PSoC5/USB.c ****         #endif /* (USB_DMA8_ACTIVE) */
1061:.\Generated_Source\PSoC5/USB.c ****     #endif /* (USB_EP_MANAGEMENT_DMA_AUTO) */
1062:.\Generated_Source\PSoC5/USB.c ****     }
1063:.\Generated_Source\PSoC5/USB.c **** #else
1064:.\Generated_Source\PSoC5/USB.c **** 
1065:.\Generated_Source\PSoC5/USB.c **** 
1066:.\Generated_Source\PSoC5/USB.c ****     /***************************************************************************
1067:.\Generated_Source\PSoC5/USB.c ****     * Function Name: USB_InitEP_DMA
1068:.\Generated_Source\PSoC5/USB.c ****     ************************************************************************//**
1069:.\Generated_Source\PSoC5/USB.c ****     *
1070:.\Generated_Source\PSoC5/USB.c ****     *  This function allocates and initializes a DMA channel to be used by the
1071:.\Generated_Source\PSoC5/USB.c ****     *  USB_LoadInEP() or USB_ReadOutEP() APIs for data
1072:.\Generated_Source\PSoC5/USB.c ****     *  transfer. It is available when the Endpoint Memory Management parameter
1073:.\Generated_Source\PSoC5/USB.c ****     *  is set to DMA.
1074:.\Generated_Source\PSoC5/USB.c ****     *
1075:.\Generated_Source\PSoC5/USB.c ****     *  This function is automatically called from the USBFS_LoadInEP() and USBFS_ReadOutEP() APIs.
1076:.\Generated_Source\PSoC5/USB.c ****     *
1077:.\Generated_Source\PSoC5/USB.c ****     *  \param epNumber Contains the data endpoint number.
1078:.\Generated_Source\PSoC5/USB.c ****     *            Valid values are between 1 and 8.
1079:.\Generated_Source\PSoC5/USB.c ****     *  \param *pData Pointer to a data array that is related to the EP transfers.
1080:.\Generated_Source\PSoC5/USB.c ****     *
1081:.\Generated_Source\PSoC5/USB.c ****     * \reentrant No.
1082:.\Generated_Source\PSoC5/USB.c ****     *
1083:.\Generated_Source\PSoC5/USB.c ****     ***************************************************************************/
1084:.\Generated_Source\PSoC5/USB.c ****     void USB_InitEP_DMA(uint8 epNumber, const uint8 *pData)
1085:.\Generated_Source\PSoC5/USB.c ****                                                                     
1086:.\Generated_Source\PSoC5/USB.c ****     {
1087:.\Generated_Source\PSoC5/USB.c ****         uint16 src;
1088:.\Generated_Source\PSoC5/USB.c ****         uint16 dst;
1089:.\Generated_Source\PSoC5/USB.c **** 
1090:.\Generated_Source\PSoC5/USB.c ****     #if (CY_PSOC3)
1091:.\Generated_Source\PSoC5/USB.c ****         src = HI16(CYDEV_SRAM_BASE);
1092:.\Generated_Source\PSoC5/USB.c ****         dst = HI16(CYDEV_PERIPH_BASE);
1093:.\Generated_Source\PSoC5/USB.c ****         pData = pData;
1094:.\Generated_Source\PSoC5/USB.c ****     #else
1095:.\Generated_Source\PSoC5/USB.c ****         if ((USB_EP[epNumber].addr & USB_DIR_IN) != 0u)
1096:.\Generated_Source\PSoC5/USB.c ****         {
1097:.\Generated_Source\PSoC5/USB.c ****             /* IN endpoint: source is memory buffer. */
1098:.\Generated_Source\PSoC5/USB.c ****             src = HI16(pData);
1099:.\Generated_Source\PSoC5/USB.c ****             dst = HI16(CYDEV_PERIPH_BASE);
1100:.\Generated_Source\PSoC5/USB.c ****         }
1101:.\Generated_Source\PSoC5/USB.c ****         else
1102:.\Generated_Source\PSoC5/USB.c ****         {
1103:.\Generated_Source\PSoC5/USB.c ****             /* OUT endpoint: source is USB IP memory buffer. */
1104:.\Generated_Source\PSoC5/USB.c ****             src = HI16(CYDEV_PERIPH_BASE);
1105:.\Generated_Source\PSoC5/USB.c ****             dst = HI16(pData);
1106:.\Generated_Source\PSoC5/USB.c ****         }
1107:.\Generated_Source\PSoC5/USB.c ****     #endif  /* (CY_PSOC3) */
ARM GAS  C:\Users\cruiser\AppData\Local\Temp\cc8SekaC.s 			page 33


1108:.\Generated_Source\PSoC5/USB.c **** 
1109:.\Generated_Source\PSoC5/USB.c ****         switch(epNumber)
1110:.\Generated_Source\PSoC5/USB.c ****         {
1111:.\Generated_Source\PSoC5/USB.c ****     #if (USB_DMA1_ACTIVE)
1112:.\Generated_Source\PSoC5/USB.c ****         case USB_EP1:
1113:.\Generated_Source\PSoC5/USB.c ****             USB_DmaChan[epNumber] = USB_ep1_DmaInitialize(USB_DMA_BYTES_PER_BURST,
1114:.\Generated_Source\PSoC5/USB.c ****                                                                                     USB_DMA_REQUEST
1115:.\Generated_Source\PSoC5/USB.c ****             break;
1116:.\Generated_Source\PSoC5/USB.c ****     #endif /* (USB_DMA1_ACTIVE) */
1117:.\Generated_Source\PSoC5/USB.c **** 
1118:.\Generated_Source\PSoC5/USB.c ****     #if (USB_DMA2_ACTIVE)
1119:.\Generated_Source\PSoC5/USB.c ****         case USB_EP2:
1120:.\Generated_Source\PSoC5/USB.c ****             USB_DmaChan[epNumber] = USB_ep2_DmaInitialize(USB_DMA_BYTES_PER_BURST,
1121:.\Generated_Source\PSoC5/USB.c ****                                                                                     USB_DMA_REQUEST
1122:.\Generated_Source\PSoC5/USB.c ****             break;
1123:.\Generated_Source\PSoC5/USB.c ****     #endif /* (USB_DMA2_ACTIVE) */
1124:.\Generated_Source\PSoC5/USB.c **** 
1125:.\Generated_Source\PSoC5/USB.c ****     #if (USB_DMA3_ACTIVE)
1126:.\Generated_Source\PSoC5/USB.c ****             case USB_EP3:
1127:.\Generated_Source\PSoC5/USB.c ****                 USB_DmaChan[epNumber] = USB_ep3_DmaInitialize(USB_DMA_BYTES_PER_BURST,
1128:.\Generated_Source\PSoC5/USB.c ****                                                                                         USB_DMA_REQ
1129:.\Generated_Source\PSoC5/USB.c ****             break;
1130:.\Generated_Source\PSoC5/USB.c ****     #endif /* (USB_DMA3_ACTIVE) */
1131:.\Generated_Source\PSoC5/USB.c **** 
1132:.\Generated_Source\PSoC5/USB.c ****     #if (USB_DMA4_ACTIVE)
1133:.\Generated_Source\PSoC5/USB.c ****             case USB_EP4:
1134:.\Generated_Source\PSoC5/USB.c ****                 USB_DmaChan[epNumber] = USB_ep4_DmaInitialize(USB_DMA_BYTES_PER_BURST,
1135:.\Generated_Source\PSoC5/USB.c ****                                                                                         USB_DMA_REQ
1136:.\Generated_Source\PSoC5/USB.c ****             break;
1137:.\Generated_Source\PSoC5/USB.c ****     #endif /* (USB_DMA4_ACTIVE) */
1138:.\Generated_Source\PSoC5/USB.c **** 
1139:.\Generated_Source\PSoC5/USB.c ****     #if (USB_DMA5_ACTIVE)
1140:.\Generated_Source\PSoC5/USB.c ****             case USB_EP5:
1141:.\Generated_Source\PSoC5/USB.c ****                 USB_DmaChan[epNumber] = USB_ep5_DmaInitialize(USB_DMA_BYTES_PER_BURST,
1142:.\Generated_Source\PSoC5/USB.c ****                                                                                         USB_DMA_REQ
1143:.\Generated_Source\PSoC5/USB.c ****             break;
1144:.\Generated_Source\PSoC5/USB.c ****     #endif /* (USB_DMA5_ACTIVE) */
1145:.\Generated_Source\PSoC5/USB.c **** 
1146:.\Generated_Source\PSoC5/USB.c ****     #if (USB_DMA6_ACTIVE)
1147:.\Generated_Source\PSoC5/USB.c ****         case USB_EP6:
1148:.\Generated_Source\PSoC5/USB.c ****             USB_DmaChan[epNumber] = USB_ep6_DmaInitialize(USB_DMA_BYTES_PER_BURST,
1149:.\Generated_Source\PSoC5/USB.c ****                                                                                     USB_DMA_REQUEST
1150:.\Generated_Source\PSoC5/USB.c ****             break;
1151:.\Generated_Source\PSoC5/USB.c ****     #endif /* (USB_DMA6_ACTIVE) */
1152:.\Generated_Source\PSoC5/USB.c **** 
1153:.\Generated_Source\PSoC5/USB.c ****     #if (USB_DMA7_ACTIVE)
1154:.\Generated_Source\PSoC5/USB.c ****         case USB_EP7:
1155:.\Generated_Source\PSoC5/USB.c ****                 USB_DmaChan[epNumber] = USB_ep7_DmaInitialize(USB_DMA_BYTES_PER_BURST,
1156:.\Generated_Source\PSoC5/USB.c ****                                                                                         USB_DMA_REQ
1157:.\Generated_Source\PSoC5/USB.c ****             break;
1158:.\Generated_Source\PSoC5/USB.c ****     #endif /* (USB_DMA7_ACTIVE) */
1159:.\Generated_Source\PSoC5/USB.c **** 
1160:.\Generated_Source\PSoC5/USB.c ****     #if (USB_DMA8_ACTIVE)
1161:.\Generated_Source\PSoC5/USB.c ****         case USB_EP8:
1162:.\Generated_Source\PSoC5/USB.c ****                 USB_DmaChan[epNumber] = USB_ep8_DmaInitialize(USB_DMA_BYTES_PER_BURST,
1163:.\Generated_Source\PSoC5/USB.c ****                                                                                         USB_DMA_REQ
1164:.\Generated_Source\PSoC5/USB.c ****             break;
ARM GAS  C:\Users\cruiser\AppData\Local\Temp\cc8SekaC.s 			page 34


1165:.\Generated_Source\PSoC5/USB.c ****     #endif /* (USB_DMA8_ACTIVE) */
1166:.\Generated_Source\PSoC5/USB.c **** 
1167:.\Generated_Source\PSoC5/USB.c ****         default:
1168:.\Generated_Source\PSoC5/USB.c ****             /* Do nothing for endpoints other than 1-8. */
1169:.\Generated_Source\PSoC5/USB.c ****             break;
1170:.\Generated_Source\PSoC5/USB.c ****         }
1171:.\Generated_Source\PSoC5/USB.c **** 
1172:.\Generated_Source\PSoC5/USB.c ****         if ((epNumber > USB_EP0) && (epNumber < USB_MAX_EP))
1173:.\Generated_Source\PSoC5/USB.c ****         {
1174:.\Generated_Source\PSoC5/USB.c ****             USB_DmaTd[epNumber] = CyDmaTdAllocate();
1175:.\Generated_Source\PSoC5/USB.c **** 
1176:.\Generated_Source\PSoC5/USB.c ****         #if (USB_EP_MANAGEMENT_DMA_AUTO && (USB_EP_DMA_AUTO_OPT == 0u))
1177:.\Generated_Source\PSoC5/USB.c ****             USB_DmaNextTd[epNumber] = CyDmaTdAllocate();
1178:.\Generated_Source\PSoC5/USB.c ****         #endif /* (USB_EP_MANAGEMENT_DMA_AUTO && (USB_EP_DMA_AUTO_OPT == 0u)) */
1179:.\Generated_Source\PSoC5/USB.c ****         }
1180:.\Generated_Source\PSoC5/USB.c ****     }
1181:.\Generated_Source\PSoC5/USB.c **** #endif /* (CY_PSOC4) */
1182:.\Generated_Source\PSoC5/USB.c **** 
1183:.\Generated_Source\PSoC5/USB.c ****     /***************************************************************************
1184:.\Generated_Source\PSoC5/USB.c ****     * Function Name: USB_Stop_DMA
1185:.\Generated_Source\PSoC5/USB.c ****     ************************************************************************//**
1186:.\Generated_Source\PSoC5/USB.c ****     *  
1187:.\Generated_Source\PSoC5/USB.c ****     *  This function stops DMA channel associated with endpoint. It is available 
1188:.\Generated_Source\PSoC5/USB.c ****     *  when the Endpoint Buffer Management parameter is set to DMA. Call this 
1189:.\Generated_Source\PSoC5/USB.c ****     *  function when endpoint direction is changed from IN to OUT or vice versa 
1190:.\Generated_Source\PSoC5/USB.c ****     *  to trigger DMA re-configuration when USB_LoadInEP() or 
1191:.\Generated_Source\PSoC5/USB.c ****     *  USB_ReadOutEP() functions are called the first time. 
1192:.\Generated_Source\PSoC5/USB.c ****     *  
1193:.\Generated_Source\PSoC5/USB.c ****     *  \param epNumber: The data endpoint number for which associated DMA 
1194:.\Generated_Source\PSoC5/USB.c ****     *  channel is stopped. The range of valid values is between 1 and 8. To stop 
1195:.\Generated_Source\PSoC5/USB.c ****     *  all DMAs associated with endpoints call this function with 
1196:.\Generated_Source\PSoC5/USB.c ****     *  USB_MAX_EP argument.
1197:.\Generated_Source\PSoC5/USB.c ****     *
1198:.\Generated_Source\PSoC5/USB.c ****     * \reentrant
1199:.\Generated_Source\PSoC5/USB.c ****     *  No.
1200:.\Generated_Source\PSoC5/USB.c ****     *
1201:.\Generated_Source\PSoC5/USB.c ****     ***************************************************************************/
1202:.\Generated_Source\PSoC5/USB.c ****     void USB_Stop_DMA(uint8 epNumber) 
1203:.\Generated_Source\PSoC5/USB.c ****     {
1204:.\Generated_Source\PSoC5/USB.c ****         uint8 i;
1205:.\Generated_Source\PSoC5/USB.c **** 
1206:.\Generated_Source\PSoC5/USB.c ****         i = (epNumber < USB_MAX_EP) ? epNumber : USB_EP1;
1207:.\Generated_Source\PSoC5/USB.c **** 
1208:.\Generated_Source\PSoC5/USB.c ****         do
1209:.\Generated_Source\PSoC5/USB.c ****         {
1210:.\Generated_Source\PSoC5/USB.c ****         #if (CY_PSOC4)
1211:.\Generated_Source\PSoC5/USB.c ****             if (0u != USB_DmaChan[i])
1212:.\Generated_Source\PSoC5/USB.c ****             {
1213:.\Generated_Source\PSoC5/USB.c ****                 USB_CyDmaChDisable(USB_DmaChan[i]);
1214:.\Generated_Source\PSoC5/USB.c ****             }
1215:.\Generated_Source\PSoC5/USB.c ****         #else
1216:.\Generated_Source\PSoC5/USB.c ****             if(USB_DmaTd[i] != DMA_INVALID_TD)
1217:.\Generated_Source\PSoC5/USB.c ****             {
1218:.\Generated_Source\PSoC5/USB.c ****                 (void) CyDmaChDisable(USB_DmaChan[i]);
1219:.\Generated_Source\PSoC5/USB.c ****                 CyDmaTdFree(USB_DmaTd[i]);
1220:.\Generated_Source\PSoC5/USB.c ****                 USB_DmaTd[i] = DMA_INVALID_TD;
1221:.\Generated_Source\PSoC5/USB.c ****             }
ARM GAS  C:\Users\cruiser\AppData\Local\Temp\cc8SekaC.s 			page 35


1222:.\Generated_Source\PSoC5/USB.c **** 
1223:.\Generated_Source\PSoC5/USB.c ****             #if (USB_EP_MANAGEMENT_DMA_AUTO && (USB_EP_DMA_AUTO_OPT == 0u))
1224:.\Generated_Source\PSoC5/USB.c ****                 if(USB_DmaNextTd[i] != DMA_INVALID_TD)
1225:.\Generated_Source\PSoC5/USB.c ****                 {
1226:.\Generated_Source\PSoC5/USB.c ****                     CyDmaTdFree(USB_DmaNextTd[i]);
1227:.\Generated_Source\PSoC5/USB.c ****                     USB_DmaNextTd[i] = DMA_INVALID_TD;
1228:.\Generated_Source\PSoC5/USB.c ****                 }
1229:.\Generated_Source\PSoC5/USB.c ****             #endif /* (USB_EP_MANAGEMENT_DMA_AUTO && (USB_EP_DMA_AUTO_OPT == 0u)) */
1230:.\Generated_Source\PSoC5/USB.c **** 
1231:.\Generated_Source\PSoC5/USB.c ****         #endif /* (CY_PSOC4) */
1232:.\Generated_Source\PSoC5/USB.c ****             i++;
1233:.\Generated_Source\PSoC5/USB.c ****         }
1234:.\Generated_Source\PSoC5/USB.c ****         while ((i < USB_MAX_EP) && (epNumber == USB_MAX_EP));
1235:.\Generated_Source\PSoC5/USB.c ****     }
1236:.\Generated_Source\PSoC5/USB.c **** #endif /* (USB_EP_MANAGEMENT_DMA) */
1237:.\Generated_Source\PSoC5/USB.c **** 
1238:.\Generated_Source\PSoC5/USB.c **** 
1239:.\Generated_Source\PSoC5/USB.c **** #if (CY_PSOC3 || CY_PSOC5)
1240:.\Generated_Source\PSoC5/USB.c **** #if (USB_EP_MANAGEMENT_DMA_AUTO && (USB_EP_DMA_AUTO_OPT == 0u))
1241:.\Generated_Source\PSoC5/USB.c ****     /***************************************************************************
1242:.\Generated_Source\PSoC5/USB.c ****     * Function Name: USB_LoadNextInEP
1243:.\Generated_Source\PSoC5/USB.c ****     ************************************************************************//**
1244:.\Generated_Source\PSoC5/USB.c ****     *
1245:.\Generated_Source\PSoC5/USB.c ****     * Summary:
1246:.\Generated_Source\PSoC5/USB.c ****     *  This internal function is used for IN endpoint DMA reconfiguration in
1247:.\Generated_Source\PSoC5/USB.c ****     *  Auto DMA mode.
1248:.\Generated_Source\PSoC5/USB.c ****     *
1249:.\Generated_Source\PSoC5/USB.c ****     * Parameters:
1250:.\Generated_Source\PSoC5/USB.c ****     *  epNumber: Contains the data endpoint number.
1251:.\Generated_Source\PSoC5/USB.c ****     *  mode:   0 - Configure DMA to send the the rest of data.
1252:.\Generated_Source\PSoC5/USB.c ****     *          1 - Configure DMA to repeat 2 last bytes of the first burst.
1253:.\Generated_Source\PSoC5/USB.c ****     *
1254:.\Generated_Source\PSoC5/USB.c ****     ***************************************************************************/
1255:.\Generated_Source\PSoC5/USB.c ****     void USB_LoadNextInEP(uint8 epNumber, uint8 mode) 
1256:.\Generated_Source\PSoC5/USB.c ****     {
1257:.\Generated_Source\PSoC5/USB.c ****         reg16 *convert;
1258:.\Generated_Source\PSoC5/USB.c **** 
1259:.\Generated_Source\PSoC5/USB.c ****         if (mode == 0u)
1260:.\Generated_Source\PSoC5/USB.c ****         {
1261:.\Generated_Source\PSoC5/USB.c ****             /* Configure DMA to send rest of data. */
1262:.\Generated_Source\PSoC5/USB.c ****             /* CyDmaTdSetConfiguration API is optimized to change transfer length only and configur
1263:.\Generated_Source\PSoC5/USB.c ****             convert = (reg16 *) &CY_DMA_TDMEM_STRUCT_PTR[USB_DmaTd[epNumber]].TD0[0u];
1264:.\Generated_Source\PSoC5/USB.c ****             /* Set transfer length. */
1265:.\Generated_Source\PSoC5/USB.c ****             CY_SET_REG16(convert, USB_inLength[epNumber] - USB_DMA_BYTES_PER_BURST);
1266:.\Generated_Source\PSoC5/USB.c ****             /* CyDmaTdSetAddress API is optimized to change source address only. */
1267:.\Generated_Source\PSoC5/USB.c ****             convert = (reg16 *) &CY_DMA_TDMEM_STRUCT_PTR[USB_DmaTd[epNumber]].TD1[0u];
1268:.\Generated_Source\PSoC5/USB.c ****             CY_SET_REG16(convert, LO16((uint32)USB_inDataPointer[epNumber] +
1269:.\Generated_Source\PSoC5/USB.c ****                                             USB_DMA_BYTES_PER_BURST));
1270:.\Generated_Source\PSoC5/USB.c ****             USB_inBufFull[epNumber] = 1u;
1271:.\Generated_Source\PSoC5/USB.c ****         }
1272:.\Generated_Source\PSoC5/USB.c ****         else
1273:.\Generated_Source\PSoC5/USB.c ****         {
1274:.\Generated_Source\PSoC5/USB.c ****             /* Configure DMA to repeat 2 last bytes of the first burst. */
1275:.\Generated_Source\PSoC5/USB.c ****             /* CyDmaTdSetConfiguration API is optimized to change transfer length only and configur
1276:.\Generated_Source\PSoC5/USB.c ****             convert = (reg16 *) &CY_DMA_TDMEM_STRUCT_PTR[USB_DmaTd[epNumber]].TD0[0u];
1277:.\Generated_Source\PSoC5/USB.c ****             /* Set transfer length. */
1278:.\Generated_Source\PSoC5/USB.c ****             CY_SET_REG16(convert, USB_DMA_BYTES_REPEAT);
ARM GAS  C:\Users\cruiser\AppData\Local\Temp\cc8SekaC.s 			page 36


1279:.\Generated_Source\PSoC5/USB.c ****             /* CyDmaTdSetAddress API is optimized to change source address only. */
1280:.\Generated_Source\PSoC5/USB.c ****             convert = (reg16 *) &CY_DMA_TDMEM_STRUCT_PTR[USB_DmaTd[epNumber]].TD1[0u];
1281:.\Generated_Source\PSoC5/USB.c ****             CY_SET_REG16(convert,  LO16((uint32)USB_inDataPointer[epNumber] +
1282:.\Generated_Source\PSoC5/USB.c ****                                    (USB_DMA_BYTES_PER_BURST - USB_DMA_BYTES_REPEAT)));
1283:.\Generated_Source\PSoC5/USB.c ****         }
1284:.\Generated_Source\PSoC5/USB.c **** 
1285:.\Generated_Source\PSoC5/USB.c ****         /* CyDmaChSetInitialTd API is optimized to initialize TD. */
1286:.\Generated_Source\PSoC5/USB.c ****         CY_DMA_CH_STRUCT_PTR[USB_DmaChan[epNumber]].basic_status[1u] = USB_DmaTd[epNumber];
1287:.\Generated_Source\PSoC5/USB.c ****     }
1288:.\Generated_Source\PSoC5/USB.c **** #endif /* (USB_EP_MANAGEMENT_DMA_AUTO && (USB_EP_DMA_AUTO_OPT == 0u)) */
1289:.\Generated_Source\PSoC5/USB.c **** #endif /* (CY_PSOC3 || CY_PSOC5) */
1290:.\Generated_Source\PSoC5/USB.c **** 
1291:.\Generated_Source\PSoC5/USB.c **** 
1292:.\Generated_Source\PSoC5/USB.c **** /*******************************************************************************
1293:.\Generated_Source\PSoC5/USB.c **** * Function Name: USB_LoadInEP
1294:.\Generated_Source\PSoC5/USB.c **** ****************************************************************************//**
1295:.\Generated_Source\PSoC5/USB.c **** *
1296:.\Generated_Source\PSoC5/USB.c **** *  This function performs different functionality depending on the Component’s
1297:.\Generated_Source\PSoC5/USB.c **** *  configured Endpoint Buffer Management. This parameter is defined in
1298:.\Generated_Source\PSoC5/USB.c **** *  the Descriptor Root in Component Configure window.
1299:.\Generated_Source\PSoC5/USB.c **** *
1300:.\Generated_Source\PSoC5/USB.c **** *  *Manual (Static/Dynamic Allocation):*
1301:.\Generated_Source\PSoC5/USB.c **** *  This function loads and enables the specified USB data endpoint for an IN
1302:.\Generated_Source\PSoC5/USB.c **** *  data transfer.
1303:.\Generated_Source\PSoC5/USB.c **** *
1304:.\Generated_Source\PSoC5/USB.c **** *  *DMA with Manual Buffer Management:*
1305:.\Generated_Source\PSoC5/USB.c **** *  Configures DMA for a data transfer from system RAM to endpoint buffer.
1306:.\Generated_Source\PSoC5/USB.c **** *  Generates request for a transfer.
1307:.\Generated_Source\PSoC5/USB.c **** *
1308:.\Generated_Source\PSoC5/USB.c **** *  *DMA with Automatic Buffer Management:*
1309:.\Generated_Source\PSoC5/USB.c **** *  Configures DMA. This is required only once, so it is done only when parameter
1310:.\Generated_Source\PSoC5/USB.c **** *  pData is not NULL. When the pData pointer is NULL, the function skips this
1311:.\Generated_Source\PSoC5/USB.c **** *  task. Sets Data ready status: This generates the first DMA transfer and
1312:.\Generated_Source\PSoC5/USB.c **** *  prepares data in endpoint buffer.
1313:.\Generated_Source\PSoC5/USB.c **** *
1314:.\Generated_Source\PSoC5/USB.c **** *  \param epNumber Contains the data endpoint number.
1315:.\Generated_Source\PSoC5/USB.c **** *            Valid values are between 1 and 8.
1316:.\Generated_Source\PSoC5/USB.c **** *  \param *pData A pointer to a data array from which the data for the endpoint space
1317:.\Generated_Source\PSoC5/USB.c **** *          is loaded.
1318:.\Generated_Source\PSoC5/USB.c **** *  \param length The number of bytes to transfer from the array and then send as
1319:.\Generated_Source\PSoC5/USB.c **** *          a result of an IN request. Valid values are between 0 and 512
1320:.\Generated_Source\PSoC5/USB.c **** *          (1023 for DMA with Automatic Buffer Management mode). The value 512
1321:.\Generated_Source\PSoC5/USB.c **** *          is applicable if only one endpoint is used.
1322:.\Generated_Source\PSoC5/USB.c **** *
1323:.\Generated_Source\PSoC5/USB.c **** *
1324:.\Generated_Source\PSoC5/USB.c **** * \reentrant
1325:.\Generated_Source\PSoC5/USB.c **** *  No.
1326:.\Generated_Source\PSoC5/USB.c **** *
1327:.\Generated_Source\PSoC5/USB.c **** *******************************************************************************/
1328:.\Generated_Source\PSoC5/USB.c **** void USB_LoadInEP(uint8 epNumber, const uint8 pData[], uint16 length)
1329:.\Generated_Source\PSoC5/USB.c ****                                                                         
1330:.\Generated_Source\PSoC5/USB.c **** {
 711              		.loc 1 1330 0
 712              		.cfi_startproc
 713              		@ args = 0, pretend = 0, frame = 0
 714              		@ frame_needed = 0, uses_anonymous_args = 0
 715              		@ link register save eliminated.
ARM GAS  C:\Users\cruiser\AppData\Local\Temp\cc8SekaC.s 			page 37


 716              	.LVL42:
1331:.\Generated_Source\PSoC5/USB.c ****     if ((epNumber > USB_EP0) && (epNumber < USB_MAX_EP))
 717              		.loc 1 1331 0
 718 0000 431E     		subs	r3, r0, #1
 719 0002 DBB2     		uxtb	r3, r3
 720 0004 072B     		cmp	r3, #7
 721 0006 3BD8     		bhi	.L58
1330:.\Generated_Source\PSoC5/USB.c ****     if ((epNumber > USB_EP0) && (epNumber < USB_MAX_EP))
 722              		.loc 1 1330 0
 723 0008 F0B4     		push	{r4, r5, r6, r7}
 724              		.cfi_def_cfa_offset 16
 725              		.cfi_offset 4, -16
 726              		.cfi_offset 5, -12
 727              		.cfi_offset 6, -8
 728              		.cfi_offset 7, -4
1332:.\Generated_Source\PSoC5/USB.c ****     {
1333:.\Generated_Source\PSoC5/USB.c ****     #if (!USB_EP_MANAGEMENT_DMA_AUTO)
1334:.\Generated_Source\PSoC5/USB.c ****         /* Limit length to available buffer USB IP buffer size.*/
1335:.\Generated_Source\PSoC5/USB.c ****         if (length > (USB_EPX_DATA_BUF_MAX - USB_EP[epNumber].buffOffset))
 729              		.loc 1 1335 0
 730 000a 0746     		mov	r7, r0
 731 000c 00EB4003 		add	r3, r0, r0, lsl #1
 732 0010 9B00     		lsls	r3, r3, #2
 733 0012 1C4C     		ldr	r4, .L59
 734 0014 2344     		add	r3, r3, r4
 735 0016 DB88     		ldrh	r3, [r3, #6]
 736 0018 9BB2     		uxth	r3, r3
 737 001a C3F50073 		rsb	r3, r3, #512
 738 001e 9A42     		cmp	r2, r3
 739 0020 07D9     		bls	.L51
1336:.\Generated_Source\PSoC5/USB.c ****         {
1337:.\Generated_Source\PSoC5/USB.c ****             length = USB_EPX_DATA_BUF_MAX - USB_EP[epNumber].buffOffset;
 740              		.loc 1 1337 0
 741 0022 00EB4003 		add	r3, r0, r0, lsl #1
 742 0026 9B00     		lsls	r3, r3, #2
 743 0028 2344     		add	r3, r3, r4
 744 002a DA88     		ldrh	r2, [r3, #6]
 745              	.LVL43:
 746 002c C2F50072 		rsb	r2, r2, #512
 747 0030 92B2     		uxth	r2, r2
 748              	.LVL44:
 749              	.L51:
1338:.\Generated_Source\PSoC5/USB.c ****         }
1339:.\Generated_Source\PSoC5/USB.c ****     #endif /* (!USB_EP_MANAGEMENT_DMA_AUTO) */
1340:.\Generated_Source\PSoC5/USB.c **** 
1341:.\Generated_Source\PSoC5/USB.c ****         /* Set count and data toggle. */
1342:.\Generated_Source\PSoC5/USB.c ****         USB_SIE_EP_BASE.sieEp[epNumber].epCnt0 = (uint8) HI8(length) | USB_EP[epNumber].epToggle;
 750              		.loc 1 1342 0
 751 0032 00EB4003 		add	r3, r0, r0, lsl #1
 752 0036 9B00     		lsls	r3, r3, #2
 753 0038 124C     		ldr	r4, .L59
 754 003a 2344     		add	r3, r3, r4
 755 003c DB78     		ldrb	r3, [r3, #3]	@ zero_extendqisi2
 756 003e 43EA1223 		orr	r3, r3, r2, lsr #8
 757 0042 114D     		ldr	r5, .L59+4
 758 0044 0401     		lsls	r4, r0, #4
 759 0046 2E19     		adds	r6, r5, r4
ARM GAS  C:\Users\cruiser\AppData\Local\Temp\cc8SekaC.s 			page 38


 760 0048 2B55     		strb	r3, [r5, r4]
1343:.\Generated_Source\PSoC5/USB.c ****         USB_SIE_EP_BASE.sieEp[epNumber].epCnt1 = (uint8) LO8(length);
 761              		.loc 1 1343 0
 762 004a D3B2     		uxtb	r3, r2
 763 004c 7370     		strb	r3, [r6, #1]
1344:.\Generated_Source\PSoC5/USB.c **** 
1345:.\Generated_Source\PSoC5/USB.c ****     #if (USB_EP_MANAGEMENT_MANUAL)
1346:.\Generated_Source\PSoC5/USB.c ****         if (NULL != pData)
 764              		.loc 1 1346 0
 765 004e 39B9     		cbnz	r1, .L55
 766              	.LBB2:
 767 0050 09E0     		b	.L53
 768              	.LVL45:
 769              	.L54:
1347:.\Generated_Source\PSoC5/USB.c ****         {
1348:.\Generated_Source\PSoC5/USB.c **** 			/* Copy data using arbiter data register. */
1349:.\Generated_Source\PSoC5/USB.c ****             uint16 i;
1350:.\Generated_Source\PSoC5/USB.c ****             for (i = 0u; i < length; ++i)
1351:.\Generated_Source\PSoC5/USB.c ****             {
1352:.\Generated_Source\PSoC5/USB.c ****                 USB_ARB_EP_BASE.arbEp[epNumber].rwDr = pData[i];
 770              		.loc 1 1352 0 discriminator 3
 771 0052 CE5C     		ldrb	r6, [r1, r3]	@ zero_extendqisi2
 772 0054 3D01     		lsls	r5, r7, #4
 773 0056 0D4C     		ldr	r4, .L59+8
 774 0058 6655     		strb	r6, [r4, r5]
1350:.\Generated_Source\PSoC5/USB.c ****             {
 775              		.loc 1 1350 0 discriminator 3
 776 005a 0133     		adds	r3, r3, #1
 777              	.LVL46:
 778 005c 9BB2     		uxth	r3, r3
 779              	.LVL47:
 780 005e 00E0     		b	.L52
 781              	.LVL48:
 782              	.L55:
 783              	.LBE2:
 784 0060 0023     		movs	r3, #0
 785              	.L52:
 786              	.LVL49:
 787              	.LBB3:
1350:.\Generated_Source\PSoC5/USB.c ****             {
 788              		.loc 1 1350 0 is_stmt 0 discriminator 1
 789 0062 9342     		cmp	r3, r2
 790 0064 F5D3     		bcc	.L54
 791              	.LVL50:
 792              	.L53:
 793              	.LBE3:
1353:.\Generated_Source\PSoC5/USB.c ****             }
1354:.\Generated_Source\PSoC5/USB.c ****         }
1355:.\Generated_Source\PSoC5/USB.c **** 
1356:.\Generated_Source\PSoC5/USB.c ****         /* IN endpoint buffer is full - read to be read. */
1357:.\Generated_Source\PSoC5/USB.c ****         USB_EP[epNumber].apiEpState = USB_NO_EVENT_PENDING;
 794              		.loc 1 1357 0 is_stmt 1
 795 0066 4300     		lsls	r3, r0, #1
 796 0068 0344     		add	r3, r3, r0
 797 006a 9B00     		lsls	r3, r3, #2
 798 006c 054A     		ldr	r2, .L59
 799              	.LVL51:
ARM GAS  C:\Users\cruiser\AppData\Local\Temp\cc8SekaC.s 			page 39


 800 006e 1344     		add	r3, r3, r2
 801 0070 0022     		movs	r2, #0
 802 0072 5A70     		strb	r2, [r3, #1]
1358:.\Generated_Source\PSoC5/USB.c **** 
1359:.\Generated_Source\PSoC5/USB.c ****         /* Arm IN endpoint. */
1360:.\Generated_Source\PSoC5/USB.c ****         USB_SIE_EP_BASE.sieEp[epNumber].epCr0 = USB_EP[epNumber].epMode;
 803              		.loc 1 1360 0
 804 0074 5A79     		ldrb	r2, [r3, #5]	@ zero_extendqisi2
 805 0076 D2B2     		uxtb	r2, r2
 806 0078 0001     		lsls	r0, r0, #4
 807              	.LVL52:
 808 007a 054B     		ldr	r3, .L59+12
 809 007c 1A54     		strb	r2, [r3, r0]
1361:.\Generated_Source\PSoC5/USB.c **** 
1362:.\Generated_Source\PSoC5/USB.c ****     #else
1363:.\Generated_Source\PSoC5/USB.c **** 
1364:.\Generated_Source\PSoC5/USB.c ****         #if (CY_PSOC3 || CY_PSOC5LP)
1365:.\Generated_Source\PSoC5/USB.c ****             /* Initialize DMA if it was not initialized. */
1366:.\Generated_Source\PSoC5/USB.c ****             if (DMA_INVALID_TD == USB_DmaTd[epNumber])
1367:.\Generated_Source\PSoC5/USB.c ****             {
1368:.\Generated_Source\PSoC5/USB.c ****                 USB_InitEP_DMA(epNumber, pData);
1369:.\Generated_Source\PSoC5/USB.c ****             }
1370:.\Generated_Source\PSoC5/USB.c ****         #endif /* (CY_PSOC3 || CY_PSOC5LP) */
1371:.\Generated_Source\PSoC5/USB.c **** 
1372:.\Generated_Source\PSoC5/USB.c ****         #if (USB_EP_MANAGEMENT_DMA_MANUAL)
1373:.\Generated_Source\PSoC5/USB.c ****             /* IN endpoint buffer will be fully loaded by DMA shortly. */
1374:.\Generated_Source\PSoC5/USB.c ****             USB_EP[epNumber].apiEpState = USB_NO_EVENT_PENDING;
1375:.\Generated_Source\PSoC5/USB.c **** 
1376:.\Generated_Source\PSoC5/USB.c ****             if ((pData != NULL) && (length > 0u))
1377:.\Generated_Source\PSoC5/USB.c ****             {
1378:.\Generated_Source\PSoC5/USB.c ****             #if (CY_PSOC4)
1379:.\Generated_Source\PSoC5/USB.c ****                 uint32 channelNum = (uint32) USB_DmaChan[epNumber];
1380:.\Generated_Source\PSoC5/USB.c **** 
1381:.\Generated_Source\PSoC5/USB.c ****                 /* Disable DMA channel: start configuration. */
1382:.\Generated_Source\PSoC5/USB.c ****                 USB_CyDmaChDisable(channelNum);
1383:.\Generated_Source\PSoC5/USB.c **** 
1384:.\Generated_Source\PSoC5/USB.c ****                 /* Configure source and destination. */
1385:.\Generated_Source\PSoC5/USB.c ****                 USB_CyDmaSetSrcAddress(channelNum, USB_DMA_DESCR0, (void*) pData);
1386:.\Generated_Source\PSoC5/USB.c ****                 USB_CyDmaSetDstAddress(channelNum, USB_DMA_DESCR0, (void*) &USB_ARB_EP_BASE.arbEp[e
1387:.\Generated_Source\PSoC5/USB.c **** 
1388:.\Generated_Source\PSoC5/USB.c ****                 /* Configure DMA descriptor. */
1389:.\Generated_Source\PSoC5/USB.c ****                 --length;
1390:.\Generated_Source\PSoC5/USB.c ****                 USB_CyDmaSetConfiguration(channelNum, USB_DMA_DESCR0, USB_DMA_COMMON_CFG | length |
1391:.\Generated_Source\PSoC5/USB.c ****                                                         CYDMA_BYTE | CYDMA_ELEMENT_WORD | CYDMA_INC
1392:.\Generated_Source\PSoC5/USB.c **** 
1393:.\Generated_Source\PSoC5/USB.c ****                 /* Validate descriptor to execute on following DMA request. */
1394:.\Generated_Source\PSoC5/USB.c ****                 USB_CyDmaValidateDescriptor(channelNum, USB_DMA_DESCR0);
1395:.\Generated_Source\PSoC5/USB.c **** 
1396:.\Generated_Source\PSoC5/USB.c ****                 /* Enable DMA channel: configuration complete. */
1397:.\Generated_Source\PSoC5/USB.c ****                 USB_CyDmaChEnable(channelNum);
1398:.\Generated_Source\PSoC5/USB.c ****             #else
1399:.\Generated_Source\PSoC5/USB.c ****                 /* Configure DMA to transfer data. */
1400:.\Generated_Source\PSoC5/USB.c ****                 (void) CyDmaChDisable(USB_DmaChan[epNumber]);
1401:.\Generated_Source\PSoC5/USB.c ****                 (void) CyDmaTdSetConfiguration(USB_DmaTd[epNumber], length, CY_DMA_DISABLE_TD, TD_T
1402:.\Generated_Source\PSoC5/USB.c ****                 (void) CyDmaTdSetAddress(USB_DmaTd[epNumber], LO16((uint32) pData), LO16((uint32) &
1403:.\Generated_Source\PSoC5/USB.c **** 
1404:.\Generated_Source\PSoC5/USB.c ****                 /* Enable DMA channel. */
ARM GAS  C:\Users\cruiser\AppData\Local\Temp\cc8SekaC.s 			page 40


1405:.\Generated_Source\PSoC5/USB.c ****                 (void) CyDmaChSetInitialTd(USB_DmaChan[epNumber], USB_DmaTd[epNumber]);
1406:.\Generated_Source\PSoC5/USB.c ****                 (void) CyDmaChEnable(USB_DmaChan[epNumber], 1u);
1407:.\Generated_Source\PSoC5/USB.c ****             #endif /* (CY_PSOC4) */
1408:.\Generated_Source\PSoC5/USB.c **** 
1409:.\Generated_Source\PSoC5/USB.c ****                 /* Generate DMA request. */
1410:.\Generated_Source\PSoC5/USB.c ****                 USB_ARB_EP_BASE.arbEp[epNumber].epCfg |=  (uint8)  USB_ARB_EPX_CFG_DMA_REQ;
1411:.\Generated_Source\PSoC5/USB.c ****                 USB_ARB_EP_BASE.arbEp[epNumber].epCfg &=  (uint8) ~USB_ARB_EPX_CFG_DMA_REQ;
1412:.\Generated_Source\PSoC5/USB.c **** 
1413:.\Generated_Source\PSoC5/USB.c ****                 /* IN endpoint will be armed in ARB_ISR(source: IN_BUF_FULL) after first DMA transf
1414:.\Generated_Source\PSoC5/USB.c ****             }
1415:.\Generated_Source\PSoC5/USB.c ****             else
1416:.\Generated_Source\PSoC5/USB.c ****             {
1417:.\Generated_Source\PSoC5/USB.c ****                 /* When zero-length packet: arm IN endpoint directly. */
1418:.\Generated_Source\PSoC5/USB.c ****                 USB_SIE_EP_BASE.sieEp[epNumber].epCr0 = USB_EP[epNumber].epMode;
1419:.\Generated_Source\PSoC5/USB.c ****             }
1420:.\Generated_Source\PSoC5/USB.c ****         #endif /* (USB_EP_MANAGEMENT_DMA_MANUAL) */
1421:.\Generated_Source\PSoC5/USB.c **** 
1422:.\Generated_Source\PSoC5/USB.c ****         #if (USB_EP_MANAGEMENT_DMA_AUTO)
1423:.\Generated_Source\PSoC5/USB.c ****             if (pData != NULL)
1424:.\Generated_Source\PSoC5/USB.c ****             {
1425:.\Generated_Source\PSoC5/USB.c ****             #if (CY_PSOC4)
1426:.\Generated_Source\PSoC5/USB.c ****                 uint32 channelNum = (uint32) USB_DmaChan[epNumber];
1427:.\Generated_Source\PSoC5/USB.c **** 
1428:.\Generated_Source\PSoC5/USB.c ****                 /* Store address of buffer. */
1429:.\Generated_Source\PSoC5/USB.c ****                 USB_DmaEpBufferAddrBackup[epNumber] = (uint32) pData;
1430:.\Generated_Source\PSoC5/USB.c **** 
1431:.\Generated_Source\PSoC5/USB.c ****                 /* Disable DMA channel: start configuration. */
1432:.\Generated_Source\PSoC5/USB.c ****                 USB_CyDmaChDisable(channelNum);
1433:.\Generated_Source\PSoC5/USB.c **** 
1434:.\Generated_Source\PSoC5/USB.c ****                 /* Set destination address. */
1435:.\Generated_Source\PSoC5/USB.c ****                 USB_CyDmaSetDstAddress(channelNum, USB_DMA_DESCR0, (void*) &USB_ARB_EP_BASE.arbEp[e
1436:.\Generated_Source\PSoC5/USB.c ****                 USB_CyDmaSetDstAddress(channelNum, USB_DMA_DESCR1, (void*) &USB_ARB_EP_BASE.arbEp[e
1437:.\Generated_Source\PSoC5/USB.c **** 
1438:.\Generated_Source\PSoC5/USB.c ****                 /* Configure DMA descriptor. */
1439:.\Generated_Source\PSoC5/USB.c ****                 USB_CyDmaSetConfiguration(channelNum, USB_DMA_DESCR0, USB_DMA_COMMON_CFG  |
1440:.\Generated_Source\PSoC5/USB.c ****                                                         CYDMA_BYTE | CYDMA_ELEMENT_WORD | CYDMA_INC
1441:.\Generated_Source\PSoC5/USB.c **** 
1442:.\Generated_Source\PSoC5/USB.c ****                 /* Configure DMA descriptor. */
1443:.\Generated_Source\PSoC5/USB.c ****                 USB_CyDmaSetConfiguration(channelNum, USB_DMA_DESCR1, USB_DMA_COMMON_CFG  |
1444:.\Generated_Source\PSoC5/USB.c ****                                                         CYDMA_BYTE | CYDMA_ELEMENT_WORD | CYDMA_INC
1445:.\Generated_Source\PSoC5/USB.c **** 
1446:.\Generated_Source\PSoC5/USB.c ****                 /* Enable interrupt from DMA channel. */
1447:.\Generated_Source\PSoC5/USB.c ****                 USB_CyDmaSetInterruptMask(channelNum);
1448:.\Generated_Source\PSoC5/USB.c **** 
1449:.\Generated_Source\PSoC5/USB.c ****                 /* Validate descriptor 1. It will not be invalided during operation. */
1450:.\Generated_Source\PSoC5/USB.c ****                 USB_CyDmaValidateDescriptor(channelNum, USB_DMA_DESCR1);
1451:.\Generated_Source\PSoC5/USB.c **** 
1452:.\Generated_Source\PSoC5/USB.c ****                 /* Enable DMA channel: configuration complete. */
1453:.\Generated_Source\PSoC5/USB.c ****                 USB_CyDmaChEnable(channelNum);
1454:.\Generated_Source\PSoC5/USB.c **** 
1455:.\Generated_Source\PSoC5/USB.c ****             #else
1456:.\Generated_Source\PSoC5/USB.c ****                 (void) CyDmaChDisable(USB_DmaChan[epNumber]);
1457:.\Generated_Source\PSoC5/USB.c **** 
1458:.\Generated_Source\PSoC5/USB.c ****                 #if (USB_EP_DMA_AUTO_OPT == 0u)
1459:.\Generated_Source\PSoC5/USB.c ****                     USB_inLength[epNumber] = length;
1460:.\Generated_Source\PSoC5/USB.c ****                     USB_inDataPointer[epNumber] = pData;
1461:.\Generated_Source\PSoC5/USB.c **** 
ARM GAS  C:\Users\cruiser\AppData\Local\Temp\cc8SekaC.s 			page 41


1462:.\Generated_Source\PSoC5/USB.c ****                     /* Configure DMA to send data only for first burst */
1463:.\Generated_Source\PSoC5/USB.c ****                     (void) CyDmaTdSetConfiguration(USB_DmaTd[epNumber],
1464:.\Generated_Source\PSoC5/USB.c ****                         (length > USB_DMA_BYTES_PER_BURST) ? USB_DMA_BYTES_PER_BURST : length,
1465:.\Generated_Source\PSoC5/USB.c ****                         USB_DmaNextTd[epNumber], TD_TERMIN_EN | TD_INC_SRC_ADR);
1466:.\Generated_Source\PSoC5/USB.c ****                     (void) CyDmaTdSetAddress(USB_DmaTd[epNumber], LO16((uint32) pData),
1467:.\Generated_Source\PSoC5/USB.c ****                                                                                LO16((uint32) &USB_A
1468:.\Generated_Source\PSoC5/USB.c **** 
1469:.\Generated_Source\PSoC5/USB.c ****                     /* The second TD will be executed only when the first one fails.
1470:.\Generated_Source\PSoC5/USB.c ****                     *  The intention of this TD is to generate NRQ interrupt
1471:.\Generated_Source\PSoC5/USB.c ****                     *  and repeat 2 last bytes of the first burst.
1472:.\Generated_Source\PSoC5/USB.c ****                     */
1473:.\Generated_Source\PSoC5/USB.c ****                     (void) CyDmaTdSetConfiguration(USB_DmaNextTd[epNumber], 1u,
1474:.\Generated_Source\PSoC5/USB.c ****                                                    USB_DmaNextTd[epNumber],
1475:.\Generated_Source\PSoC5/USB.c ****                                                    USB_epX_TD_TERMOUT_EN[epNumber]);
1476:.\Generated_Source\PSoC5/USB.c **** 
1477:.\Generated_Source\PSoC5/USB.c ****                     /* Configure DmaNextTd to clear Data Ready status. */
1478:.\Generated_Source\PSoC5/USB.c ****                     (void) CyDmaTdSetAddress(USB_DmaNextTd[epNumber], LO16((uint32) &clearInDataRdy
1479:.\Generated_Source\PSoC5/USB.c ****                                                                                    LO16((uint32) &U
1480:.\Generated_Source\PSoC5/USB.c ****                 #else
1481:.\Generated_Source\PSoC5/USB.c ****                     /* Configure DMA to send all data. */
1482:.\Generated_Source\PSoC5/USB.c ****                     (void) CyDmaTdSetConfiguration(USB_DmaTd[epNumber], length,
1483:.\Generated_Source\PSoC5/USB.c ****                                                    USB_DmaTd[epNumber], TD_TERMIN_EN | TD_INC_SRC_A
1484:.\Generated_Source\PSoC5/USB.c ****                     (void) CyDmaTdSetAddress(USB_DmaTd[epNumber], LO16((uint32) pData),
1485:.\Generated_Source\PSoC5/USB.c ****                                                                                LO16((uint32) &USB_A
1486:.\Generated_Source\PSoC5/USB.c ****                 #endif /* (USB_EP_DMA_AUTO_OPT == 0u) */
1487:.\Generated_Source\PSoC5/USB.c **** 
1488:.\Generated_Source\PSoC5/USB.c ****                 /* Clear any potential pending DMA requests before starting DMA channel to transfer
1489:.\Generated_Source\PSoC5/USB.c ****                 (void) CyDmaClearPendingDrq(USB_DmaChan[epNumber]);
1490:.\Generated_Source\PSoC5/USB.c ****                 /* Enable DMA. */
1491:.\Generated_Source\PSoC5/USB.c ****                 (void) CyDmaChSetInitialTd(USB_DmaChan[epNumber], USB_DmaTd[epNumber]);
1492:.\Generated_Source\PSoC5/USB.c ****                 (void) CyDmaChEnable(USB_DmaChan[epNumber], 1u);
1493:.\Generated_Source\PSoC5/USB.c ****             #endif /* (CY_PSOC4) */
1494:.\Generated_Source\PSoC5/USB.c ****             }
1495:.\Generated_Source\PSoC5/USB.c ****             else
1496:.\Generated_Source\PSoC5/USB.c ****             {
1497:.\Generated_Source\PSoC5/USB.c ****                 /* IN endpoint buffer (32 bytes) will shortly be preloaded by DMA. */
1498:.\Generated_Source\PSoC5/USB.c ****                 USB_EP[epNumber].apiEpState = USB_NO_EVENT_PENDING;
1499:.\Generated_Source\PSoC5/USB.c **** 
1500:.\Generated_Source\PSoC5/USB.c ****                 if (length > 0u)
1501:.\Generated_Source\PSoC5/USB.c ****                 {
1502:.\Generated_Source\PSoC5/USB.c ****                 #if (CY_PSOC4)
1503:.\Generated_Source\PSoC5/USB.c ****                     uint32 lengthDescr0, lengthDescr1;
1504:.\Generated_Source\PSoC5/USB.c ****                     uint32 channelNum = (uint32) USB_DmaChan[epNumber];
1505:.\Generated_Source\PSoC5/USB.c **** 
1506:.\Generated_Source\PSoC5/USB.c ****                     /* Get number of full bursts. */
1507:.\Generated_Source\PSoC5/USB.c ****                     USB_DmaEpBurstCnt[epNumber] = (uint8) (length / USB_DMA_BYTES_PER_BURST);
1508:.\Generated_Source\PSoC5/USB.c **** 
1509:.\Generated_Source\PSoC5/USB.c ****                     /* Get number of elements in the last burst. */
1510:.\Generated_Source\PSoC5/USB.c ****                     USB_DmaEpLastBurstEl[epNumber] = (uint8) (length % USB_DMA_BYTES_PER_BURST);
1511:.\Generated_Source\PSoC5/USB.c **** 
1512:.\Generated_Source\PSoC5/USB.c ****                     /* Get total number of bursts. */
1513:.\Generated_Source\PSoC5/USB.c ****                     USB_DmaEpBurstCnt[epNumber] += (0u != USB_DmaEpLastBurstEl[epNumber]) ? 1u : 0u
1514:.\Generated_Source\PSoC5/USB.c **** 
1515:.\Generated_Source\PSoC5/USB.c ****                     /* Adjust number of data elements transferred in last burst. */
1516:.\Generated_Source\PSoC5/USB.c ****                     USB_DmaEpLastBurstEl[epNumber] = (0u != USB_DmaEpLastBurstEl[epNumber]) ?
1517:.\Generated_Source\PSoC5/USB.c ****                                                                           (USB_DmaEpLastBurstEl[epN
1518:.\Generated_Source\PSoC5/USB.c ****                                                                           (USB_DMA_BYTES_PER_BURST 
ARM GAS  C:\Users\cruiser\AppData\Local\Temp\cc8SekaC.s 			page 42


1519:.\Generated_Source\PSoC5/USB.c **** 
1520:.\Generated_Source\PSoC5/USB.c ****                     /* Get number of data elements to transfer for descriptor 0 and 1. */
1521:.\Generated_Source\PSoC5/USB.c ****                     lengthDescr0 = (1u == USB_DmaEpBurstCnt[epNumber]) ? USB_DmaEpLastBurstEl[epNum
1522:.\Generated_Source\PSoC5/USB.c ****                     lengthDescr1 = (2u == USB_DmaEpBurstCnt[epNumber]) ? USB_DmaEpLastBurstEl[epNum
1523:.\Generated_Source\PSoC5/USB.c **** 
1524:.\Generated_Source\PSoC5/USB.c **** 
1525:.\Generated_Source\PSoC5/USB.c ****                     /* Mark which descriptor is last one to execute. */
1526:.\Generated_Source\PSoC5/USB.c ****                     USB_DmaEpLastBurstEl[epNumber] |= (0u != (USB_DmaEpBurstCnt[epNumber] & 0x1u)) 
1527:.\Generated_Source\PSoC5/USB.c ****                                                                             USB_DMA_DESCR0_MASK : U
1528:.\Generated_Source\PSoC5/USB.c **** 
1529:.\Generated_Source\PSoC5/USB.c ****                     /* Adjust burst counter taking to account: 2 valid descriptors and interrupt tr
1530:.\Generated_Source\PSoC5/USB.c ****                     USB_DmaEpBurstCnt[epNumber] = USB_DMA_GET_BURST_CNT(USB_DmaEpBurstCnt[epNumber]
1531:.\Generated_Source\PSoC5/USB.c **** 
1532:.\Generated_Source\PSoC5/USB.c ****                     /* Restore DMA settings for current transfer. */
1533:.\Generated_Source\PSoC5/USB.c ****                     USB_CyDmaChDisable(channelNum);
1534:.\Generated_Source\PSoC5/USB.c **** 
1535:.\Generated_Source\PSoC5/USB.c ****                     /* Restore destination address for input endpoint. */
1536:.\Generated_Source\PSoC5/USB.c ****                     USB_CyDmaSetSrcAddress(channelNum, USB_DMA_DESCR0, (void*) ((uint32) USB_DmaEpB
1537:.\Generated_Source\PSoC5/USB.c ****                     USB_CyDmaSetSrcAddress(channelNum, USB_DMA_DESCR1, (void*) ((uint32) USB_DmaEpB
1538:.\Generated_Source\PSoC5/USB.c ****                                                                                                    
1539:.\Generated_Source\PSoC5/USB.c **** 
1540:.\Generated_Source\PSoC5/USB.c ****                     /* Set number of elements to transfer. */
1541:.\Generated_Source\PSoC5/USB.c ****                     USB_CyDmaSetNumDataElements(channelNum, USB_DMA_DESCR0, lengthDescr0);
1542:.\Generated_Source\PSoC5/USB.c ****                     USB_CyDmaSetNumDataElements(channelNum, USB_DMA_DESCR1, lengthDescr1);
1543:.\Generated_Source\PSoC5/USB.c **** 
1544:.\Generated_Source\PSoC5/USB.c ****                     /* Validate descriptor 0 and command to start with it. */
1545:.\Generated_Source\PSoC5/USB.c ****                     USB_CyDmaValidateDescriptor(channelNum, USB_DMA_DESCR0);
1546:.\Generated_Source\PSoC5/USB.c ****                     USB_CyDmaSetDescriptor0Next(channelNum);
1547:.\Generated_Source\PSoC5/USB.c **** 
1548:.\Generated_Source\PSoC5/USB.c ****                     /* Enable DMA channel: configuration complete. */
1549:.\Generated_Source\PSoC5/USB.c ****                     USB_CyDmaChEnable(channelNum);
1550:.\Generated_Source\PSoC5/USB.c **** 
1551:.\Generated_Source\PSoC5/USB.c ****                 #elif (USB_EP_DMA_AUTO_OPT == 0u)
1552:.\Generated_Source\PSoC5/USB.c ****                     USB_inLength[epNumber]  = length;
1553:.\Generated_Source\PSoC5/USB.c ****                     USB_inBufFull[epNumber] = 0u;
1554:.\Generated_Source\PSoC5/USB.c **** 
1555:.\Generated_Source\PSoC5/USB.c ****                     (void) CyDmaChDisable(USB_DmaChan[epNumber]);
1556:.\Generated_Source\PSoC5/USB.c ****                     /* Configure DMA to send data only for first burst. */
1557:.\Generated_Source\PSoC5/USB.c ****                     (void) CyDmaTdSetConfiguration(
1558:.\Generated_Source\PSoC5/USB.c ****                         USB_DmaTd[epNumber], (length > USB_DMA_BYTES_PER_BURST) ?
1559:.\Generated_Source\PSoC5/USB.c ****                         USB_DMA_BYTES_PER_BURST : length,
1560:.\Generated_Source\PSoC5/USB.c ****                         USB_DmaNextTd[epNumber], TD_TERMIN_EN | TD_INC_SRC_ADR );
1561:.\Generated_Source\PSoC5/USB.c ****                     (void) CyDmaTdSetAddress(USB_DmaTd[epNumber], LO16((uint32)  USB_inDataPointer[
1562:.\Generated_Source\PSoC5/USB.c ****                                                                                LO16((uint32) &USB_A
1563:.\Generated_Source\PSoC5/USB.c ****                     /* Clear Any potential pending DMA requests before starting DMA channel to tran
1564:.\Generated_Source\PSoC5/USB.c ****                     (void) CyDmaClearPendingDrq(USB_DmaChan[epNumber]);
1565:.\Generated_Source\PSoC5/USB.c ****                     /* Enable DMA. */
1566:.\Generated_Source\PSoC5/USB.c ****                     (void) CyDmaChSetInitialTd(USB_DmaChan[epNumber], USB_DmaTd[epNumber]);
1567:.\Generated_Source\PSoC5/USB.c ****                     (void) CyDmaChEnable(USB_DmaChan[epNumber], 1u);
1568:.\Generated_Source\PSoC5/USB.c ****                 #endif /* (CY_PSOC4) */
1569:.\Generated_Source\PSoC5/USB.c **** 
1570:.\Generated_Source\PSoC5/USB.c ****                 #if !defined (USB_MANUAL_IN_EP_ARM)
1571:.\Generated_Source\PSoC5/USB.c ****                     /* Set IN data ready to generate DMA request to load data into endpoint buffer.
1572:.\Generated_Source\PSoC5/USB.c ****                     USB_ARB_EP_BASE.arbEp[epNumber].epCfg |= USB_ARB_EPX_CFG_IN_DATA_RDY;
1573:.\Generated_Source\PSoC5/USB.c ****                 #endif  /* (USB_MANUAL_IN_EP_ARM) */
1574:.\Generated_Source\PSoC5/USB.c **** 
1575:.\Generated_Source\PSoC5/USB.c ****                     /* IN endpoint will be armed in ARB_ISR(source: IN_BUF_FULL) after first DMA tr
ARM GAS  C:\Users\cruiser\AppData\Local\Temp\cc8SekaC.s 			page 43


1576:.\Generated_Source\PSoC5/USB.c ****                 }
1577:.\Generated_Source\PSoC5/USB.c ****                 else
1578:.\Generated_Source\PSoC5/USB.c ****                 {
1579:.\Generated_Source\PSoC5/USB.c ****                     /* When zero-length packet: arm IN endpoint directly. */
1580:.\Generated_Source\PSoC5/USB.c ****                     USB_SIE_EP_BASE.sieEp[epNumber].epCr0 = USB_EP[epNumber].epMode;
1581:.\Generated_Source\PSoC5/USB.c ****                 }
1582:.\Generated_Source\PSoC5/USB.c ****             }
1583:.\Generated_Source\PSoC5/USB.c ****         #endif /* (USB_EP_MANAGEMENT_DMA_AUTO) */
1584:.\Generated_Source\PSoC5/USB.c ****     #endif /* (USB_EP_MANAGEMENT_MANUAL) */
1585:.\Generated_Source\PSoC5/USB.c ****     }
1586:.\Generated_Source\PSoC5/USB.c **** }
 810              		.loc 1 1586 0
 811 007e F0BC     		pop	{r4, r5, r6, r7}
 812              		.cfi_restore 7
 813              		.cfi_restore 6
 814              		.cfi_restore 5
 815              		.cfi_restore 4
 816              		.cfi_def_cfa_offset 0
 817              	.L58:
 818 0080 7047     		bx	lr
 819              	.L60:
 820 0082 00BF     		.align	2
 821              	.L59:
 822 0084 00000000 		.word	USB_EP
 823 0088 FC5F0040 		.word	1073766396
 824 008c 78600040 		.word	1073766520
 825 0090 FE5F0040 		.word	1073766398
 826              		.cfi_endproc
 827              	.LFE11:
 828              		.size	USB_LoadInEP, .-USB_LoadInEP
 829              		.section	.text.USB_EnableOutEP,"ax",%progbits
 830              		.align	2
 831              		.global	USB_EnableOutEP
 832              		.thumb
 833              		.thumb_func
 834              		.type	USB_EnableOutEP, %function
 835              	USB_EnableOutEP:
 836              	.LFB13:
1587:.\Generated_Source\PSoC5/USB.c **** 
1588:.\Generated_Source\PSoC5/USB.c **** 
1589:.\Generated_Source\PSoC5/USB.c **** /*******************************************************************************
1590:.\Generated_Source\PSoC5/USB.c **** * Function Name: USB_ReadOutEP
1591:.\Generated_Source\PSoC5/USB.c **** ****************************************************************************//**
1592:.\Generated_Source\PSoC5/USB.c **** *
1593:.\Generated_Source\PSoC5/USB.c **** *   This function performs different functionality depending on the Component’s
1594:.\Generated_Source\PSoC5/USB.c **** *   configured Endpoint Buffer Management. This parameter is defined in the
1595:.\Generated_Source\PSoC5/USB.c **** *   Descriptor Root in Component Configure window.
1596:.\Generated_Source\PSoC5/USB.c **** *
1597:.\Generated_Source\PSoC5/USB.c **** *   *Manual (Static/Dynamic Allocation):*
1598:.\Generated_Source\PSoC5/USB.c **** *   This function moves the specified number of bytes from endpoint buffer to
1599:.\Generated_Source\PSoC5/USB.c **** *   system RAM. The number of bytes actually transferred from endpoint buffer to
1600:.\Generated_Source\PSoC5/USB.c **** *   system RAM is the lesser of the actual number of bytes sent by the host or
1601:.\Generated_Source\PSoC5/USB.c **** *   the number of bytes requested by the length parameter.
1602:.\Generated_Source\PSoC5/USB.c **** *
1603:.\Generated_Source\PSoC5/USB.c **** *   *DMA with Manual Buffer Management:*
1604:.\Generated_Source\PSoC5/USB.c **** *   Configure DMA to transfer data from endpoint buffer to system RAM. Generate
1605:.\Generated_Source\PSoC5/USB.c **** *   a DMA request. The firmware must wait until the DMA completes the data
ARM GAS  C:\Users\cruiser\AppData\Local\Temp\cc8SekaC.s 			page 44


1606:.\Generated_Source\PSoC5/USB.c **** *   transfer after calling the USB_ReadOutEP() API. For example,
1607:.\Generated_Source\PSoC5/USB.c **** *   by checking EPstate:
1608:.\Generated_Source\PSoC5/USB.c **** *
1609:.\Generated_Source\PSoC5/USB.c **** *   \snippet /USBFS_sut_02.cydsn/main.c checking EPstatey
1610:.\Generated_Source\PSoC5/USB.c **** *
1611:.\Generated_Source\PSoC5/USB.c **** *   The USBFS_EnableOutEP() has to be called to allow host to write data into
1612:.\Generated_Source\PSoC5/USB.c **** *   the endpoint buffer after DMA has completed transfer data from OUT endpoint
1613:.\Generated_Source\PSoC5/USB.c **** *   buffer to SRAM.
1614:.\Generated_Source\PSoC5/USB.c **** *
1615:.\Generated_Source\PSoC5/USB.c **** *   *DMA with Automatic Buffer Management:*
1616:.\Generated_Source\PSoC5/USB.c **** *   Configure DMA. This is required only once and automatically generates DMA
1617:.\Generated_Source\PSoC5/USB.c **** *   requests as data arrives
1618:.\Generated_Source\PSoC5/USB.c **** *
1619:.\Generated_Source\PSoC5/USB.c **** *  \param epNumber: Contains the data endpoint number.
1620:.\Generated_Source\PSoC5/USB.c **** *            Valid values are between 1 and 8.
1621:.\Generated_Source\PSoC5/USB.c **** *  \param pData: A pointer to a data array from which the data for the endpoint
1622:.\Generated_Source\PSoC5/USB.c **** *         space is loaded.
1623:.\Generated_Source\PSoC5/USB.c **** *  \param length: The number of bytes to transfer from the USB Out endpoint and
1624:.\Generated_Source\PSoC5/USB.c **** *          loads it into data array. Valid values are between 0 and 1023. The
1625:.\Generated_Source\PSoC5/USB.c **** *          function moves fewer than the requested number of bytes if the host
1626:.\Generated_Source\PSoC5/USB.c **** *          sends fewer bytes than requested.
1627:.\Generated_Source\PSoC5/USB.c **** *
1628:.\Generated_Source\PSoC5/USB.c **** * \return
1629:.\Generated_Source\PSoC5/USB.c **** *  Number of bytes received, 0 for an invalid endpoint.
1630:.\Generated_Source\PSoC5/USB.c **** *
1631:.\Generated_Source\PSoC5/USB.c **** * \reentrant
1632:.\Generated_Source\PSoC5/USB.c **** *  No.
1633:.\Generated_Source\PSoC5/USB.c **** *
1634:.\Generated_Source\PSoC5/USB.c **** *******************************************************************************/
1635:.\Generated_Source\PSoC5/USB.c **** uint16 USB_ReadOutEP(uint8 epNumber, uint8 pData[], uint16 length)
1636:.\Generated_Source\PSoC5/USB.c ****                                                                         
1637:.\Generated_Source\PSoC5/USB.c **** {
1638:.\Generated_Source\PSoC5/USB.c ****     if ((pData != NULL) && (epNumber > USB_EP0) && (epNumber < USB_MAX_EP))
1639:.\Generated_Source\PSoC5/USB.c ****     {
1640:.\Generated_Source\PSoC5/USB.c ****     #if (!USB_EP_MANAGEMENT_DMA_AUTO)
1641:.\Generated_Source\PSoC5/USB.c ****         /* Adjust requested length to available data. */
1642:.\Generated_Source\PSoC5/USB.c ****         length = (length > USB_GetEPCount(epNumber)) ? USB_GetEPCount(epNumber) : length;
1643:.\Generated_Source\PSoC5/USB.c ****     #endif /* (!USB_EP_MANAGEMENT_DMA_AUTO) */
1644:.\Generated_Source\PSoC5/USB.c **** 
1645:.\Generated_Source\PSoC5/USB.c ****     #if (USB_EP_MANAGEMENT_MANUAL)
1646:.\Generated_Source\PSoC5/USB.c ****         {
1647:.\Generated_Source\PSoC5/USB.c ****             /* Copy data using arbiter data register. */
1648:.\Generated_Source\PSoC5/USB.c ****             uint16 i;
1649:.\Generated_Source\PSoC5/USB.c ****             for (i = 0u; i < length; ++i)
1650:.\Generated_Source\PSoC5/USB.c ****             {
1651:.\Generated_Source\PSoC5/USB.c ****                 pData[i] = (uint8) USB_ARB_EP_BASE.arbEp[epNumber].rwDr;
1652:.\Generated_Source\PSoC5/USB.c ****             }
1653:.\Generated_Source\PSoC5/USB.c ****         }
1654:.\Generated_Source\PSoC5/USB.c **** 
1655:.\Generated_Source\PSoC5/USB.c ****         /* Arm OUT endpoint after data has been copied from endpoint buffer. */
1656:.\Generated_Source\PSoC5/USB.c ****         USB_EnableOutEP(epNumber);
1657:.\Generated_Source\PSoC5/USB.c ****     #else
1658:.\Generated_Source\PSoC5/USB.c **** 
1659:.\Generated_Source\PSoC5/USB.c ****         #if (CY_PSOC3 || CY_PSOC5LP)
1660:.\Generated_Source\PSoC5/USB.c ****             /* Initialize DMA if it was not initialized. */
1661:.\Generated_Source\PSoC5/USB.c ****             if (DMA_INVALID_TD == USB_DmaTd[epNumber])
1662:.\Generated_Source\PSoC5/USB.c ****             {
ARM GAS  C:\Users\cruiser\AppData\Local\Temp\cc8SekaC.s 			page 45


1663:.\Generated_Source\PSoC5/USB.c ****                 USB_InitEP_DMA(epNumber, pData);
1664:.\Generated_Source\PSoC5/USB.c ****             }
1665:.\Generated_Source\PSoC5/USB.c ****         #endif /* (CY_PSOC3 || CY_PSOC5LP) */
1666:.\Generated_Source\PSoC5/USB.c **** 
1667:.\Generated_Source\PSoC5/USB.c ****         #if (USB_EP_MANAGEMENT_DMA_MANUAL)
1668:.\Generated_Source\PSoC5/USB.c ****         #if (CY_PSOC4)
1669:.\Generated_Source\PSoC5/USB.c ****         {
1670:.\Generated_Source\PSoC5/USB.c ****             uint32 channelNum = (uint32) USB_DmaChan[epNumber];
1671:.\Generated_Source\PSoC5/USB.c **** 
1672:.\Generated_Source\PSoC5/USB.c ****             /* Disable DMA channel: start configuration. */
1673:.\Generated_Source\PSoC5/USB.c ****             USB_CyDmaChDisable(channelNum);
1674:.\Generated_Source\PSoC5/USB.c **** 
1675:.\Generated_Source\PSoC5/USB.c ****             /* Configure source and destination. */
1676:.\Generated_Source\PSoC5/USB.c ****             USB_CyDmaSetSrcAddress(channelNum, USB_DMA_DESCR0, (void*) &USB_ARB_EP_BASE.arbEp[epNum
1677:.\Generated_Source\PSoC5/USB.c ****             USB_CyDmaSetDstAddress(channelNum, USB_DMA_DESCR0, (void*) pData);
1678:.\Generated_Source\PSoC5/USB.c **** 
1679:.\Generated_Source\PSoC5/USB.c ****             /* Configure DMA descriptor. */
1680:.\Generated_Source\PSoC5/USB.c ****             USB_CyDmaSetConfiguration(channelNum, USB_DMA_DESCR0, USB_DMA_COMMON_CFG | (uint16)(len
1681:.\Generated_Source\PSoC5/USB.c ****                                                     CYDMA_BYTE | CYDMA_WORD_ELEMENT | CYDMA_INC_DST
1682:.\Generated_Source\PSoC5/USB.c **** 
1683:.\Generated_Source\PSoC5/USB.c ****             /* Validate descriptor to execute on following DMA request. */
1684:.\Generated_Source\PSoC5/USB.c ****             USB_CyDmaValidateDescriptor(channelNum, USB_DMA_DESCR0);
1685:.\Generated_Source\PSoC5/USB.c **** 
1686:.\Generated_Source\PSoC5/USB.c ****             /* Enable DMA channel: configuration complete. */
1687:.\Generated_Source\PSoC5/USB.c ****             USB_CyDmaChEnable(channelNum);
1688:.\Generated_Source\PSoC5/USB.c ****         }
1689:.\Generated_Source\PSoC5/USB.c ****         #else
1690:.\Generated_Source\PSoC5/USB.c ****             /* Configure DMA to transfer data. */
1691:.\Generated_Source\PSoC5/USB.c ****             (void) CyDmaChDisable(USB_DmaChan[epNumber]);
1692:.\Generated_Source\PSoC5/USB.c ****             (void) CyDmaTdSetConfiguration(USB_DmaTd[epNumber], length, CY_DMA_DISABLE_TD, TD_TERMI
1693:.\Generated_Source\PSoC5/USB.c ****             (void) CyDmaTdSetAddress(USB_DmaTd[epNumber], LO16((uint32) &USB_ARB_EP_BASE.arbEp[epNu
1694:.\Generated_Source\PSoC5/USB.c **** 
1695:.\Generated_Source\PSoC5/USB.c ****             /* Enable DMA channel. */
1696:.\Generated_Source\PSoC5/USB.c ****             (void) CyDmaChSetInitialTd(USB_DmaChan[epNumber], USB_DmaTd[epNumber]);
1697:.\Generated_Source\PSoC5/USB.c ****             (void) CyDmaChEnable(USB_DmaChan[epNumber], 1u);
1698:.\Generated_Source\PSoC5/USB.c ****         #endif /* (CY_PSOC4) */
1699:.\Generated_Source\PSoC5/USB.c **** 
1700:.\Generated_Source\PSoC5/USB.c ****             /* Generate DMA request. */
1701:.\Generated_Source\PSoC5/USB.c ****             USB_ARB_EP_BASE.arbEp[epNumber].epCfg |=  (uint8)  USB_ARB_EPX_CFG_DMA_REQ;
1702:.\Generated_Source\PSoC5/USB.c ****             USB_ARB_EP_BASE.arbEp[epNumber].epCfg &=  (uint8) ~USB_ARB_EPX_CFG_DMA_REQ;
1703:.\Generated_Source\PSoC5/USB.c **** 
1704:.\Generated_Source\PSoC5/USB.c ****             /* OUT endpoint has to be armed again by user when DMA transfers have been completed.
1705:.\Generated_Source\PSoC5/USB.c ****             * NO_EVENT_PENDING: notifies that data has been copied from endpoint buffer.
1706:.\Generated_Source\PSoC5/USB.c ****             */
1707:.\Generated_Source\PSoC5/USB.c **** 
1708:.\Generated_Source\PSoC5/USB.c ****         #endif /* (USB_EP_MANAGEMENT_DMA_MANUAL) */
1709:.\Generated_Source\PSoC5/USB.c **** 
1710:.\Generated_Source\PSoC5/USB.c ****         #if (USB_EP_MANAGEMENT_DMA_AUTO)
1711:.\Generated_Source\PSoC5/USB.c ****         #if (CY_PSOC4)
1712:.\Generated_Source\PSoC5/USB.c ****         {
1713:.\Generated_Source\PSoC5/USB.c ****             uint32 channelNum = (uint32) USB_DmaChan[epNumber];
1714:.\Generated_Source\PSoC5/USB.c ****             uint32 lengthDescr0, lengthDescr1;
1715:.\Generated_Source\PSoC5/USB.c **** 
1716:.\Generated_Source\PSoC5/USB.c ****             /* Get number of full bursts. */
1717:.\Generated_Source\PSoC5/USB.c ****             USB_DmaEpBurstCnt[epNumber] = (uint8) (length / USB_DMA_BYTES_PER_BURST);
1718:.\Generated_Source\PSoC5/USB.c **** 
1719:.\Generated_Source\PSoC5/USB.c ****             /* Get number of elements in the last burst. */
ARM GAS  C:\Users\cruiser\AppData\Local\Temp\cc8SekaC.s 			page 46


1720:.\Generated_Source\PSoC5/USB.c ****             USB_DmaEpLastBurstEl[epNumber] = (uint8) (length % USB_DMA_BYTES_PER_BURST);
1721:.\Generated_Source\PSoC5/USB.c **** 
1722:.\Generated_Source\PSoC5/USB.c ****             /* Get total number of bursts. */
1723:.\Generated_Source\PSoC5/USB.c ****             USB_DmaEpBurstCnt[epNumber] += (0u != USB_DmaEpLastBurstEl[epNumber]) ? 1u : 0u;
1724:.\Generated_Source\PSoC5/USB.c **** 
1725:.\Generated_Source\PSoC5/USB.c ****             /* Adjust number of the data elements transfered in last burst. */
1726:.\Generated_Source\PSoC5/USB.c ****             USB_DmaEpLastBurstEl[epNumber] = (0u != USB_DmaEpLastBurstEl[epNumber]) ?
1727:.\Generated_Source\PSoC5/USB.c ****                                                                   (USB_DmaEpLastBurstEl[epNumber] -
1728:.\Generated_Source\PSoC5/USB.c ****                                                                   (USB_DMA_BYTES_PER_BURST - 1u);
1729:.\Generated_Source\PSoC5/USB.c **** 
1730:.\Generated_Source\PSoC5/USB.c ****             /* Get number of data elements to transfer for descriptor 0 and 1. */
1731:.\Generated_Source\PSoC5/USB.c ****             lengthDescr0 = (1u == USB_DmaEpBurstCnt[epNumber]) ? USB_DmaEpLastBurstEl[epNumber] : (
1732:.\Generated_Source\PSoC5/USB.c ****             lengthDescr1 = (2u == USB_DmaEpBurstCnt[epNumber]) ? USB_DmaEpLastBurstEl[epNumber] : (
1733:.\Generated_Source\PSoC5/USB.c **** 
1734:.\Generated_Source\PSoC5/USB.c ****             /* Mark if revert number of data elements in descriptor after transfer completion. */
1735:.\Generated_Source\PSoC5/USB.c ****             USB_DmaEpLastBurstEl[epNumber] |= (USB_DmaEpBurstCnt[epNumber] > 2u) ? USB_DMA_DESCR_RE
1736:.\Generated_Source\PSoC5/USB.c **** 
1737:.\Generated_Source\PSoC5/USB.c ****             /* Mark last descriptor to be executed. */
1738:.\Generated_Source\PSoC5/USB.c ****             USB_DmaEpLastBurstEl[epNumber] |= (0u != (USB_DmaEpBurstCnt[epNumber] & 0x1u)) ?
1739:.\Generated_Source\PSoC5/USB.c ****                                                                     USB_DMA_DESCR0_MASK : USB_DMA_D
1740:.\Generated_Source\PSoC5/USB.c **** 
1741:.\Generated_Source\PSoC5/USB.c ****             /* Adjust burst counter taking to account: 2 valid descriptors and interrupt trigger af
1742:.\Generated_Source\PSoC5/USB.c ****             USB_DmaEpBurstCnt[epNumber] = USB_DMA_GET_BURST_CNT(USB_DmaEpBurstCnt[epNumber]);
1743:.\Generated_Source\PSoC5/USB.c **** 
1744:.\Generated_Source\PSoC5/USB.c ****             /* Store address of buffer and burst counter for endpoint. */
1745:.\Generated_Source\PSoC5/USB.c ****             USB_DmaEpBufferAddrBackup[epNumber] = (uint32) pData;
1746:.\Generated_Source\PSoC5/USB.c ****             USB_DmaEpBurstCntBackup[epNumber]   = USB_DmaEpBurstCnt[epNumber];
1747:.\Generated_Source\PSoC5/USB.c **** 
1748:.\Generated_Source\PSoC5/USB.c ****             /* Disable DMA channel: start configuration. */
1749:.\Generated_Source\PSoC5/USB.c ****             USB_CyDmaChDisable(channelNum);
1750:.\Generated_Source\PSoC5/USB.c **** 
1751:.\Generated_Source\PSoC5/USB.c ****             /* Set destination address. */
1752:.\Generated_Source\PSoC5/USB.c ****             USB_CyDmaSetSrcAddress(channelNum, USB_DMA_DESCR0, (void*) &USB_ARB_EP_BASE.arbEp[epNum
1753:.\Generated_Source\PSoC5/USB.c ****             USB_CyDmaSetSrcAddress(channelNum, USB_DMA_DESCR1, (void*) &USB_ARB_EP_BASE.arbEp[epNum
1754:.\Generated_Source\PSoC5/USB.c **** 
1755:.\Generated_Source\PSoC5/USB.c ****             USB_CyDmaSetDstAddress(channelNum, USB_DMA_DESCR0, (void*) ((uint32) pData));
1756:.\Generated_Source\PSoC5/USB.c ****             USB_CyDmaSetDstAddress(channelNum, USB_DMA_DESCR1, (void*) ((uint32) pData + USB_DMA_BY
1757:.\Generated_Source\PSoC5/USB.c **** 
1758:.\Generated_Source\PSoC5/USB.c ****             /* Configure DMA descriptor. */
1759:.\Generated_Source\PSoC5/USB.c ****             USB_CyDmaSetConfiguration(channelNum, USB_DMA_DESCR0, USB_DMA_COMMON_CFG  | lengthDescr
1760:.\Generated_Source\PSoC5/USB.c ****                                                     CYDMA_BYTE | CYDMA_WORD_ELEMENT | CYDMA_INC_DST
1761:.\Generated_Source\PSoC5/USB.c **** 
1762:.\Generated_Source\PSoC5/USB.c ****             /* Configure DMA descriptor. */
1763:.\Generated_Source\PSoC5/USB.c ****             USB_CyDmaSetConfiguration(channelNum, USB_DMA_DESCR1, USB_DMA_COMMON_CFG  | lengthDescr
1764:.\Generated_Source\PSoC5/USB.c ****                                                     CYDMA_BYTE | CYDMA_WORD_ELEMENT | CYDMA_INC_DST
1765:.\Generated_Source\PSoC5/USB.c **** 
1766:.\Generated_Source\PSoC5/USB.c ****             /* Enable interrupt from DMA channel. */
1767:.\Generated_Source\PSoC5/USB.c ****             USB_CyDmaSetInterruptMask(channelNum);
1768:.\Generated_Source\PSoC5/USB.c **** 
1769:.\Generated_Source\PSoC5/USB.c ****             /* Validate DMA descriptor 0 and 1. */
1770:.\Generated_Source\PSoC5/USB.c ****             USB_CyDmaValidateDescriptor(channelNum, USB_DMA_DESCR0);
1771:.\Generated_Source\PSoC5/USB.c ****             USB_CyDmaValidateDescriptor(channelNum, USB_DMA_DESCR1);
1772:.\Generated_Source\PSoC5/USB.c **** 
1773:.\Generated_Source\PSoC5/USB.c ****             /* Enable DMA channel: configuration complete. */
1774:.\Generated_Source\PSoC5/USB.c ****             USB_CyDmaChEnable(channelNum);
1775:.\Generated_Source\PSoC5/USB.c ****         }
1776:.\Generated_Source\PSoC5/USB.c ****         #else
ARM GAS  C:\Users\cruiser\AppData\Local\Temp\cc8SekaC.s 			page 47


1777:.\Generated_Source\PSoC5/USB.c ****             (void) CyDmaChDisable(USB_DmaChan[epNumber]);
1778:.\Generated_Source\PSoC5/USB.c ****             (void) CyDmaTdSetConfiguration(USB_DmaTd[epNumber], length,  USB_DmaTd[epNumber], TD_TE
1779:.\Generated_Source\PSoC5/USB.c ****             (void) CyDmaTdSetAddress(USB_DmaTd[epNumber], LO16((uint32) &USB_ARB_EP_BASE.arbEp[epNu
1780:.\Generated_Source\PSoC5/USB.c **** 
1781:.\Generated_Source\PSoC5/USB.c ****             /* Clear Any potential pending DMA requests before starting DMA channel to transfer dat
1782:.\Generated_Source\PSoC5/USB.c ****             (void) CyDmaClearPendingDrq(USB_DmaChan[epNumber]);
1783:.\Generated_Source\PSoC5/USB.c **** 
1784:.\Generated_Source\PSoC5/USB.c ****             /* Enable DMA channel. */
1785:.\Generated_Source\PSoC5/USB.c ****             (void) CyDmaChSetInitialTd(USB_DmaChan[epNumber], USB_DmaTd[epNumber]);
1786:.\Generated_Source\PSoC5/USB.c ****             (void) CyDmaChEnable(USB_DmaChan[epNumber], 1u);
1787:.\Generated_Source\PSoC5/USB.c ****         #endif /* (CY_PSOC4) */
1788:.\Generated_Source\PSoC5/USB.c **** 
1789:.\Generated_Source\PSoC5/USB.c ****             /* OUT endpoint has to be armed again by user when DMA transfers have been completed.
1790:.\Generated_Source\PSoC5/USB.c ****             * NO_EVENT_PENDING: notifies that data has been copied from endpoint buffer.
1791:.\Generated_Source\PSoC5/USB.c ****             */
1792:.\Generated_Source\PSoC5/USB.c **** 
1793:.\Generated_Source\PSoC5/USB.c ****         #endif /* (USB_EP_MANAGEMENT_DMA_AUTO) */
1794:.\Generated_Source\PSoC5/USB.c ****     #endif /* (USB_EP_MANAGEMENT_MANUAL) */
1795:.\Generated_Source\PSoC5/USB.c ****     }
1796:.\Generated_Source\PSoC5/USB.c ****     else
1797:.\Generated_Source\PSoC5/USB.c ****     {
1798:.\Generated_Source\PSoC5/USB.c ****         length = 0u;
1799:.\Generated_Source\PSoC5/USB.c ****     }
1800:.\Generated_Source\PSoC5/USB.c **** 
1801:.\Generated_Source\PSoC5/USB.c ****     return (length);
1802:.\Generated_Source\PSoC5/USB.c **** }
1803:.\Generated_Source\PSoC5/USB.c **** 
1804:.\Generated_Source\PSoC5/USB.c **** 
1805:.\Generated_Source\PSoC5/USB.c **** #if (USB_16BITS_EP_ACCESS_ENABLE)
1806:.\Generated_Source\PSoC5/USB.c **** /*******************************************************************************
1807:.\Generated_Source\PSoC5/USB.c **** * Function Name: USB_LoadInEP16
1808:.\Generated_Source\PSoC5/USB.c **** ****************************************************************************//**
1809:.\Generated_Source\PSoC5/USB.c **** *
1810:.\Generated_Source\PSoC5/USB.c **** *  This function performs different functionality depending on the Component’s
1811:.\Generated_Source\PSoC5/USB.c **** *  configured Endpoint Buffer Management. This parameter is defined in
1812:.\Generated_Source\PSoC5/USB.c **** *  the Descriptor Root in Component Configure window.
1813:.\Generated_Source\PSoC5/USB.c **** *
1814:.\Generated_Source\PSoC5/USB.c **** *  *Manual (Static/Dynamic Allocation):*
1815:.\Generated_Source\PSoC5/USB.c **** *  This function loads and enables the specified USB data endpoint for an IN
1816:.\Generated_Source\PSoC5/USB.c **** *  data transfer.
1817:.\Generated_Source\PSoC5/USB.c **** *
1818:.\Generated_Source\PSoC5/USB.c **** *  *DMA with Manual Buffer Management:*
1819:.\Generated_Source\PSoC5/USB.c **** *  Configures DMA for a data transfer from system RAM to endpoint buffer.
1820:.\Generated_Source\PSoC5/USB.c **** *  Generates request for a transfer.
1821:.\Generated_Source\PSoC5/USB.c **** *
1822:.\Generated_Source\PSoC5/USB.c **** *  *DMA with Automatic Buffer Management:*
1823:.\Generated_Source\PSoC5/USB.c **** *  Configures DMA. This is required only once, so it is done only when parameter
1824:.\Generated_Source\PSoC5/USB.c **** *  pData is not NULL. When the pData pointer is NULL, the function skips this
1825:.\Generated_Source\PSoC5/USB.c **** *  task. Sets Data ready status: This generates the first DMA transfer and
1826:.\Generated_Source\PSoC5/USB.c **** *  prepares data in endpoint buffer.
1827:.\Generated_Source\PSoC5/USB.c **** *
1828:.\Generated_Source\PSoC5/USB.c **** *  \param epNumber Contains the data endpoint number.
1829:.\Generated_Source\PSoC5/USB.c **** *        Valid values are between 1 and 8.
1830:.\Generated_Source\PSoC5/USB.c **** *  \param *pData A pointer to a data array from which the data for the endpoint
1831:.\Generated_Source\PSoC5/USB.c **** *        space is loaded. It shall be ensured that this pointer address is even
1832:.\Generated_Source\PSoC5/USB.c **** *        to ensure the 16-bit transfer is aligned to even address. Else, a hard
1833:.\Generated_Source\PSoC5/USB.c **** *        fault condition can occur.
ARM GAS  C:\Users\cruiser\AppData\Local\Temp\cc8SekaC.s 			page 48


1834:.\Generated_Source\PSoC5/USB.c **** *  \param length The number of bytes to transfer from the array and then send as
1835:.\Generated_Source\PSoC5/USB.c **** *        a result of an IN request. Valid values are between 0 and 512 (1023 for
1836:.\Generated_Source\PSoC5/USB.c **** *        DMA with Automatic Buffer Management mode). The value 512 is applicable
1837:.\Generated_Source\PSoC5/USB.c **** *        if only one endpoint is used.
1838:.\Generated_Source\PSoC5/USB.c **** *
1839:.\Generated_Source\PSoC5/USB.c **** * \reentrant
1840:.\Generated_Source\PSoC5/USB.c **** *  No.
1841:.\Generated_Source\PSoC5/USB.c **** *
1842:.\Generated_Source\PSoC5/USB.c **** *******************************************************************************/
1843:.\Generated_Source\PSoC5/USB.c **** void USB_LoadInEP16(uint8 epNumber, const uint8 pData[], uint16 length)
1844:.\Generated_Source\PSoC5/USB.c **** {
1845:.\Generated_Source\PSoC5/USB.c ****     /* Check array alignment on half-word boundary. */
1846:.\Generated_Source\PSoC5/USB.c ****     CYASSERT(0u == (((uint32) pData) & 0x01u));
1847:.\Generated_Source\PSoC5/USB.c **** 
1848:.\Generated_Source\PSoC5/USB.c ****     if ((epNumber > USB_EP0) && (epNumber < USB_MAX_EP))
1849:.\Generated_Source\PSoC5/USB.c ****     {
1850:.\Generated_Source\PSoC5/USB.c ****     #if (!USB_EP_MANAGEMENT_DMA_AUTO)
1851:.\Generated_Source\PSoC5/USB.c ****         /* Limit length to available buffer USB IP buffer size. */
1852:.\Generated_Source\PSoC5/USB.c ****         if (length > (USB_EPX_DATA_BUF_MAX - USB_EP[epNumber].buffOffset))
1853:.\Generated_Source\PSoC5/USB.c ****         {
1854:.\Generated_Source\PSoC5/USB.c ****             length = USB_EPX_DATA_BUF_MAX - USB_EP[epNumber].buffOffset;
1855:.\Generated_Source\PSoC5/USB.c ****         }
1856:.\Generated_Source\PSoC5/USB.c ****     #endif /* (!USB_EP_MANAGEMENT_DMA_AUTO) */
1857:.\Generated_Source\PSoC5/USB.c **** 
1858:.\Generated_Source\PSoC5/USB.c ****         /* Set count and data toggle. */
1859:.\Generated_Source\PSoC5/USB.c ****         USB_SIE_EP_BASE.sieEp[epNumber].epCnt0 = (uint32) HI8(length) | USB_EP[epNumber].epToggle;
1860:.\Generated_Source\PSoC5/USB.c ****         USB_SIE_EP_BASE.sieEp[epNumber].epCnt1 = (uint32) LO8(length);
1861:.\Generated_Source\PSoC5/USB.c **** 
1862:.\Generated_Source\PSoC5/USB.c ****         /* Adjust requested length: 2 bytes are handled at one data register access. */
1863:.\Generated_Source\PSoC5/USB.c ****         length += (length & 0x01u);
1864:.\Generated_Source\PSoC5/USB.c **** 
1865:.\Generated_Source\PSoC5/USB.c ****     #if (USB_EP_MANAGEMENT_MANUAL)
1866:.\Generated_Source\PSoC5/USB.c ****         if (NULL != pData)
1867:.\Generated_Source\PSoC5/USB.c ****         {
1868:.\Generated_Source\PSoC5/USB.c ****             /* Convert uint8 array to uint16. */
1869:.\Generated_Source\PSoC5/USB.c ****             const uint16 *dataBuf = (uint16 *) pData;
1870:.\Generated_Source\PSoC5/USB.c **** 
1871:.\Generated_Source\PSoC5/USB.c ****             /* Copy data using 16-bits arbiter data register. */
1872:.\Generated_Source\PSoC5/USB.c ****             uint16 i;
1873:.\Generated_Source\PSoC5/USB.c ****             for (i = 0u; i < (length >> 1u); ++i)
1874:.\Generated_Source\PSoC5/USB.c ****             {
1875:.\Generated_Source\PSoC5/USB.c ****                 USB_ARB_EP16_BASE.arbEp[epNumber].rwDr16 = dataBuf[i];
1876:.\Generated_Source\PSoC5/USB.c ****             }
1877:.\Generated_Source\PSoC5/USB.c ****         }
1878:.\Generated_Source\PSoC5/USB.c **** 
1879:.\Generated_Source\PSoC5/USB.c ****         /* IN endpoint buffer is full - read to be read. */
1880:.\Generated_Source\PSoC5/USB.c ****         USB_EP[epNumber].apiEpState = USB_NO_EVENT_PENDING;
1881:.\Generated_Source\PSoC5/USB.c **** 
1882:.\Generated_Source\PSoC5/USB.c ****         /* Arm IN endpoint. */
1883:.\Generated_Source\PSoC5/USB.c ****         USB_SIE_EP_BASE.sieEp[epNumber].epCr0 = USB_EP[epNumber].epMode;
1884:.\Generated_Source\PSoC5/USB.c **** 
1885:.\Generated_Source\PSoC5/USB.c ****     #else
1886:.\Generated_Source\PSoC5/USB.c **** 
1887:.\Generated_Source\PSoC5/USB.c ****         #if (USB_EP_MANAGEMENT_DMA_MANUAL)
1888:.\Generated_Source\PSoC5/USB.c ****             /* IN endpoint buffer will be fully loaded by DMA shortly. */
1889:.\Generated_Source\PSoC5/USB.c ****             USB_EP[epNumber].apiEpState = USB_NO_EVENT_PENDING;
1890:.\Generated_Source\PSoC5/USB.c **** 
ARM GAS  C:\Users\cruiser\AppData\Local\Temp\cc8SekaC.s 			page 49


1891:.\Generated_Source\PSoC5/USB.c ****             if ((pData != NULL) && (length > 0u))
1892:.\Generated_Source\PSoC5/USB.c ****             {
1893:.\Generated_Source\PSoC5/USB.c ****                 uint32 channelNum = (uint32) USB_DmaChan[epNumber];
1894:.\Generated_Source\PSoC5/USB.c **** 
1895:.\Generated_Source\PSoC5/USB.c ****                 /* Disable DMA channel: start configuration. */
1896:.\Generated_Source\PSoC5/USB.c ****                 USB_CyDmaChDisable(channelNum);
1897:.\Generated_Source\PSoC5/USB.c **** 
1898:.\Generated_Source\PSoC5/USB.c ****                 /* Configure source and destination. */
1899:.\Generated_Source\PSoC5/USB.c ****                 USB_CyDmaSetSrcAddress(channelNum, USB_DMA_DESCR0, (void*) pData);
1900:.\Generated_Source\PSoC5/USB.c ****                 USB_CyDmaSetDstAddress(channelNum, USB_DMA_DESCR0, (void*) &USB_ARB_EP16_BASE.arbEp
1901:.\Generated_Source\PSoC5/USB.c **** 
1902:.\Generated_Source\PSoC5/USB.c ****                 /* Configure DMA descriptor. */
1903:.\Generated_Source\PSoC5/USB.c ****                 length = (length >> 1u) - 1u;
1904:.\Generated_Source\PSoC5/USB.c ****                 USB_CyDmaSetConfiguration(channelNum, USB_DMA_DESCR0, USB_DMA_COMMON_CFG | length |
1905:.\Generated_Source\PSoC5/USB.c ****                                                         CYDMA_HALFWORD | CYDMA_ELEMENT_WORD | CYDMA
1906:.\Generated_Source\PSoC5/USB.c **** 
1907:.\Generated_Source\PSoC5/USB.c ****                 /* Validate descriptor to execute on following DMA request. */
1908:.\Generated_Source\PSoC5/USB.c ****                 USB_CyDmaValidateDescriptor(channelNum, USB_DMA_DESCR0);
1909:.\Generated_Source\PSoC5/USB.c **** 
1910:.\Generated_Source\PSoC5/USB.c ****                 /* Enable DMA channel: configuration complete. */
1911:.\Generated_Source\PSoC5/USB.c ****                 USB_CyDmaChEnable(channelNum);
1912:.\Generated_Source\PSoC5/USB.c **** 
1913:.\Generated_Source\PSoC5/USB.c ****                 /* Generate DMA request. */
1914:.\Generated_Source\PSoC5/USB.c ****                 USB_ARB_EP_BASE.arbEp[epNumber].epCfg |=  (uint32)  USB_ARB_EPX_CFG_DMA_REQ;
1915:.\Generated_Source\PSoC5/USB.c ****                 USB_ARB_EP_BASE.arbEp[epNumber].epCfg &=  (uint32) ~USB_ARB_EPX_CFG_DMA_REQ;
1916:.\Generated_Source\PSoC5/USB.c **** 
1917:.\Generated_Source\PSoC5/USB.c ****                 /* IN endpoint will be armed in ARB_ISR(source: IN_BUF_FULL) after first DMA transf
1918:.\Generated_Source\PSoC5/USB.c ****             }
1919:.\Generated_Source\PSoC5/USB.c ****             else
1920:.\Generated_Source\PSoC5/USB.c ****             {
1921:.\Generated_Source\PSoC5/USB.c ****                 /* When zero-length packet: arm IN endpoint directly. */
1922:.\Generated_Source\PSoC5/USB.c ****                 USB_SIE_EP_BASE.sieEp[epNumber].epCr0 = USB_EP[epNumber].epMode;
1923:.\Generated_Source\PSoC5/USB.c ****             }
1924:.\Generated_Source\PSoC5/USB.c ****         #endif /* (USB_EP_MANAGEMENT_DMA_MANUAL) */
1925:.\Generated_Source\PSoC5/USB.c **** 
1926:.\Generated_Source\PSoC5/USB.c ****         #if (USB_EP_MANAGEMENT_DMA_AUTO)
1927:.\Generated_Source\PSoC5/USB.c ****             if (pData != NULL)
1928:.\Generated_Source\PSoC5/USB.c ****             {
1929:.\Generated_Source\PSoC5/USB.c ****                 uint32 channelNum = (uint32) USB_DmaChan[epNumber];
1930:.\Generated_Source\PSoC5/USB.c **** 
1931:.\Generated_Source\PSoC5/USB.c ****                 /* Store address of buffer. */
1932:.\Generated_Source\PSoC5/USB.c ****                 USB_DmaEpBufferAddrBackup[epNumber] = (uint32) pData;
1933:.\Generated_Source\PSoC5/USB.c **** 
1934:.\Generated_Source\PSoC5/USB.c ****                 /* Disable DMA channel: start configuration. */
1935:.\Generated_Source\PSoC5/USB.c ****                 USB_CyDmaChDisable(channelNum);
1936:.\Generated_Source\PSoC5/USB.c **** 
1937:.\Generated_Source\PSoC5/USB.c ****                 /* Set destination address. */
1938:.\Generated_Source\PSoC5/USB.c ****                 USB_CyDmaSetDstAddress(channelNum, USB_DMA_DESCR0, (void*) &USB_ARB_EP16_BASE.arbEp
1939:.\Generated_Source\PSoC5/USB.c ****                 USB_CyDmaSetDstAddress(channelNum, USB_DMA_DESCR1, (void*) &USB_ARB_EP16_BASE.arbEp
1940:.\Generated_Source\PSoC5/USB.c **** 
1941:.\Generated_Source\PSoC5/USB.c ****                 /* Configure DMA descriptor. */
1942:.\Generated_Source\PSoC5/USB.c ****                 USB_CyDmaSetConfiguration(channelNum, USB_DMA_DESCR0, USB_DMA_COMMON_CFG  |
1943:.\Generated_Source\PSoC5/USB.c ****                                                         CYDMA_HALFWORD | CYDMA_ELEMENT_WORD | CYDMA
1944:.\Generated_Source\PSoC5/USB.c **** 
1945:.\Generated_Source\PSoC5/USB.c ****                 /* Configure DMA descriptor. */
1946:.\Generated_Source\PSoC5/USB.c ****                 USB_CyDmaSetConfiguration(channelNum, USB_DMA_DESCR1, USB_DMA_COMMON_CFG  |
1947:.\Generated_Source\PSoC5/USB.c ****                                                         CYDMA_HALFWORD | CYDMA_ELEMENT_WORD | CYDMA
ARM GAS  C:\Users\cruiser\AppData\Local\Temp\cc8SekaC.s 			page 50


1948:.\Generated_Source\PSoC5/USB.c **** 
1949:.\Generated_Source\PSoC5/USB.c ****                 /* Enable interrupt from DMA channel. */
1950:.\Generated_Source\PSoC5/USB.c ****                 USB_CyDmaSetInterruptMask(channelNum);
1951:.\Generated_Source\PSoC5/USB.c **** 
1952:.\Generated_Source\PSoC5/USB.c ****                 /* Validate descriptor 1. It will not be invalided during operation. */
1953:.\Generated_Source\PSoC5/USB.c ****                 USB_CyDmaValidateDescriptor(channelNum, USB_DMA_DESCR1);
1954:.\Generated_Source\PSoC5/USB.c **** 
1955:.\Generated_Source\PSoC5/USB.c ****                 /* Enable DMA channel: configuration complete. */
1956:.\Generated_Source\PSoC5/USB.c ****                 USB_CyDmaChEnable(channelNum);
1957:.\Generated_Source\PSoC5/USB.c ****             }
1958:.\Generated_Source\PSoC5/USB.c ****             else
1959:.\Generated_Source\PSoC5/USB.c ****             {
1960:.\Generated_Source\PSoC5/USB.c ****                 /* IN endpoint buffer (32 bytes) will shortly be preloaded by DMA. */
1961:.\Generated_Source\PSoC5/USB.c ****                 USB_EP[epNumber].apiEpState = USB_NO_EVENT_PENDING;
1962:.\Generated_Source\PSoC5/USB.c **** 
1963:.\Generated_Source\PSoC5/USB.c ****                 if (length > 0u)
1964:.\Generated_Source\PSoC5/USB.c ****                 {
1965:.\Generated_Source\PSoC5/USB.c ****                     uint32 lengthDescr0, lengthDescr1;
1966:.\Generated_Source\PSoC5/USB.c ****                     uint32 channelNum = (uint32) USB_DmaChan[epNumber];
1967:.\Generated_Source\PSoC5/USB.c **** 
1968:.\Generated_Source\PSoC5/USB.c ****                     /* Get number of full bursts. */
1969:.\Generated_Source\PSoC5/USB.c ****                     USB_DmaEpBurstCnt[epNumber] = (uint8) (length / USB_DMA_BYTES_PER_BURST);
1970:.\Generated_Source\PSoC5/USB.c **** 
1971:.\Generated_Source\PSoC5/USB.c ****                     /* Get number of elements in the last burst. */
1972:.\Generated_Source\PSoC5/USB.c ****                     USB_DmaEpLastBurstEl[epNumber] = (uint8) (length % USB_DMA_BYTES_PER_BURST);
1973:.\Generated_Source\PSoC5/USB.c **** 
1974:.\Generated_Source\PSoC5/USB.c ****                     /* Get total number of bursts. */
1975:.\Generated_Source\PSoC5/USB.c ****                     USB_DmaEpBurstCnt[epNumber] += (0u != USB_DmaEpLastBurstEl[epNumber]) ? 1u : 0u
1976:.\Generated_Source\PSoC5/USB.c **** 
1977:.\Generated_Source\PSoC5/USB.c ****                     /* Adjust number of data elements transferred in last burst. */
1978:.\Generated_Source\PSoC5/USB.c ****                     USB_DmaEpLastBurstEl[epNumber] = (0u != USB_DmaEpLastBurstEl[epNumber]) ?
1979:.\Generated_Source\PSoC5/USB.c ****                                                                           ((USB_DmaEpLastBurstEl[ep
1980:.\Generated_Source\PSoC5/USB.c ****                                                                            (USB_DMA_HALFWORDS_PER_B
1981:.\Generated_Source\PSoC5/USB.c **** 
1982:.\Generated_Source\PSoC5/USB.c ****                     /* Get number of data elements to transfer for descriptor 0 and 1. */
1983:.\Generated_Source\PSoC5/USB.c ****                     lengthDescr0 = (1u == USB_DmaEpBurstCnt[epNumber]) ? USB_DmaEpLastBurstEl[epNum
1984:.\Generated_Source\PSoC5/USB.c ****                     lengthDescr1 = (2u == USB_DmaEpBurstCnt[epNumber]) ? USB_DmaEpLastBurstEl[epNum
1985:.\Generated_Source\PSoC5/USB.c **** 
1986:.\Generated_Source\PSoC5/USB.c ****                     /* Mark which descriptor is last one to execute. */
1987:.\Generated_Source\PSoC5/USB.c ****                     USB_DmaEpLastBurstEl[epNumber] |= (0u != (USB_DmaEpBurstCnt[epNumber] & 0x1u)) 
1988:.\Generated_Source\PSoC5/USB.c ****                                                                             USB_DMA_DESCR0_MASK : U
1989:.\Generated_Source\PSoC5/USB.c **** 
1990:.\Generated_Source\PSoC5/USB.c ****                     /* Adjust burst counter taking to account: 2 valid descriptors and interrupt tr
1991:.\Generated_Source\PSoC5/USB.c ****                     USB_DmaEpBurstCnt[epNumber] = USB_DMA_GET_BURST_CNT(USB_DmaEpBurstCnt[epNumber]
1992:.\Generated_Source\PSoC5/USB.c **** 
1993:.\Generated_Source\PSoC5/USB.c ****                     /* Restore DMA settings for current transfer. */
1994:.\Generated_Source\PSoC5/USB.c ****                     USB_CyDmaChDisable(channelNum);
1995:.\Generated_Source\PSoC5/USB.c **** 
1996:.\Generated_Source\PSoC5/USB.c ****                     /* Restore destination address for input endpoint. */
1997:.\Generated_Source\PSoC5/USB.c ****                     USB_CyDmaSetSrcAddress(channelNum, USB_DMA_DESCR0, (void*) ((uint32) USB_DmaEpB
1998:.\Generated_Source\PSoC5/USB.c ****                     USB_CyDmaSetSrcAddress(channelNum, USB_DMA_DESCR1, (void*) ((uint32) USB_DmaEpB
1999:.\Generated_Source\PSoC5/USB.c ****                                                                                                    
2000:.\Generated_Source\PSoC5/USB.c **** 
2001:.\Generated_Source\PSoC5/USB.c ****                     /* Set number of elements to transfer. */
2002:.\Generated_Source\PSoC5/USB.c ****                     USB_CyDmaSetNumDataElements(channelNum, USB_DMA_DESCR0, lengthDescr0);
2003:.\Generated_Source\PSoC5/USB.c ****                     USB_CyDmaSetNumDataElements(channelNum, USB_DMA_DESCR1, lengthDescr1);
2004:.\Generated_Source\PSoC5/USB.c **** 
ARM GAS  C:\Users\cruiser\AppData\Local\Temp\cc8SekaC.s 			page 51


2005:.\Generated_Source\PSoC5/USB.c ****                     /* Validate descriptor 0 and command to start with it. */
2006:.\Generated_Source\PSoC5/USB.c ****                     USB_CyDmaValidateDescriptor(channelNum, USB_DMA_DESCR0);
2007:.\Generated_Source\PSoC5/USB.c ****                     USB_CyDmaSetDescriptor0Next(channelNum);
2008:.\Generated_Source\PSoC5/USB.c **** 
2009:.\Generated_Source\PSoC5/USB.c ****                     /* Enable DMA channel: configuration complete. */
2010:.\Generated_Source\PSoC5/USB.c ****                     USB_CyDmaChEnable(channelNum);
2011:.\Generated_Source\PSoC5/USB.c **** 
2012:.\Generated_Source\PSoC5/USB.c ****                 #if !defined (USB_MANUAL_IN_EP_ARM)
2013:.\Generated_Source\PSoC5/USB.c ****                     /* Set IN data ready to generate DMA request to load data into endpoint buffer.
2014:.\Generated_Source\PSoC5/USB.c ****                     USB_ARB_EP_BASE.arbEp[epNumber].epCfg |= USB_ARB_EPX_CFG_IN_DATA_RDY;
2015:.\Generated_Source\PSoC5/USB.c ****                 #endif  /* (USB_MANUAL_IN_EP_ARM) */
2016:.\Generated_Source\PSoC5/USB.c **** 
2017:.\Generated_Source\PSoC5/USB.c ****                     /* IN endpoint will be armed in ARB_ISR(source: IN_BUF_FULL) after first DMA tr
2018:.\Generated_Source\PSoC5/USB.c ****                 }
2019:.\Generated_Source\PSoC5/USB.c ****                 else
2020:.\Generated_Source\PSoC5/USB.c ****                 {
2021:.\Generated_Source\PSoC5/USB.c ****                     /* When zero-length packet: arm IN endpoint directly. */
2022:.\Generated_Source\PSoC5/USB.c ****                     USB_SIE_EP_BASE.sieEp[epNumber].epCr0 = USB_EP[epNumber].epMode;
2023:.\Generated_Source\PSoC5/USB.c ****                 }
2024:.\Generated_Source\PSoC5/USB.c ****             }
2025:.\Generated_Source\PSoC5/USB.c ****         #endif /* (USB_EP_MANAGEMENT_DMA_AUTO) */
2026:.\Generated_Source\PSoC5/USB.c ****     #endif /* (USB_EP_MANAGEMENT_MANUAL) */
2027:.\Generated_Source\PSoC5/USB.c ****     }
2028:.\Generated_Source\PSoC5/USB.c **** }
2029:.\Generated_Source\PSoC5/USB.c **** 
2030:.\Generated_Source\PSoC5/USB.c **** 
2031:.\Generated_Source\PSoC5/USB.c **** /*******************************************************************************
2032:.\Generated_Source\PSoC5/USB.c **** * Function Name: USB_ReadOutEP16
2033:.\Generated_Source\PSoC5/USB.c **** ****************************************************************************//**
2034:.\Generated_Source\PSoC5/USB.c **** *
2035:.\Generated_Source\PSoC5/USB.c **** *   This function performs different functionality depending on the Component’s
2036:.\Generated_Source\PSoC5/USB.c **** *   configured Endpoint Buffer Management. This parameter is defined in the
2037:.\Generated_Source\PSoC5/USB.c **** *   Descriptor Root in Component Configure window.
2038:.\Generated_Source\PSoC5/USB.c **** *
2039:.\Generated_Source\PSoC5/USB.c **** *   *Manual (Static/Dynamic Allocation):*
2040:.\Generated_Source\PSoC5/USB.c **** *   This function moves the specified number of bytes from endpoint buffer to
2041:.\Generated_Source\PSoC5/USB.c **** *   system RAM. The number of bytes actually transferred from endpoint buffer to
2042:.\Generated_Source\PSoC5/USB.c **** *   system RAM is the lesser of the actual number of bytes sent by the host or
2043:.\Generated_Source\PSoC5/USB.c **** *   the number of bytes requested by the length parameter.
2044:.\Generated_Source\PSoC5/USB.c **** *
2045:.\Generated_Source\PSoC5/USB.c **** *   *DMA with Manual Buffer Management:*
2046:.\Generated_Source\PSoC5/USB.c **** *   Configure DMA to transfer data from endpoint buffer to system RAM. Generate
2047:.\Generated_Source\PSoC5/USB.c **** *   a DMA request. The firmware must wait until the DMA completes the data
2048:.\Generated_Source\PSoC5/USB.c **** *   transfer after calling the USB_ReadOutEP() API. For example,
2049:.\Generated_Source\PSoC5/USB.c **** *   by checking EPstate:
2050:.\Generated_Source\PSoC5/USB.c **** *
2051:.\Generated_Source\PSoC5/USB.c **** *   \snippet /USBFS_sut_02.cydsn/main.c checking EPstatey
2052:.\Generated_Source\PSoC5/USB.c **** *
2053:.\Generated_Source\PSoC5/USB.c **** *   The USBFS_EnableOutEP() has to be called to allow host to write data into
2054:.\Generated_Source\PSoC5/USB.c **** *   the endpoint buffer after DMA has completed transfer data from OUT endpoint
2055:.\Generated_Source\PSoC5/USB.c **** *   buffer to SRAM.
2056:.\Generated_Source\PSoC5/USB.c **** *
2057:.\Generated_Source\PSoC5/USB.c **** *   *DMA with Automatic Buffer Management:*
2058:.\Generated_Source\PSoC5/USB.c **** *   Configure DMA. This is required only once and automatically generates DMA
2059:.\Generated_Source\PSoC5/USB.c **** *   requests as data arrives
2060:.\Generated_Source\PSoC5/USB.c **** *
2061:.\Generated_Source\PSoC5/USB.c **** *  \param epNumber: Contains the data endpoint number.
ARM GAS  C:\Users\cruiser\AppData\Local\Temp\cc8SekaC.s 			page 52


2062:.\Generated_Source\PSoC5/USB.c **** *         Valid values are between 1 and 8.
2063:.\Generated_Source\PSoC5/USB.c **** *  \param pData: A pointer to a data array into which the data for the endpoint
2064:.\Generated_Source\PSoC5/USB.c **** *         space is copied. It shall be ensured that this pointer address is
2065:.\Generated_Source\PSoC5/USB.c **** *         even to ensure the 16-bit transfer is aligned to even address. Else,
2066:.\Generated_Source\PSoC5/USB.c **** *         a hard fault condition can occur.
2067:.\Generated_Source\PSoC5/USB.c **** *  \param length: The number of bytes to transfer from the USB Out endpoint and
2068:.\Generated_Source\PSoC5/USB.c **** *         loads it into data array. Valid values are between 0 and 1023. The
2069:.\Generated_Source\PSoC5/USB.c **** *         function moves fewer than the requested number of bytes if the host
2070:.\Generated_Source\PSoC5/USB.c **** *         sends fewer bytes than requested.
2071:.\Generated_Source\PSoC5/USB.c **** *
2072:.\Generated_Source\PSoC5/USB.c **** * \return
2073:.\Generated_Source\PSoC5/USB.c **** *  Number of bytes received, 0 for an invalid endpoint.
2074:.\Generated_Source\PSoC5/USB.c **** *
2075:.\Generated_Source\PSoC5/USB.c **** * \reentrant
2076:.\Generated_Source\PSoC5/USB.c **** *  No.
2077:.\Generated_Source\PSoC5/USB.c **** *
2078:.\Generated_Source\PSoC5/USB.c **** *******************************************************************************/
2079:.\Generated_Source\PSoC5/USB.c **** uint16 USB_ReadOutEP16(uint8 epNumber, uint8 pData[], uint16 length)
2080:.\Generated_Source\PSoC5/USB.c **** {
2081:.\Generated_Source\PSoC5/USB.c ****     uint32 adjLength;
2082:.\Generated_Source\PSoC5/USB.c **** 
2083:.\Generated_Source\PSoC5/USB.c ****     /* Check array alignment on half-word boundary */
2084:.\Generated_Source\PSoC5/USB.c ****     CYASSERT(0u == (((uint32) pData) & 0x01u));
2085:.\Generated_Source\PSoC5/USB.c **** 
2086:.\Generated_Source\PSoC5/USB.c ****     if ((pData != NULL) && (epNumber > USB_EP0) && (epNumber < USB_MAX_EP))
2087:.\Generated_Source\PSoC5/USB.c ****     {
2088:.\Generated_Source\PSoC5/USB.c ****     #if (!USB_EP_MANAGEMENT_DMA_AUTO)
2089:.\Generated_Source\PSoC5/USB.c ****         /* Adjust requested length to available data. */
2090:.\Generated_Source\PSoC5/USB.c ****         length = (length > USB_GetEPCount(epNumber)) ? USB_GetEPCount(epNumber) : length;
2091:.\Generated_Source\PSoC5/USB.c ****     #endif /* (!USB_EP_MANAGEMENT_DMA_AUTO) */
2092:.\Generated_Source\PSoC5/USB.c **** 
2093:.\Generated_Source\PSoC5/USB.c ****     /* Adjust requested length: 2 bytes are handled at one data register access. */
2094:.\Generated_Source\PSoC5/USB.c ****     adjLength =  length + ((uint32)length & 1u);
2095:.\Generated_Source\PSoC5/USB.c **** 
2096:.\Generated_Source\PSoC5/USB.c ****     #if (USB_EP_MANAGEMENT_MANUAL)
2097:.\Generated_Source\PSoC5/USB.c ****         {
2098:.\Generated_Source\PSoC5/USB.c ****             /* Convert uint8 array to uint16. */
2099:.\Generated_Source\PSoC5/USB.c ****             uint16 *dataBuf = (uint16 *) pData;
2100:.\Generated_Source\PSoC5/USB.c **** 
2101:.\Generated_Source\PSoC5/USB.c ****             /* Copy data using 16-bits arbiter data register. */
2102:.\Generated_Source\PSoC5/USB.c ****             uint16 i;
2103:.\Generated_Source\PSoC5/USB.c ****             for (i = 0u; i < (adjLength >> 1u); ++i)
2104:.\Generated_Source\PSoC5/USB.c ****             {
2105:.\Generated_Source\PSoC5/USB.c ****                 dataBuf[i] = (uint16) USB_ARB_EP16_BASE.arbEp[epNumber].rwDr16;
2106:.\Generated_Source\PSoC5/USB.c ****             }
2107:.\Generated_Source\PSoC5/USB.c ****         }
2108:.\Generated_Source\PSoC5/USB.c **** 
2109:.\Generated_Source\PSoC5/USB.c ****         /* Arm OUT endpoint after data has been read from endpoint buffer. */
2110:.\Generated_Source\PSoC5/USB.c ****         USB_EnableOutEP(epNumber);
2111:.\Generated_Source\PSoC5/USB.c ****     #else
2112:.\Generated_Source\PSoC5/USB.c **** 
2113:.\Generated_Source\PSoC5/USB.c ****         #if (USB_EP_MANAGEMENT_DMA_MANUAL)
2114:.\Generated_Source\PSoC5/USB.c ****         {
2115:.\Generated_Source\PSoC5/USB.c ****             uint32 channelNum = (uint32) USB_DmaChan[epNumber];
2116:.\Generated_Source\PSoC5/USB.c **** 
2117:.\Generated_Source\PSoC5/USB.c ****             /* Disable DMA channel: start configuration. */
2118:.\Generated_Source\PSoC5/USB.c ****             USB_CyDmaChDisable(channelNum);
ARM GAS  C:\Users\cruiser\AppData\Local\Temp\cc8SekaC.s 			page 53


2119:.\Generated_Source\PSoC5/USB.c **** 
2120:.\Generated_Source\PSoC5/USB.c ****             /* Configure source and destination. */
2121:.\Generated_Source\PSoC5/USB.c ****             USB_CyDmaSetSrcAddress(channelNum, USB_DMA_DESCR0, (void*) &USB_ARB_EP16_BASE.arbEp[epN
2122:.\Generated_Source\PSoC5/USB.c ****             USB_CyDmaSetDstAddress(channelNum, USB_DMA_DESCR0, (void*) pData);
2123:.\Generated_Source\PSoC5/USB.c **** 
2124:.\Generated_Source\PSoC5/USB.c ****             /* Configure DMA descriptor. */
2125:.\Generated_Source\PSoC5/USB.c ****             USB_CyDmaSetConfiguration(channelNum, USB_DMA_DESCR0, USB_DMA_COMMON_CFG | (uint16)((ad
2126:.\Generated_Source\PSoC5/USB.c ****                                                     CYDMA_HALFWORD | CYDMA_WORD_ELEMENT | CYDMA_INC
2127:.\Generated_Source\PSoC5/USB.c **** 
2128:.\Generated_Source\PSoC5/USB.c ****             /* Validate descriptor to execute on following DMA request. */
2129:.\Generated_Source\PSoC5/USB.c ****             USB_CyDmaValidateDescriptor(channelNum, USB_DMA_DESCR0);
2130:.\Generated_Source\PSoC5/USB.c **** 
2131:.\Generated_Source\PSoC5/USB.c ****             /* Enable DMA channel: configuration complete. */
2132:.\Generated_Source\PSoC5/USB.c ****             USB_CyDmaChEnable(channelNum);
2133:.\Generated_Source\PSoC5/USB.c **** 
2134:.\Generated_Source\PSoC5/USB.c ****             /* Generate DMA request. */
2135:.\Generated_Source\PSoC5/USB.c ****             USB_ARB_EP_BASE.arbEp[epNumber].epCfg |=  (uint32)  USB_ARB_EPX_CFG_DMA_REQ;
2136:.\Generated_Source\PSoC5/USB.c ****             USB_ARB_EP_BASE.arbEp[epNumber].epCfg &=  (uint32) ~USB_ARB_EPX_CFG_DMA_REQ;
2137:.\Generated_Source\PSoC5/USB.c **** 
2138:.\Generated_Source\PSoC5/USB.c ****             /* OUT endpoint has to be armed again by user when DMA transfers have been completed.
2139:.\Generated_Source\PSoC5/USB.c ****             * NO_EVENT_PENDING: notifies that data has been copied from endpoint buffer.
2140:.\Generated_Source\PSoC5/USB.c ****             */
2141:.\Generated_Source\PSoC5/USB.c ****         }
2142:.\Generated_Source\PSoC5/USB.c ****         #endif /* (USB_EP_MANAGEMENT_DMA_MANUAL) */
2143:.\Generated_Source\PSoC5/USB.c **** 
2144:.\Generated_Source\PSoC5/USB.c ****         #if (USB_EP_MANAGEMENT_DMA_AUTO)
2145:.\Generated_Source\PSoC5/USB.c ****         {
2146:.\Generated_Source\PSoC5/USB.c ****             uint32 lengthDescr0, lengthDescr1;
2147:.\Generated_Source\PSoC5/USB.c ****             uint32 channelNum = (uint32) USB_DmaChan[epNumber];
2148:.\Generated_Source\PSoC5/USB.c **** 
2149:.\Generated_Source\PSoC5/USB.c ****             /* Get number of full bursts. */
2150:.\Generated_Source\PSoC5/USB.c ****             USB_DmaEpBurstCnt[epNumber] = (uint8) (adjLength / USB_DMA_BYTES_PER_BURST);
2151:.\Generated_Source\PSoC5/USB.c **** 
2152:.\Generated_Source\PSoC5/USB.c ****             /* Get number of elements in last burst. */
2153:.\Generated_Source\PSoC5/USB.c ****             USB_DmaEpLastBurstEl[epNumber] = (uint8) (adjLength % USB_DMA_BYTES_PER_BURST);
2154:.\Generated_Source\PSoC5/USB.c **** 
2155:.\Generated_Source\PSoC5/USB.c ****             /* Get total number of bursts. */
2156:.\Generated_Source\PSoC5/USB.c ****             USB_DmaEpBurstCnt[epNumber] += (0u != USB_DmaEpLastBurstEl[epNumber]) ? 1u : 0u;
2157:.\Generated_Source\PSoC5/USB.c **** 
2158:.\Generated_Source\PSoC5/USB.c ****             /* Adjust number of data elements transferred in last burst. */
2159:.\Generated_Source\PSoC5/USB.c ****             USB_DmaEpLastBurstEl[epNumber] = (0u != USB_DmaEpLastBurstEl[epNumber]) ?
2160:.\Generated_Source\PSoC5/USB.c ****                                                                   ((USB_DmaEpLastBurstEl[epNumber] 
2161:.\Generated_Source\PSoC5/USB.c ****                                                                    (USB_DMA_HALFWORDS_PER_BURST - 1
2162:.\Generated_Source\PSoC5/USB.c **** 
2163:.\Generated_Source\PSoC5/USB.c ****             /* Get number of data elements to transfer for descriptor 0 and 1. */
2164:.\Generated_Source\PSoC5/USB.c ****             lengthDescr0 = (1u == USB_DmaEpBurstCnt[epNumber]) ? USB_DmaEpLastBurstEl[epNumber] : (
2165:.\Generated_Source\PSoC5/USB.c ****             lengthDescr1 = (2u == USB_DmaEpBurstCnt[epNumber]) ? USB_DmaEpLastBurstEl[epNumber] : (
2166:.\Generated_Source\PSoC5/USB.c **** 
2167:.\Generated_Source\PSoC5/USB.c ****             /* Mark last descriptor to be executed. */
2168:.\Generated_Source\PSoC5/USB.c ****             USB_DmaEpLastBurstEl[epNumber] |= (0u != (USB_DmaEpBurstCnt[epNumber] & 0x1u)) ?
2169:.\Generated_Source\PSoC5/USB.c ****                                                                     USB_DMA_DESCR0_MASK : USB_DMA_D
2170:.\Generated_Source\PSoC5/USB.c **** 
2171:.\Generated_Source\PSoC5/USB.c ****             /* Mark if revert number of data elements in descriptor after transfer completion. */
2172:.\Generated_Source\PSoC5/USB.c ****             USB_DmaEpLastBurstEl[epNumber] |= (USB_DmaEpBurstCnt[epNumber] > 2u) ? USB_DMA_DESCR_RE
2173:.\Generated_Source\PSoC5/USB.c **** 
2174:.\Generated_Source\PSoC5/USB.c ****             /* Mark that 16-bits access to data register is performed. */
2175:.\Generated_Source\PSoC5/USB.c ****             USB_DmaEpLastBurstEl[epNumber] |= USB_DMA_DESCR_16BITS;
ARM GAS  C:\Users\cruiser\AppData\Local\Temp\cc8SekaC.s 			page 54


2176:.\Generated_Source\PSoC5/USB.c **** 
2177:.\Generated_Source\PSoC5/USB.c ****             /* Adjust burst counter taking to account: 2 valid descriptors and interrupt trigger af
2178:.\Generated_Source\PSoC5/USB.c ****             USB_DmaEpBurstCnt[epNumber] = USB_DMA_GET_BURST_CNT(USB_DmaEpBurstCnt[epNumber]);
2179:.\Generated_Source\PSoC5/USB.c **** 
2180:.\Generated_Source\PSoC5/USB.c ****             /* Store address of buffer and burst counter for endpoint. */
2181:.\Generated_Source\PSoC5/USB.c ****             USB_DmaEpBufferAddrBackup[epNumber] = (uint32) pData;
2182:.\Generated_Source\PSoC5/USB.c ****             USB_DmaEpBurstCntBackup[epNumber]   = USB_DmaEpBurstCnt[epNumber];
2183:.\Generated_Source\PSoC5/USB.c **** 
2184:.\Generated_Source\PSoC5/USB.c ****             /* Disable DMA channel: start configuration. */
2185:.\Generated_Source\PSoC5/USB.c ****             USB_CyDmaChDisable(channelNum);
2186:.\Generated_Source\PSoC5/USB.c **** 
2187:.\Generated_Source\PSoC5/USB.c ****             /* Set destination address. */
2188:.\Generated_Source\PSoC5/USB.c ****             USB_CyDmaSetSrcAddress(channelNum, USB_DMA_DESCR0, (void*) &USB_ARB_EP16_BASE.arbEp[epN
2189:.\Generated_Source\PSoC5/USB.c ****             USB_CyDmaSetSrcAddress(channelNum, USB_DMA_DESCR1, (void*) &USB_ARB_EP16_BASE.arbEp[epN
2190:.\Generated_Source\PSoC5/USB.c **** 
2191:.\Generated_Source\PSoC5/USB.c ****             USB_CyDmaSetDstAddress(channelNum, USB_DMA_DESCR0, (void*) ((uint32) pData));
2192:.\Generated_Source\PSoC5/USB.c ****             USB_CyDmaSetDstAddress(channelNum, USB_DMA_DESCR1, (void*) ((uint32) pData + USB_DMA_BY
2193:.\Generated_Source\PSoC5/USB.c **** 
2194:.\Generated_Source\PSoC5/USB.c ****             /* Configure DMA descriptor 0. */
2195:.\Generated_Source\PSoC5/USB.c ****             USB_CyDmaSetConfiguration(channelNum, USB_DMA_DESCR0, USB_DMA_COMMON_CFG  | lengthDescr
2196:.\Generated_Source\PSoC5/USB.c ****                                                     CYDMA_HALFWORD | CYDMA_WORD_ELEMENT | CYDMA_INC
2197:.\Generated_Source\PSoC5/USB.c **** 
2198:.\Generated_Source\PSoC5/USB.c ****             /* Configure DMA descriptor 1. */
2199:.\Generated_Source\PSoC5/USB.c ****             USB_CyDmaSetConfiguration(channelNum, USB_DMA_DESCR1, USB_DMA_COMMON_CFG  | lengthDescr
2200:.\Generated_Source\PSoC5/USB.c ****                                                     CYDMA_HALFWORD | CYDMA_WORD_ELEMENT | CYDMA_INC
2201:.\Generated_Source\PSoC5/USB.c **** 
2202:.\Generated_Source\PSoC5/USB.c ****             /* Enable interrupt from DMA channel. */
2203:.\Generated_Source\PSoC5/USB.c ****             USB_CyDmaSetInterruptMask(channelNum);
2204:.\Generated_Source\PSoC5/USB.c **** 
2205:.\Generated_Source\PSoC5/USB.c ****             /* Validate DMA descriptor 0 and 1. */
2206:.\Generated_Source\PSoC5/USB.c ****             USB_CyDmaValidateDescriptor(channelNum, USB_DMA_DESCR0);
2207:.\Generated_Source\PSoC5/USB.c ****             USB_CyDmaValidateDescriptor(channelNum, USB_DMA_DESCR1);
2208:.\Generated_Source\PSoC5/USB.c **** 
2209:.\Generated_Source\PSoC5/USB.c ****             /* Enable DMA channel: configuration complete. */
2210:.\Generated_Source\PSoC5/USB.c ****             USB_CyDmaChEnable(channelNum);
2211:.\Generated_Source\PSoC5/USB.c **** 
2212:.\Generated_Source\PSoC5/USB.c ****             /* OUT endpoint has to be armed again by user when DMA transfers have been completed.
2213:.\Generated_Source\PSoC5/USB.c ****             * NO_EVENT_PENDING: notifies that data has been copied from endpoint buffer.
2214:.\Generated_Source\PSoC5/USB.c ****             */
2215:.\Generated_Source\PSoC5/USB.c ****         }
2216:.\Generated_Source\PSoC5/USB.c ****         #endif /* (USB_EP_MANAGEMENT_DMA_AUTO) */
2217:.\Generated_Source\PSoC5/USB.c ****     #endif /* (USB_EP_MANAGEMENT_MANUAL) */
2218:.\Generated_Source\PSoC5/USB.c ****     }
2219:.\Generated_Source\PSoC5/USB.c ****     else
2220:.\Generated_Source\PSoC5/USB.c ****     {
2221:.\Generated_Source\PSoC5/USB.c ****         length = 0u;
2222:.\Generated_Source\PSoC5/USB.c ****     }
2223:.\Generated_Source\PSoC5/USB.c **** 
2224:.\Generated_Source\PSoC5/USB.c ****     return (length);
2225:.\Generated_Source\PSoC5/USB.c **** }
2226:.\Generated_Source\PSoC5/USB.c **** #endif /* (USB_16BITS_EP_ACCESS_ENABLE) */
2227:.\Generated_Source\PSoC5/USB.c **** 
2228:.\Generated_Source\PSoC5/USB.c **** 
2229:.\Generated_Source\PSoC5/USB.c **** /*******************************************************************************
2230:.\Generated_Source\PSoC5/USB.c **** * Function Name: USB_EnableOutEP
2231:.\Generated_Source\PSoC5/USB.c **** ****************************************************************************//**
2232:.\Generated_Source\PSoC5/USB.c **** *
ARM GAS  C:\Users\cruiser\AppData\Local\Temp\cc8SekaC.s 			page 55


2233:.\Generated_Source\PSoC5/USB.c **** *  This function enables the specified endpoint for OUT transfers. Do not call
2234:.\Generated_Source\PSoC5/USB.c **** *  this function for IN endpoints.
2235:.\Generated_Source\PSoC5/USB.c **** *
2236:.\Generated_Source\PSoC5/USB.c **** *  \param epNumber: Contains the data endpoint number. Valid values are between
2237:.\Generated_Source\PSoC5/USB.c **** *  1 and 8.
2238:.\Generated_Source\PSoC5/USB.c **** *
2239:.\Generated_Source\PSoC5/USB.c **** * \globalvars
2240:.\Generated_Source\PSoC5/USB.c **** *
2241:.\Generated_Source\PSoC5/USB.c **** *  \ref USB_EP[epNumber].apiEpState - set to NO_EVENT_PENDING
2242:.\Generated_Source\PSoC5/USB.c **** *
2243:.\Generated_Source\PSoC5/USB.c **** * \reentrant
2244:.\Generated_Source\PSoC5/USB.c **** *  No.
2245:.\Generated_Source\PSoC5/USB.c **** *
2246:.\Generated_Source\PSoC5/USB.c **** *******************************************************************************/
2247:.\Generated_Source\PSoC5/USB.c **** void USB_EnableOutEP(uint8 epNumber) 
2248:.\Generated_Source\PSoC5/USB.c **** {
 837              		.loc 1 2248 0
 838              		.cfi_startproc
 839              		@ args = 0, pretend = 0, frame = 0
 840              		@ frame_needed = 0, uses_anonymous_args = 0
 841              		@ link register save eliminated.
 842              	.LVL53:
2249:.\Generated_Source\PSoC5/USB.c ****     if ((epNumber > USB_EP0) && (epNumber < USB_MAX_EP))
 843              		.loc 1 2249 0
 844 0000 431E     		subs	r3, r0, #1
 845 0002 DBB2     		uxtb	r3, r3
 846 0004 072B     		cmp	r3, #7
 847 0006 0BD8     		bhi	.L61
2250:.\Generated_Source\PSoC5/USB.c ****     {
2251:.\Generated_Source\PSoC5/USB.c ****         USB_EP[epNumber].apiEpState = USB_NO_EVENT_PENDING;
 848              		.loc 1 2251 0
 849 0008 4300     		lsls	r3, r0, #1
 850 000a 0344     		add	r3, r3, r0
 851 000c 9B00     		lsls	r3, r3, #2
 852 000e 054A     		ldr	r2, .L63
 853 0010 1344     		add	r3, r3, r2
 854 0012 0022     		movs	r2, #0
 855 0014 5A70     		strb	r2, [r3, #1]
2252:.\Generated_Source\PSoC5/USB.c **** 
2253:.\Generated_Source\PSoC5/USB.c ****         /* Enable OUT endpoint to be written by Host. */
2254:.\Generated_Source\PSoC5/USB.c ****         USB_SIE_EP_BASE.sieEp[epNumber].epCr0 = USB_EP[epNumber].epMode;
 856              		.loc 1 2254 0
 857 0016 5A79     		ldrb	r2, [r3, #5]	@ zero_extendqisi2
 858 0018 D2B2     		uxtb	r2, r2
 859 001a 0001     		lsls	r0, r0, #4
 860              	.LVL54:
 861 001c 024B     		ldr	r3, .L63+4
 862 001e 1A54     		strb	r2, [r3, r0]
 863              	.L61:
 864 0020 7047     		bx	lr
 865              	.L64:
 866 0022 00BF     		.align	2
 867              	.L63:
 868 0024 00000000 		.word	USB_EP
 869 0028 FE5F0040 		.word	1073766398
 870              		.cfi_endproc
 871              	.LFE13:
ARM GAS  C:\Users\cruiser\AppData\Local\Temp\cc8SekaC.s 			page 56


 872              		.size	USB_EnableOutEP, .-USB_EnableOutEP
 873              		.section	.text.USB_ReadOutEP,"ax",%progbits
 874              		.align	2
 875              		.global	USB_ReadOutEP
 876              		.thumb
 877              		.thumb_func
 878              		.type	USB_ReadOutEP, %function
 879              	USB_ReadOutEP:
 880              	.LFB12:
1637:.\Generated_Source\PSoC5/USB.c ****     if ((pData != NULL) && (epNumber > USB_EP0) && (epNumber < USB_MAX_EP))
 881              		.loc 1 1637 0
 882              		.cfi_startproc
 883              		@ args = 0, pretend = 0, frame = 0
 884              		@ frame_needed = 0, uses_anonymous_args = 0
 885              	.LVL55:
 886 0000 70B5     		push	{r4, r5, r6, lr}
 887              		.cfi_def_cfa_offset 16
 888              		.cfi_offset 4, -16
 889              		.cfi_offset 5, -12
 890              		.cfi_offset 6, -8
 891              		.cfi_offset 14, -4
1638:.\Generated_Source\PSoC5/USB.c ****     {
 892              		.loc 1 1638 0
 893 0002 D9B1     		cbz	r1, .L70
 894 0004 0546     		mov	r5, r0
 895 0006 1446     		mov	r4, r2
 896 0008 0E46     		mov	r6, r1
1638:.\Generated_Source\PSoC5/USB.c ****     {
 897              		.loc 1 1638 0 is_stmt 0 discriminator 1
 898 000a C8B1     		cbz	r0, .L71
1638:.\Generated_Source\PSoC5/USB.c ****     {
 899              		.loc 1 1638 0 discriminator 2
 900 000c 0828     		cmp	r0, #8
 901 000e 19D8     		bhi	.L72
1642:.\Generated_Source\PSoC5/USB.c ****     #endif /* (!USB_EP_MANAGEMENT_DMA_AUTO) */
 902              		.loc 1 1642 0 is_stmt 1
 903 0010 FFF7FEFF 		bl	USB_GetEPCount
 904              	.LVL56:
 905 0014 A042     		cmp	r0, r4
 906 0016 03D2     		bcs	.L67
1642:.\Generated_Source\PSoC5/USB.c ****     #endif /* (!USB_EP_MANAGEMENT_DMA_AUTO) */
 907              		.loc 1 1642 0 is_stmt 0 discriminator 1
 908 0018 2846     		mov	r0, r5
 909 001a FFF7FEFF 		bl	USB_GetEPCount
 910              	.LVL57:
 911 001e 0446     		mov	r4, r0
 912              	.L67:
 913              	.LVL58:
 914              	.LBB4:
1649:.\Generated_Source\PSoC5/USB.c ****             {
 915              		.loc 1 1649 0 is_stmt 1 discriminator 4
 916 0020 0023     		movs	r3, #0
 917 0022 05E0     		b	.L68
 918              	.LVL59:
 919              	.L69:
1651:.\Generated_Source\PSoC5/USB.c ****             }
 920              		.loc 1 1651 0 discriminator 3
ARM GAS  C:\Users\cruiser\AppData\Local\Temp\cc8SekaC.s 			page 57


 921 0024 2901     		lsls	r1, r5, #4
 922 0026 094A     		ldr	r2, .L74
 923 0028 525C     		ldrb	r2, [r2, r1]	@ zero_extendqisi2
 924 002a F254     		strb	r2, [r6, r3]
1649:.\Generated_Source\PSoC5/USB.c ****             {
 925              		.loc 1 1649 0 discriminator 3
 926 002c 0133     		adds	r3, r3, #1
 927              	.LVL60:
 928 002e 9BB2     		uxth	r3, r3
 929              	.LVL61:
 930              	.L68:
1649:.\Generated_Source\PSoC5/USB.c ****             {
 931              		.loc 1 1649 0 is_stmt 0 discriminator 1
 932 0030 A342     		cmp	r3, r4
 933 0032 F7D3     		bcc	.L69
 934              	.LBE4:
1656:.\Generated_Source\PSoC5/USB.c ****     #else
 935              		.loc 1 1656 0 is_stmt 1
 936 0034 2846     		mov	r0, r5
 937 0036 FFF7FEFF 		bl	USB_EnableOutEP
 938              	.LVL62:
 939 003a 04E0     		b	.L66
 940              	.LVL63:
 941              	.L70:
1798:.\Generated_Source\PSoC5/USB.c ****     }
 942              		.loc 1 1798 0
 943 003c 0024     		movs	r4, #0
 944 003e 02E0     		b	.L66
 945              	.L71:
 946 0040 0024     		movs	r4, #0
 947 0042 00E0     		b	.L66
 948              	.L72:
 949 0044 0024     		movs	r4, #0
 950              	.LVL64:
 951              	.L66:
1802:.\Generated_Source\PSoC5/USB.c **** 
 952              		.loc 1 1802 0
 953 0046 2046     		mov	r0, r4
 954 0048 70BD     		pop	{r4, r5, r6, pc}
 955              	.LVL65:
 956              	.L75:
 957 004a 00BF     		.align	2
 958              	.L74:
 959 004c 78600040 		.word	1073766520
 960              		.cfi_endproc
 961              	.LFE12:
 962              		.size	USB_ReadOutEP, .-USB_ReadOutEP
 963              		.section	.text.USB_DisableOutEP,"ax",%progbits
 964              		.align	2
 965              		.global	USB_DisableOutEP
 966              		.thumb
 967              		.thumb_func
 968              		.type	USB_DisableOutEP, %function
 969              	USB_DisableOutEP:
 970              	.LFB14:
2255:.\Generated_Source\PSoC5/USB.c ****         
2256:.\Generated_Source\PSoC5/USB.c ****     }
ARM GAS  C:\Users\cruiser\AppData\Local\Temp\cc8SekaC.s 			page 58


2257:.\Generated_Source\PSoC5/USB.c **** }
2258:.\Generated_Source\PSoC5/USB.c **** 
2259:.\Generated_Source\PSoC5/USB.c **** 
2260:.\Generated_Source\PSoC5/USB.c **** /*******************************************************************************
2261:.\Generated_Source\PSoC5/USB.c **** * Function Name: USB_DisableOutEP
2262:.\Generated_Source\PSoC5/USB.c **** ****************************************************************************//**
2263:.\Generated_Source\PSoC5/USB.c **** *
2264:.\Generated_Source\PSoC5/USB.c **** *  This function disables the specified USBFS OUT endpoint. Do not call this
2265:.\Generated_Source\PSoC5/USB.c **** *  function for IN endpoints.
2266:.\Generated_Source\PSoC5/USB.c **** *
2267:.\Generated_Source\PSoC5/USB.c **** *  \param epNumber: Contains the data endpoint number.
2268:.\Generated_Source\PSoC5/USB.c **** *            Valid values are between 1 and 8.
2269:.\Generated_Source\PSoC5/USB.c **** *
2270:.\Generated_Source\PSoC5/USB.c **** *******************************************************************************/
2271:.\Generated_Source\PSoC5/USB.c **** void USB_DisableOutEP(uint8 epNumber) 
2272:.\Generated_Source\PSoC5/USB.c **** {
 971              		.loc 1 2272 0
 972              		.cfi_startproc
 973              		@ args = 0, pretend = 0, frame = 0
 974              		@ frame_needed = 0, uses_anonymous_args = 0
 975              		@ link register save eliminated.
 976              	.LVL66:
2273:.\Generated_Source\PSoC5/USB.c ****     if ((epNumber > USB_EP0) && (epNumber < USB_MAX_EP))
 977              		.loc 1 2273 0
 978 0000 431E     		subs	r3, r0, #1
 979 0002 DBB2     		uxtb	r3, r3
 980 0004 072B     		cmp	r3, #7
 981 0006 03D8     		bhi	.L76
2274:.\Generated_Source\PSoC5/USB.c ****     {
2275:.\Generated_Source\PSoC5/USB.c ****         /* Set NAK response for OUT endpoint. */
2276:.\Generated_Source\PSoC5/USB.c ****         USB_SIE_EP_BASE.sieEp[epNumber].epCr0 = USB_MODE_NAK_OUT;
 982              		.loc 1 2276 0
 983 0008 0001     		lsls	r0, r0, #4
 984              	.LVL67:
 985 000a 024B     		ldr	r3, .L78
 986 000c 0822     		movs	r2, #8
 987 000e 1A54     		strb	r2, [r3, r0]
 988              	.L76:
 989 0010 7047     		bx	lr
 990              	.L79:
 991 0012 00BF     		.align	2
 992              	.L78:
 993 0014 FE5F0040 		.word	1073766398
 994              		.cfi_endproc
 995              	.LFE14:
 996              		.size	USB_DisableOutEP, .-USB_DisableOutEP
 997              		.section	.text.USB_Force,"ax",%progbits
 998              		.align	2
 999              		.global	USB_Force
 1000              		.thumb
 1001              		.thumb_func
 1002              		.type	USB_Force, %function
 1003              	USB_Force:
 1004              	.LFB15:
2277:.\Generated_Source\PSoC5/USB.c ****     }
2278:.\Generated_Source\PSoC5/USB.c **** }
2279:.\Generated_Source\PSoC5/USB.c **** 
ARM GAS  C:\Users\cruiser\AppData\Local\Temp\cc8SekaC.s 			page 59


2280:.\Generated_Source\PSoC5/USB.c **** 
2281:.\Generated_Source\PSoC5/USB.c **** /*******************************************************************************
2282:.\Generated_Source\PSoC5/USB.c **** * Function Name: USB_Force
2283:.\Generated_Source\PSoC5/USB.c **** ****************************************************************************//**
2284:.\Generated_Source\PSoC5/USB.c **** *
2285:.\Generated_Source\PSoC5/USB.c **** *  This function forces a USB J, K, or SE0 state on the D+/D– lines. It provides
2286:.\Generated_Source\PSoC5/USB.c **** *  the necessary mechanism for a USB device application to perform a USB Remote
2287:.\Generated_Source\PSoC5/USB.c **** *  Wakeup. For more information, see the USB 2.0 Specification for details on
2288:.\Generated_Source\PSoC5/USB.c **** *  Suspend and Resume.
2289:.\Generated_Source\PSoC5/USB.c **** *
2290:.\Generated_Source\PSoC5/USB.c **** *  \param state A byte indicating which of the four bus states to enable.
2291:.\Generated_Source\PSoC5/USB.c **** *        Symbolic names  and their associated values are listed here:
2292:.\Generated_Source\PSoC5/USB.c **** *    State                      |Description
2293:.\Generated_Source\PSoC5/USB.c **** *    ---------------------------|----------------------------------------------
2294:.\Generated_Source\PSoC5/USB.c **** *    USB_FORCE_J   | Force a J State onto the D+/D– lines
2295:.\Generated_Source\PSoC5/USB.c **** *    USB_FORCE_K   | Force a K State onto the D+/D– lines
2296:.\Generated_Source\PSoC5/USB.c **** *    USB_FORCE_SE0 | Force a Single Ended 0 onto the D+/D– lines
2297:.\Generated_Source\PSoC5/USB.c **** *    USB_FORCE_NONE| Return bus to SIE control
2298:.\Generated_Source\PSoC5/USB.c **** *
2299:.\Generated_Source\PSoC5/USB.c **** *
2300:.\Generated_Source\PSoC5/USB.c **** *******************************************************************************/
2301:.\Generated_Source\PSoC5/USB.c **** void USB_Force(uint8 bState) 
2302:.\Generated_Source\PSoC5/USB.c **** {
 1005              		.loc 1 2302 0
 1006              		.cfi_startproc
 1007              		@ args = 0, pretend = 0, frame = 0
 1008              		@ frame_needed = 0, uses_anonymous_args = 0
 1009              		@ link register save eliminated.
 1010              	.LVL68:
2303:.\Generated_Source\PSoC5/USB.c ****     /* This registers is used only for manual control of SIE (no masking is
2304:.\Generated_Source\PSoC5/USB.c ****     * needed before write into it).
2305:.\Generated_Source\PSoC5/USB.c ****     */
2306:.\Generated_Source\PSoC5/USB.c ****     USB_USBIO_CR0_REG = bState;
 1011              		.loc 1 2306 0
 1012 0000 014B     		ldr	r3, .L81
 1013 0002 1870     		strb	r0, [r3]
 1014 0004 7047     		bx	lr
 1015              	.L82:
 1016 0006 00BF     		.align	2
 1017              	.L81:
 1018 0008 10600040 		.word	1073766416
 1019              		.cfi_endproc
 1020              	.LFE15:
 1021              		.size	USB_Force, .-USB_Force
 1022              		.section	.text.USB_GetEPAckState,"ax",%progbits
 1023              		.align	2
 1024              		.global	USB_GetEPAckState
 1025              		.thumb
 1026              		.thumb_func
 1027              		.type	USB_GetEPAckState, %function
 1028              	USB_GetEPAckState:
 1029              	.LFB16:
2307:.\Generated_Source\PSoC5/USB.c **** }
2308:.\Generated_Source\PSoC5/USB.c **** 
2309:.\Generated_Source\PSoC5/USB.c **** 
2310:.\Generated_Source\PSoC5/USB.c **** /*******************************************************************************
2311:.\Generated_Source\PSoC5/USB.c **** * Function Name: USB_GetEPAckState
ARM GAS  C:\Users\cruiser\AppData\Local\Temp\cc8SekaC.s 			page 60


2312:.\Generated_Source\PSoC5/USB.c **** ****************************************************************************//**
2313:.\Generated_Source\PSoC5/USB.c **** *
2314:.\Generated_Source\PSoC5/USB.c **** *  This function determines whether an ACK transaction occurred on this endpoint
2315:.\Generated_Source\PSoC5/USB.c **** *  by reading the ACK bit in the control register of the endpoint. It does not
2316:.\Generated_Source\PSoC5/USB.c **** *  clear the ACK bit.
2317:.\Generated_Source\PSoC5/USB.c **** *
2318:.\Generated_Source\PSoC5/USB.c **** *  \param epNumber Contains the data endpoint number.
2319:.\Generated_Source\PSoC5/USB.c **** *            Valid values are between 1 and 8.
2320:.\Generated_Source\PSoC5/USB.c **** *
2321:.\Generated_Source\PSoC5/USB.c **** *  \return
2322:.\Generated_Source\PSoC5/USB.c **** *  If an ACKed transaction occurred, this function returns a non-zero value.
2323:.\Generated_Source\PSoC5/USB.c **** *  Otherwise, it returns zero.
2324:.\Generated_Source\PSoC5/USB.c **** *
2325:.\Generated_Source\PSoC5/USB.c **** *******************************************************************************/
2326:.\Generated_Source\PSoC5/USB.c **** uint8 USB_GetEPAckState(uint8 epNumber) 
2327:.\Generated_Source\PSoC5/USB.c **** {
 1030              		.loc 1 2327 0
 1031              		.cfi_startproc
 1032              		@ args = 0, pretend = 0, frame = 0
 1033              		@ frame_needed = 0, uses_anonymous_args = 0
 1034              		@ link register save eliminated.
 1035              	.LVL69:
2328:.\Generated_Source\PSoC5/USB.c ****     uint8 cr = 0u;
2329:.\Generated_Source\PSoC5/USB.c **** 
2330:.\Generated_Source\PSoC5/USB.c ****     if ((epNumber > USB_EP0) && (epNumber < USB_MAX_EP))
 1036              		.loc 1 2330 0
 1037 0000 431E     		subs	r3, r0, #1
 1038 0002 DBB2     		uxtb	r3, r3
 1039 0004 072B     		cmp	r3, #7
 1040 0006 06D8     		bhi	.L85
2331:.\Generated_Source\PSoC5/USB.c ****     {
2332:.\Generated_Source\PSoC5/USB.c ****         cr = USB_SIE_EP_BASE.sieEp[epNumber].epCr0 & USB_MODE_ACKD;
 1041              		.loc 1 2332 0
 1042 0008 0001     		lsls	r0, r0, #4
 1043              	.LVL70:
 1044 000a 044B     		ldr	r3, .L86
 1045 000c 185C     		ldrb	r0, [r3, r0]	@ zero_extendqisi2
 1046 000e 00F01000 		and	r0, r0, #16
 1047 0012 C0B2     		uxtb	r0, r0
 1048              	.LVL71:
 1049 0014 7047     		bx	lr
 1050              	.LVL72:
 1051              	.L85:
2328:.\Generated_Source\PSoC5/USB.c ****     uint8 cr = 0u;
 1052              		.loc 1 2328 0
 1053 0016 0020     		movs	r0, #0
 1054              	.LVL73:
2333:.\Generated_Source\PSoC5/USB.c ****     }
2334:.\Generated_Source\PSoC5/USB.c **** 
2335:.\Generated_Source\PSoC5/USB.c ****     return ((uint8) cr);
2336:.\Generated_Source\PSoC5/USB.c **** }
 1055              		.loc 1 2336 0
 1056 0018 7047     		bx	lr
 1057              	.L87:
 1058 001a 00BF     		.align	2
 1059              	.L86:
 1060 001c FE5F0040 		.word	1073766398
ARM GAS  C:\Users\cruiser\AppData\Local\Temp\cc8SekaC.s 			page 61


 1061              		.cfi_endproc
 1062              	.LFE16:
 1063              		.size	USB_GetEPAckState, .-USB_GetEPAckState
 1064              		.section	.text.USB_SetPowerStatus,"ax",%progbits
 1065              		.align	2
 1066              		.global	USB_SetPowerStatus
 1067              		.thumb
 1068              		.thumb_func
 1069              		.type	USB_SetPowerStatus, %function
 1070              	USB_SetPowerStatus:
 1071              	.LFB17:
2337:.\Generated_Source\PSoC5/USB.c **** 
2338:.\Generated_Source\PSoC5/USB.c **** 
2339:.\Generated_Source\PSoC5/USB.c **** /*******************************************************************************
2340:.\Generated_Source\PSoC5/USB.c **** * Function Name: USB_SetPowerStatus
2341:.\Generated_Source\PSoC5/USB.c **** ****************************************************************************//**
2342:.\Generated_Source\PSoC5/USB.c **** *
2343:.\Generated_Source\PSoC5/USB.c **** *  This function sets the current power status. The device replies to USB
2344:.\Generated_Source\PSoC5/USB.c **** *  GET_STATUS requests based on this value. This allows the device to properly
2345:.\Generated_Source\PSoC5/USB.c **** *  report its status for USB Chapter 9 compliance. Devices can change their
2346:.\Generated_Source\PSoC5/USB.c **** *  power source from self powered to bus powered at any time and report their
2347:.\Generated_Source\PSoC5/USB.c **** *  current power source as part of the device status. You should call this
2348:.\Generated_Source\PSoC5/USB.c **** *  function any time your device changes from self powered to bus powered or
2349:.\Generated_Source\PSoC5/USB.c **** *  vice versa, and set the status appropriately.
2350:.\Generated_Source\PSoC5/USB.c **** *
2351:.\Generated_Source\PSoC5/USB.c **** *  \param powerStatus: Contains the desired power status, one for self powered
2352:.\Generated_Source\PSoC5/USB.c **** *        or zero for bus powered. Symbolic names and their associated values are
2353:.\Generated_Source\PSoC5/USB.c **** *        given here:
2354:.\Generated_Source\PSoC5/USB.c **** *  Power Status                                |Description
2355:.\Generated_Source\PSoC5/USB.c **** *  --------------------------------------------|---------------------------
2356:.\Generated_Source\PSoC5/USB.c **** *  USB_DEVICE_STATUS_BUS_POWERED  | Set the device to bus powered
2357:.\Generated_Source\PSoC5/USB.c **** *  USB_DEVICE_STATUS_SELF_POWERED | Set the device to self powered
2358:.\Generated_Source\PSoC5/USB.c **** *
2359:.\Generated_Source\PSoC5/USB.c **** * \globalvars
2360:.\Generated_Source\PSoC5/USB.c **** *
2361:.\Generated_Source\PSoC5/USB.c **** *  \ref USB_deviceStatus - set power status
2362:.\Generated_Source\PSoC5/USB.c **** *
2363:.\Generated_Source\PSoC5/USB.c **** * \reentrant
2364:.\Generated_Source\PSoC5/USB.c **** *  No.
2365:.\Generated_Source\PSoC5/USB.c **** *
2366:.\Generated_Source\PSoC5/USB.c **** *******************************************************************************/
2367:.\Generated_Source\PSoC5/USB.c **** void USB_SetPowerStatus(uint8 powerStatus) 
2368:.\Generated_Source\PSoC5/USB.c **** {
 1072              		.loc 1 2368 0
 1073              		.cfi_startproc
 1074              		@ args = 0, pretend = 0, frame = 0
 1075              		@ frame_needed = 0, uses_anonymous_args = 0
 1076              		@ link register save eliminated.
 1077              	.LVL74:
2369:.\Generated_Source\PSoC5/USB.c ****     if (powerStatus != USB_DEVICE_STATUS_BUS_POWERED)
 1078              		.loc 1 2369 0
 1079 0000 28B1     		cbz	r0, .L89
2370:.\Generated_Source\PSoC5/USB.c ****     {
2371:.\Generated_Source\PSoC5/USB.c ****         USB_deviceStatus |= (uint8)  USB_DEVICE_STATUS_SELF_POWERED;
 1080              		.loc 1 2371 0
 1081 0002 064A     		ldr	r2, .L91
 1082 0004 1378     		ldrb	r3, [r2]	@ zero_extendqisi2
ARM GAS  C:\Users\cruiser\AppData\Local\Temp\cc8SekaC.s 			page 62


 1083 0006 43F00103 		orr	r3, r3, #1
 1084 000a 1370     		strb	r3, [r2]
 1085 000c 7047     		bx	lr
 1086              	.L89:
2372:.\Generated_Source\PSoC5/USB.c ****     }
2373:.\Generated_Source\PSoC5/USB.c ****     else
2374:.\Generated_Source\PSoC5/USB.c ****     {
2375:.\Generated_Source\PSoC5/USB.c ****         USB_deviceStatus &= (uint8) ~USB_DEVICE_STATUS_SELF_POWERED;
 1087              		.loc 1 2375 0
 1088 000e 034A     		ldr	r2, .L91
 1089 0010 1378     		ldrb	r3, [r2]	@ zero_extendqisi2
 1090 0012 03F0FE03 		and	r3, r3, #254
 1091 0016 1370     		strb	r3, [r2]
 1092 0018 7047     		bx	lr
 1093              	.L92:
 1094 001a 00BF     		.align	2
 1095              	.L91:
 1096 001c 00000000 		.word	USB_deviceStatus
 1097              		.cfi_endproc
 1098              	.LFE17:
 1099              		.size	USB_SetPowerStatus, .-USB_SetPowerStatus
 1100              		.section	.text.USB_RWUEnabled,"ax",%progbits
 1101              		.align	2
 1102              		.global	USB_RWUEnabled
 1103              		.thumb
 1104              		.thumb_func
 1105              		.type	USB_RWUEnabled, %function
 1106              	USB_RWUEnabled:
 1107              	.LFB18:
2376:.\Generated_Source\PSoC5/USB.c ****     }
2377:.\Generated_Source\PSoC5/USB.c **** }
2378:.\Generated_Source\PSoC5/USB.c **** 
2379:.\Generated_Source\PSoC5/USB.c **** 
2380:.\Generated_Source\PSoC5/USB.c **** #if (USB_VBUS_MONITORING_ENABLE)
2381:.\Generated_Source\PSoC5/USB.c ****     /***************************************************************************
2382:.\Generated_Source\PSoC5/USB.c ****     * Function Name: USB_VBusPresent
2383:.\Generated_Source\PSoC5/USB.c ****     ************************************************************************//**
2384:.\Generated_Source\PSoC5/USB.c ****     *
2385:.\Generated_Source\PSoC5/USB.c ****     *  Determines VBUS presence for self-powered devices. This function is
2386:.\Generated_Source\PSoC5/USB.c ****     *  available when the VBUS Monitoring option is enabled in the Advanced tab.
2387:.\Generated_Source\PSoC5/USB.c ****     *
2388:.\Generated_Source\PSoC5/USB.c ****     * \return
2389:.\Generated_Source\PSoC5/USB.c ****     *  The return value can be the following:
2390:.\Generated_Source\PSoC5/USB.c ****     *  Return Value | Description
2391:.\Generated_Source\PSoC5/USB.c ****     *  -------------|-----------------
2392:.\Generated_Source\PSoC5/USB.c ****     *  1            | VBUS is present
2393:.\Generated_Source\PSoC5/USB.c ****     *  0            | VBUS is absent
2394:.\Generated_Source\PSoC5/USB.c ****     *
2395:.\Generated_Source\PSoC5/USB.c ****     *
2396:.\Generated_Source\PSoC5/USB.c ****     ***************************************************************************/
2397:.\Generated_Source\PSoC5/USB.c ****     uint8 USB_VBusPresent(void) 
2398:.\Generated_Source\PSoC5/USB.c ****     {
2399:.\Generated_Source\PSoC5/USB.c ****         return ((0u != (USB_VBUS_STATUS_REG & USB_VBUS_VALID)) ? (uint8) 1u : (uint8) 0u);
2400:.\Generated_Source\PSoC5/USB.c ****     }
2401:.\Generated_Source\PSoC5/USB.c **** #endif /* (USB_VBUS_MONITORING_ENABLE) */
2402:.\Generated_Source\PSoC5/USB.c **** 
2403:.\Generated_Source\PSoC5/USB.c **** 
ARM GAS  C:\Users\cruiser\AppData\Local\Temp\cc8SekaC.s 			page 63


2404:.\Generated_Source\PSoC5/USB.c **** /*******************************************************************************
2405:.\Generated_Source\PSoC5/USB.c **** * Function Name: USB_RWUEnabled
2406:.\Generated_Source\PSoC5/USB.c **** ****************************************************************************//**
2407:.\Generated_Source\PSoC5/USB.c **** *
2408:.\Generated_Source\PSoC5/USB.c **** *  This function returns the current remote wakeup status.
2409:.\Generated_Source\PSoC5/USB.c **** *  If the device supports remote wakeup, the application should use this
2410:.\Generated_Source\PSoC5/USB.c **** *  function to determine if remote wakeup was enabled by the host. When the
2411:.\Generated_Source\PSoC5/USB.c **** *  device is suspended and it determines the conditions to initiate a remote
2412:.\Generated_Source\PSoC5/USB.c **** *  wakeup are met, the application should use the USBFS_Force() function to
2413:.\Generated_Source\PSoC5/USB.c **** *  force the appropriate J and K states onto the USB bus, signaling a remote
2414:.\Generated_Source\PSoC5/USB.c **** *  wakeup.
2415:.\Generated_Source\PSoC5/USB.c **** *
2416:.\Generated_Source\PSoC5/USB.c **** *
2417:.\Generated_Source\PSoC5/USB.c **** * \return
2418:.\Generated_Source\PSoC5/USB.c **** *  Returns non-zero value if remote wakeup is enabled and zero otherwise.
2419:.\Generated_Source\PSoC5/USB.c **** *
2420:.\Generated_Source\PSoC5/USB.c **** * \globalvars
2421:.\Generated_Source\PSoC5/USB.c **** *  USB_deviceStatus - checked to determine remote status
2422:.\Generated_Source\PSoC5/USB.c **** *
2423:.\Generated_Source\PSoC5/USB.c **** *******************************************************************************/
2424:.\Generated_Source\PSoC5/USB.c **** uint8 USB_RWUEnabled(void) 
2425:.\Generated_Source\PSoC5/USB.c **** {
 1108              		.loc 1 2425 0
 1109              		.cfi_startproc
 1110              		@ args = 0, pretend = 0, frame = 0
 1111              		@ frame_needed = 0, uses_anonymous_args = 0
 1112              		@ link register save eliminated.
 1113              	.LVL75:
2426:.\Generated_Source\PSoC5/USB.c ****     uint8 result = USB_FALSE;
2427:.\Generated_Source\PSoC5/USB.c **** 
2428:.\Generated_Source\PSoC5/USB.c ****     if (0u != (USB_deviceStatus & USB_DEVICE_STATUS_REMOTE_WAKEUP))
 1114              		.loc 1 2428 0
 1115 0000 044B     		ldr	r3, .L96
 1116 0002 1B78     		ldrb	r3, [r3]	@ zero_extendqisi2
 1117 0004 13F0020F 		tst	r3, #2
 1118 0008 01D1     		bne	.L95
2426:.\Generated_Source\PSoC5/USB.c ****     uint8 result = USB_FALSE;
 1119              		.loc 1 2426 0
 1120 000a 0020     		movs	r0, #0
 1121 000c 7047     		bx	lr
 1122              	.L95:
2429:.\Generated_Source\PSoC5/USB.c ****     {
2430:.\Generated_Source\PSoC5/USB.c ****         result = USB_TRUE;
 1123              		.loc 1 2430 0
 1124 000e 0120     		movs	r0, #1
 1125              	.LVL76:
2431:.\Generated_Source\PSoC5/USB.c ****     }
2432:.\Generated_Source\PSoC5/USB.c **** 
2433:.\Generated_Source\PSoC5/USB.c ****     return (result);
2434:.\Generated_Source\PSoC5/USB.c **** }
 1126              		.loc 1 2434 0
 1127 0010 7047     		bx	lr
 1128              	.L97:
 1129 0012 00BF     		.align	2
 1130              	.L96:
 1131 0014 00000000 		.word	USB_deviceStatus
 1132              		.cfi_endproc
ARM GAS  C:\Users\cruiser\AppData\Local\Temp\cc8SekaC.s 			page 64


 1133              	.LFE18:
 1134              		.size	USB_RWUEnabled, .-USB_RWUEnabled
 1135              		.section	.text.USB_GetDeviceAddress,"ax",%progbits
 1136              		.align	2
 1137              		.global	USB_GetDeviceAddress
 1138              		.thumb
 1139              		.thumb_func
 1140              		.type	USB_GetDeviceAddress, %function
 1141              	USB_GetDeviceAddress:
 1142              	.LFB19:
2435:.\Generated_Source\PSoC5/USB.c **** 
2436:.\Generated_Source\PSoC5/USB.c **** 
2437:.\Generated_Source\PSoC5/USB.c **** /*******************************************************************************
2438:.\Generated_Source\PSoC5/USB.c **** * Function Name: USB_GetDeviceAddress
2439:.\Generated_Source\PSoC5/USB.c **** ****************************************************************************//**
2440:.\Generated_Source\PSoC5/USB.c **** *
2441:.\Generated_Source\PSoC5/USB.c **** *  This function returns the currently assigned address for the USB device.
2442:.\Generated_Source\PSoC5/USB.c **** *
2443:.\Generated_Source\PSoC5/USB.c **** * \return
2444:.\Generated_Source\PSoC5/USB.c **** *  Returns the currently assigned address.
2445:.\Generated_Source\PSoC5/USB.c **** *  Returns 0 if the device has not yet been assigned an address.
2446:.\Generated_Source\PSoC5/USB.c **** *
2447:.\Generated_Source\PSoC5/USB.c **** *******************************************************************************/
2448:.\Generated_Source\PSoC5/USB.c **** uint8 USB_GetDeviceAddress(void) 
2449:.\Generated_Source\PSoC5/USB.c **** {
 1143              		.loc 1 2449 0
 1144              		.cfi_startproc
 1145              		@ args = 0, pretend = 0, frame = 0
 1146              		@ frame_needed = 0, uses_anonymous_args = 0
 1147              		@ link register save eliminated.
2450:.\Generated_Source\PSoC5/USB.c ****     return (uint8)(USB_CR0_REG & USB_CR0_DEVICE_ADDRESS_MASK);
 1148              		.loc 1 2450 0
 1149 0000 024B     		ldr	r3, .L99
 1150 0002 1878     		ldrb	r0, [r3]	@ zero_extendqisi2
2451:.\Generated_Source\PSoC5/USB.c **** }
 1151              		.loc 1 2451 0
 1152 0004 00F07F00 		and	r0, r0, #127
 1153 0008 7047     		bx	lr
 1154              	.L100:
 1155 000a 00BF     		.align	2
 1156              	.L99:
 1157 000c 08600040 		.word	1073766408
 1158              		.cfi_endproc
 1159              	.LFE19:
 1160              		.size	USB_GetDeviceAddress, .-USB_GetDeviceAddress
 1161              		.section	.text.USB_EnableSofInt,"ax",%progbits
 1162              		.align	2
 1163              		.global	USB_EnableSofInt
 1164              		.thumb
 1165              		.thumb_func
 1166              		.type	USB_EnableSofInt, %function
 1167              	USB_EnableSofInt:
 1168              	.LFB20:
2452:.\Generated_Source\PSoC5/USB.c **** 
2453:.\Generated_Source\PSoC5/USB.c **** 
2454:.\Generated_Source\PSoC5/USB.c **** /*******************************************************************************
2455:.\Generated_Source\PSoC5/USB.c **** * Function Name: USB_EnableSofInt
ARM GAS  C:\Users\cruiser\AppData\Local\Temp\cc8SekaC.s 			page 65


2456:.\Generated_Source\PSoC5/USB.c **** ****************************************************************************//**
2457:.\Generated_Source\PSoC5/USB.c **** *
2458:.\Generated_Source\PSoC5/USB.c **** *  This function enables interrupt generation when a Start-of-Frame (SOF)
2459:.\Generated_Source\PSoC5/USB.c **** *  packet is received from the host.
2460:.\Generated_Source\PSoC5/USB.c **** *
2461:.\Generated_Source\PSoC5/USB.c **** *******************************************************************************/
2462:.\Generated_Source\PSoC5/USB.c **** void USB_EnableSofInt(void) 
2463:.\Generated_Source\PSoC5/USB.c **** {
 1169              		.loc 1 2463 0
 1170              		.cfi_startproc
 1171              		@ args = 0, pretend = 0, frame = 0
 1172              		@ frame_needed = 0, uses_anonymous_args = 0
 1173              		@ link register save eliminated.
 1174 0000 7047     		bx	lr
 1175              		.cfi_endproc
 1176              	.LFE20:
 1177              		.size	USB_EnableSofInt, .-USB_EnableSofInt
 1178 0002 00BF     		.section	.text.USB_DisableSofInt,"ax",%progbits
 1179              		.align	2
 1180              		.global	USB_DisableSofInt
 1181              		.thumb
 1182              		.thumb_func
 1183              		.type	USB_DisableSofInt, %function
 1184              	USB_DisableSofInt:
 1185              	.LFB21:
2464:.\Generated_Source\PSoC5/USB.c **** #if (CY_PSOC4)
2465:.\Generated_Source\PSoC5/USB.c ****     /* Enable SOF interrupt interrupt source. */
2466:.\Generated_Source\PSoC5/USB.c ****     USB_INTR_SIE_MASK_REG |= (uint32) USB_INTR_SIE_SOF_INTR;
2467:.\Generated_Source\PSoC5/USB.c **** #else
2468:.\Generated_Source\PSoC5/USB.c ****     /* Enable SOF interrupt if it is present. */
2469:.\Generated_Source\PSoC5/USB.c ****     #if (USB_SOF_ISR_ACTIVE)
2470:.\Generated_Source\PSoC5/USB.c ****         CyIntEnable(USB_SOF_VECT_NUM);
2471:.\Generated_Source\PSoC5/USB.c ****     #endif /* (USB_SOF_ISR_ACTIVE) */
2472:.\Generated_Source\PSoC5/USB.c **** #endif /* (CY_PSOC4) */
2473:.\Generated_Source\PSoC5/USB.c **** }
2474:.\Generated_Source\PSoC5/USB.c **** 
2475:.\Generated_Source\PSoC5/USB.c **** 
2476:.\Generated_Source\PSoC5/USB.c **** /*******************************************************************************
2477:.\Generated_Source\PSoC5/USB.c **** * Function Name: USB_DisableSofInt
2478:.\Generated_Source\PSoC5/USB.c **** ****************************************************************************//**
2479:.\Generated_Source\PSoC5/USB.c **** *
2480:.\Generated_Source\PSoC5/USB.c **** *  This function disables interrupt generation when a Start-of-Frame (SOF)
2481:.\Generated_Source\PSoC5/USB.c **** *  packet is received from the host.
2482:.\Generated_Source\PSoC5/USB.c **** *
2483:.\Generated_Source\PSoC5/USB.c **** *******************************************************************************/
2484:.\Generated_Source\PSoC5/USB.c **** void USB_DisableSofInt(void) 
2485:.\Generated_Source\PSoC5/USB.c **** {
 1186              		.loc 1 2485 0
 1187              		.cfi_startproc
 1188              		@ args = 0, pretend = 0, frame = 0
 1189              		@ frame_needed = 0, uses_anonymous_args = 0
 1190              		@ link register save eliminated.
 1191 0000 7047     		bx	lr
 1192              		.cfi_endproc
 1193              	.LFE21:
 1194              		.size	USB_DisableSofInt, .-USB_DisableSofInt
 1195              		.global	USB_initVar
ARM GAS  C:\Users\cruiser\AppData\Local\Temp\cc8SekaC.s 			page 66


 1196 0002 00BF     		.bss
 1197              		.set	.LANCHOR0,. + 0
 1198              		.type	USB_initVar, %object
 1199              		.size	USB_initVar, 1
 1200              	USB_initVar:
 1201 0000 00       		.space	1
 1202              		.text
 1203              	.Letext0:
 1204              		.file 2 ".\\Generated_Source\\PSoC5\\cytypes.h"
 1205              		.file 3 ".\\Generated_Source\\PSoC5\\USB.h"
 1206              		.file 4 ".\\Generated_Source\\PSoC5\\USB_pvt.h"
 1207              		.file 5 ".\\Generated_Source\\PSoC5\\CyLib.h"
 1208              		.section	.debug_info,"",%progbits
 1209              	.Ldebug_info0:
 1210 0000 25090000 		.4byte	0x925
 1211 0004 0400     		.2byte	0x4
 1212 0006 00000000 		.4byte	.Ldebug_abbrev0
 1213 000a 04       		.byte	0x4
 1214 000b 01       		.uleb128 0x1
 1215 000c EE040000 		.4byte	.LASF95
 1216 0010 01       		.byte	0x1
 1217 0011 7D010000 		.4byte	.LASF96
 1218 0015 2E040000 		.4byte	.LASF97
 1219 0019 18000000 		.4byte	.Ldebug_ranges0+0x18
 1220 001d 00000000 		.4byte	0
 1221 0021 00000000 		.4byte	.Ldebug_line0
 1222 0025 02       		.uleb128 0x2
 1223 0026 01       		.byte	0x1
 1224 0027 06       		.byte	0x6
 1225 0028 F9000000 		.4byte	.LASF0
 1226 002c 02       		.uleb128 0x2
 1227 002d 01       		.byte	0x1
 1228 002e 08       		.byte	0x8
 1229 002f 9E030000 		.4byte	.LASF1
 1230 0033 02       		.uleb128 0x2
 1231 0034 02       		.byte	0x2
 1232 0035 05       		.byte	0x5
 1233 0036 C4030000 		.4byte	.LASF2
 1234 003a 02       		.uleb128 0x2
 1235 003b 02       		.byte	0x2
 1236 003c 07       		.byte	0x7
 1237 003d 35020000 		.4byte	.LASF3
 1238 0041 02       		.uleb128 0x2
 1239 0042 04       		.byte	0x4
 1240 0043 05       		.byte	0x5
 1241 0044 29010000 		.4byte	.LASF4
 1242 0048 02       		.uleb128 0x2
 1243 0049 04       		.byte	0x4
 1244 004a 07       		.byte	0x7
 1245 004b FA010000 		.4byte	.LASF5
 1246 004f 02       		.uleb128 0x2
 1247 0050 08       		.byte	0x8
 1248 0051 05       		.byte	0x5
 1249 0052 EB000000 		.4byte	.LASF6
 1250 0056 02       		.uleb128 0x2
 1251 0057 08       		.byte	0x8
 1252 0058 07       		.byte	0x7
ARM GAS  C:\Users\cruiser\AppData\Local\Temp\cc8SekaC.s 			page 67


 1253 0059 77000000 		.4byte	.LASF7
 1254 005d 03       		.uleb128 0x3
 1255 005e 04       		.byte	0x4
 1256 005f 05       		.byte	0x5
 1257 0060 696E7400 		.ascii	"int\000"
 1258 0064 02       		.uleb128 0x2
 1259 0065 04       		.byte	0x4
 1260 0066 07       		.byte	0x7
 1261 0067 ED010000 		.4byte	.LASF8
 1262 006b 04       		.uleb128 0x4
 1263 006c 47010000 		.4byte	.LASF9
 1264 0070 02       		.byte	0x2
 1265 0071 9201     		.2byte	0x192
 1266 0073 2C000000 		.4byte	0x2c
 1267 0077 04       		.uleb128 0x4
 1268 0078 00000000 		.4byte	.LASF10
 1269 007c 02       		.byte	0x2
 1270 007d 9301     		.2byte	0x193
 1271 007f 3A000000 		.4byte	0x3a
 1272 0083 04       		.uleb128 0x4
 1273 0084 9C010000 		.4byte	.LASF11
 1274 0088 02       		.byte	0x2
 1275 0089 9401     		.2byte	0x194
 1276 008b 48000000 		.4byte	0x48
 1277 008f 02       		.uleb128 0x2
 1278 0090 04       		.byte	0x4
 1279 0091 04       		.byte	0x4
 1280 0092 3D030000 		.4byte	.LASF12
 1281 0096 02       		.uleb128 0x2
 1282 0097 08       		.byte	0x8
 1283 0098 04       		.byte	0x4
 1284 0099 65010000 		.4byte	.LASF13
 1285 009d 02       		.uleb128 0x2
 1286 009e 01       		.byte	0x1
 1287 009f 08       		.byte	0x8
 1288 00a0 7F040000 		.4byte	.LASF14
 1289 00a4 04       		.uleb128 0x4
 1290 00a5 87030000 		.4byte	.LASF15
 1291 00a9 02       		.byte	0x2
 1292 00aa 3C02     		.2byte	0x23c
 1293 00ac B0000000 		.4byte	0xb0
 1294 00b0 05       		.uleb128 0x5
 1295 00b1 6B000000 		.4byte	0x6b
 1296 00b5 04       		.uleb128 0x4
 1297 00b6 78020000 		.4byte	.LASF16
 1298 00ba 02       		.byte	0x2
 1299 00bb 3E02     		.2byte	0x23e
 1300 00bd C1000000 		.4byte	0xc1
 1301 00c1 05       		.uleb128 0x5
 1302 00c2 83000000 		.4byte	0x83
 1303 00c6 04       		.uleb128 0x4
 1304 00c7 89040000 		.4byte	.LASF17
 1305 00cb 02       		.byte	0x2
 1306 00cc 4E02     		.2byte	0x24e
 1307 00ce D2000000 		.4byte	0xd2
 1308 00d2 06       		.uleb128 0x6
 1309 00d3 04       		.byte	0x4
ARM GAS  C:\Users\cruiser\AppData\Local\Temp\cc8SekaC.s 			page 68


 1310 00d4 D8000000 		.4byte	0xd8
 1311 00d8 07       		.uleb128 0x7
 1312 00d9 02       		.uleb128 0x2
 1313 00da 04       		.byte	0x4
 1314 00db 07       		.byte	0x7
 1315 00dc BF020000 		.4byte	.LASF18
 1316 00e0 08       		.uleb128 0x8
 1317 00e1 0C       		.byte	0xc
 1318 00e2 03       		.byte	0x3
 1319 00e3 88       		.byte	0x88
 1320 00e4 55010000 		.4byte	0x155
 1321 00e8 09       		.uleb128 0x9
 1322 00e9 CE020000 		.4byte	.LASF19
 1323 00ed 03       		.byte	0x3
 1324 00ee 8A       		.byte	0x8a
 1325 00ef 6B000000 		.4byte	0x6b
 1326 00f3 00       		.byte	0
 1327 00f4 09       		.uleb128 0x9
 1328 00f5 43030000 		.4byte	.LASF20
 1329 00f9 03       		.byte	0x3
 1330 00fa 8B       		.byte	0x8b
 1331 00fb 6B000000 		.4byte	0x6b
 1332 00ff 01       		.byte	0x1
 1333 0100 09       		.uleb128 0x9
 1334 0101 B5020000 		.4byte	.LASF21
 1335 0105 03       		.byte	0x3
 1336 0106 8C       		.byte	0x8c
 1337 0107 6B000000 		.4byte	0x6b
 1338 010b 02       		.byte	0x2
 1339 010c 09       		.uleb128 0x9
 1340 010d 4D010000 		.4byte	.LASF22
 1341 0111 03       		.byte	0x3
 1342 0112 8D       		.byte	0x8d
 1343 0113 6B000000 		.4byte	0x6b
 1344 0117 03       		.byte	0x3
 1345 0118 09       		.uleb128 0x9
 1346 0119 8E000000 		.4byte	.LASF23
 1347 011d 03       		.byte	0x3
 1348 011e 8E       		.byte	0x8e
 1349 011f 6B000000 		.4byte	0x6b
 1350 0123 04       		.byte	0x4
 1351 0124 09       		.uleb128 0x9
 1352 0125 CB010000 		.4byte	.LASF24
 1353 0129 03       		.byte	0x3
 1354 012a 8F       		.byte	0x8f
 1355 012b 6B000000 		.4byte	0x6b
 1356 012f 05       		.byte	0x5
 1357 0130 09       		.uleb128 0x9
 1358 0131 A1040000 		.4byte	.LASF25
 1359 0135 03       		.byte	0x3
 1360 0136 90       		.byte	0x90
 1361 0137 77000000 		.4byte	0x77
 1362 013b 06       		.byte	0x6
 1363 013c 09       		.uleb128 0x9
 1364 013d 96040000 		.4byte	.LASF26
 1365 0141 03       		.byte	0x3
 1366 0142 91       		.byte	0x91
ARM GAS  C:\Users\cruiser\AppData\Local\Temp\cc8SekaC.s 			page 69


 1367 0143 77000000 		.4byte	0x77
 1368 0147 08       		.byte	0x8
 1369 0148 09       		.uleb128 0x9
 1370 0149 67020000 		.4byte	.LASF27
 1371 014d 03       		.byte	0x3
 1372 014e 92       		.byte	0x92
 1373 014f 6B000000 		.4byte	0x6b
 1374 0153 0A       		.byte	0xa
 1375 0154 00       		.byte	0
 1376 0155 0A       		.uleb128 0xa
 1377 0156 AE000000 		.4byte	.LASF28
 1378 015a 03       		.byte	0x3
 1379 015b 93       		.byte	0x93
 1380 015c E0000000 		.4byte	0xe0
 1381 0160 08       		.uleb128 0x8
 1382 0161 10       		.byte	0x10
 1383 0162 03       		.byte	0x3
 1384 0163 CF       		.byte	0xcf
 1385 0164 99010000 		.4byte	0x199
 1386 0168 09       		.uleb128 0x9
 1387 0169 11030000 		.4byte	.LASF29
 1388 016d 03       		.byte	0x3
 1389 016e D1       		.byte	0xd1
 1390 016f 6B000000 		.4byte	0x6b
 1391 0173 00       		.byte	0
 1392 0174 09       		.uleb128 0x9
 1393 0175 18030000 		.4byte	.LASF30
 1394 0179 03       		.byte	0x3
 1395 017a D2       		.byte	0xd2
 1396 017b 6B000000 		.4byte	0x6b
 1397 017f 01       		.byte	0x1
 1398 0180 09       		.uleb128 0x9
 1399 0181 37030000 		.4byte	.LASF31
 1400 0185 03       		.byte	0x3
 1401 0186 D3       		.byte	0xd3
 1402 0187 6B000000 		.4byte	0x6b
 1403 018b 02       		.byte	0x2
 1404 018c 0B       		.uleb128 0xb
 1405 018d 67617000 		.ascii	"gap\000"
 1406 0191 03       		.byte	0x3
 1407 0192 D4       		.byte	0xd4
 1408 0193 99010000 		.4byte	0x199
 1409 0197 03       		.byte	0x3
 1410 0198 00       		.byte	0
 1411 0199 0C       		.uleb128 0xc
 1412 019a 6B000000 		.4byte	0x6b
 1413 019e A9010000 		.4byte	0x1a9
 1414 01a2 0D       		.uleb128 0xd
 1415 01a3 D9000000 		.4byte	0xd9
 1416 01a7 0C       		.byte	0xc
 1417 01a8 00       		.byte	0
 1418 01a9 0A       		.uleb128 0xa
 1419 01aa CB040000 		.4byte	.LASF32
 1420 01ae 03       		.byte	0x3
 1421 01af D5       		.byte	0xd5
 1422 01b0 60010000 		.4byte	0x160
 1423 01b4 08       		.uleb128 0x8
ARM GAS  C:\Users\cruiser\AppData\Local\Temp\cc8SekaC.s 			page 70


 1424 01b5 10       		.byte	0x10
 1425 01b6 03       		.byte	0x3
 1426 01b7 E1       		.byte	0xe1
 1427 01b8 35020000 		.4byte	0x235
 1428 01bc 09       		.uleb128 0x9
 1429 01bd 93000000 		.4byte	.LASF33
 1430 01c1 03       		.byte	0x3
 1431 01c2 E3       		.byte	0xe3
 1432 01c3 6B000000 		.4byte	0x6b
 1433 01c7 00       		.byte	0
 1434 01c8 09       		.uleb128 0x9
 1435 01c9 81050000 		.4byte	.LASF34
 1436 01cd 03       		.byte	0x3
 1437 01ce E4       		.byte	0xe4
 1438 01cf 6B000000 		.4byte	0x6b
 1439 01d3 01       		.byte	0x1
 1440 01d4 09       		.uleb128 0x9
 1441 01d5 78010000 		.4byte	.LASF35
 1442 01d9 03       		.byte	0x3
 1443 01da E5       		.byte	0xe5
 1444 01db 6B000000 		.4byte	0x6b
 1445 01df 02       		.byte	0x2
 1446 01e0 09       		.uleb128 0x9
 1447 01e1 D2010000 		.4byte	.LASF36
 1448 01e5 03       		.byte	0x3
 1449 01e6 E6       		.byte	0xe6
 1450 01e7 6B000000 		.4byte	0x6b
 1451 01eb 03       		.byte	0x3
 1452 01ec 09       		.uleb128 0x9
 1453 01ed 56010000 		.4byte	.LASF37
 1454 01f1 03       		.byte	0x3
 1455 01f2 E7       		.byte	0xe7
 1456 01f3 6B000000 		.4byte	0x6b
 1457 01f7 04       		.byte	0x4
 1458 01f8 09       		.uleb128 0x9
 1459 01f9 01040000 		.4byte	.LASF38
 1460 01fd 03       		.byte	0x3
 1461 01fe E8       		.byte	0xe8
 1462 01ff 6B000000 		.4byte	0x6b
 1463 0203 05       		.byte	0x5
 1464 0204 09       		.uleb128 0x9
 1465 0205 FC030000 		.4byte	.LASF39
 1466 0209 03       		.byte	0x3
 1467 020a E9       		.byte	0xe9
 1468 020b 6B000000 		.4byte	0x6b
 1469 020f 06       		.byte	0x6
 1470 0210 09       		.uleb128 0x9
 1471 0211 FC020000 		.4byte	.LASF40
 1472 0215 03       		.byte	0x3
 1473 0216 EA       		.byte	0xea
 1474 0217 6B000000 		.4byte	0x6b
 1475 021b 07       		.byte	0x7
 1476 021c 09       		.uleb128 0x9
 1477 021d 7C050000 		.4byte	.LASF41
 1478 0221 03       		.byte	0x3
 1479 0222 EB       		.byte	0xeb
 1480 0223 6B000000 		.4byte	0x6b
ARM GAS  C:\Users\cruiser\AppData\Local\Temp\cc8SekaC.s 			page 71


 1481 0227 08       		.byte	0x8
 1482 0228 0B       		.uleb128 0xb
 1483 0229 67617000 		.ascii	"gap\000"
 1484 022d 03       		.byte	0x3
 1485 022e EC       		.byte	0xec
 1486 022f 35020000 		.4byte	0x235
 1487 0233 09       		.byte	0x9
 1488 0234 00       		.byte	0
 1489 0235 0C       		.uleb128 0xc
 1490 0236 6B000000 		.4byte	0x6b
 1491 023a 45020000 		.4byte	0x245
 1492 023e 0D       		.uleb128 0xd
 1493 023f D9000000 		.4byte	0xd9
 1494 0243 06       		.byte	0x6
 1495 0244 00       		.byte	0
 1496 0245 0A       		.uleb128 0xa
 1497 0246 75030000 		.4byte	.LASF42
 1498 024a 03       		.byte	0x3
 1499 024b ED       		.byte	0xed
 1500 024c B4010000 		.4byte	0x1b4
 1501 0250 0E       		.uleb128 0xe
 1502 0251 90       		.byte	0x90
 1503 0252 03       		.byte	0x3
 1504 0253 0901     		.2byte	0x109
 1505 0255 67020000 		.4byte	0x267
 1506 0259 0F       		.uleb128 0xf
 1507 025a C8020000 		.4byte	.LASF43
 1508 025e 03       		.byte	0x3
 1509 025f 0B01     		.2byte	0x10b
 1510 0261 67020000 		.4byte	0x267
 1511 0265 00       		.byte	0
 1512 0266 00       		.byte	0
 1513 0267 0C       		.uleb128 0xc
 1514 0268 A9010000 		.4byte	0x1a9
 1515 026c 77020000 		.4byte	0x277
 1516 0270 0D       		.uleb128 0xd
 1517 0271 D9000000 		.4byte	0xd9
 1518 0275 08       		.byte	0x8
 1519 0276 00       		.byte	0
 1520 0277 04       		.uleb128 0x4
 1521 0278 8F020000 		.4byte	.LASF44
 1522 027c 03       		.byte	0x3
 1523 027d 0C01     		.2byte	0x10c
 1524 027f 50020000 		.4byte	0x250
 1525 0283 0E       		.uleb128 0xe
 1526 0284 90       		.byte	0x90
 1527 0285 03       		.byte	0x3
 1528 0286 0F01     		.2byte	0x10f
 1529 0288 9A020000 		.4byte	0x29a
 1530 028c 0F       		.uleb128 0xf
 1531 028d 61020000 		.4byte	.LASF45
 1532 0291 03       		.byte	0x3
 1533 0292 1101     		.2byte	0x111
 1534 0294 9A020000 		.4byte	0x29a
 1535 0298 00       		.byte	0
 1536 0299 00       		.byte	0
 1537 029a 0C       		.uleb128 0xc
ARM GAS  C:\Users\cruiser\AppData\Local\Temp\cc8SekaC.s 			page 72


 1538 029b 45020000 		.4byte	0x245
 1539 029f AA020000 		.4byte	0x2aa
 1540 02a3 0D       		.uleb128 0xd
 1541 02a4 D9000000 		.4byte	0xd9
 1542 02a8 08       		.byte	0x8
 1543 02a9 00       		.byte	0
 1544 02aa 04       		.uleb128 0x4
 1545 02ab A2020000 		.4byte	.LASF46
 1546 02af 03       		.byte	0x3
 1547 02b0 1201     		.2byte	0x112
 1548 02b2 83020000 		.4byte	0x283
 1549 02b6 10       		.uleb128 0x10
 1550 02b7 D5020000 		.4byte	.LASF47
 1551 02bb 01       		.byte	0x1
 1552 02bc D2       		.byte	0xd2
 1553 02bd 00000000 		.4byte	.LFB1
 1554 02c1 04010000 		.4byte	.LFE1-.LFB1
 1555 02c5 01       		.uleb128 0x1
 1556 02c6 9C       		.byte	0x9c
 1557 02c7 EF030000 		.4byte	0x3ef
 1558 02cb 11       		.uleb128 0x11
 1559 02cc DD040000 		.4byte	.LASF53
 1560 02d0 01       		.byte	0x1
 1561 02d1 F9       		.byte	0xf9
 1562 02d2 6B000000 		.4byte	0x6b
 1563 02d6 00000000 		.4byte	.LLST0
 1564 02da 12       		.uleb128 0x12
 1565 02db 06000000 		.4byte	.LVL0
 1566 02df BE080000 		.4byte	0x8be
 1567 02e3 13       		.uleb128 0x13
 1568 02e4 3C000000 		.4byte	.LVL2
 1569 02e8 C9080000 		.4byte	0x8c9
 1570 02ec F6020000 		.4byte	0x2f6
 1571 02f0 14       		.uleb128 0x14
 1572 02f1 01       		.uleb128 0x1
 1573 02f2 50       		.byte	0x50
 1574 02f3 01       		.uleb128 0x1
 1575 02f4 30       		.byte	0x30
 1576 02f5 00       		.byte	0
 1577 02f6 13       		.uleb128 0x13
 1578 02f7 5C000000 		.4byte	.LVL3
 1579 02fb C9080000 		.4byte	0x8c9
 1580 02ff 0A030000 		.4byte	0x30a
 1581 0303 14       		.uleb128 0x14
 1582 0304 01       		.uleb128 0x1
 1583 0305 50       		.byte	0x50
 1584 0306 02       		.uleb128 0x2
 1585 0307 77       		.byte	0x77
 1586 0308 00       		.sleb128 0
 1587 0309 00       		.byte	0
 1588 030a 13       		.uleb128 0x13
 1589 030b 62000000 		.4byte	.LVL4
 1590 030f C9080000 		.4byte	0x8c9
 1591 0313 1E030000 		.4byte	0x31e
 1592 0317 14       		.uleb128 0x14
 1593 0318 01       		.uleb128 0x1
 1594 0319 50       		.byte	0x50
ARM GAS  C:\Users\cruiser\AppData\Local\Temp\cc8SekaC.s 			page 73


 1595 031a 02       		.uleb128 0x2
 1596 031b 08       		.byte	0x8
 1597 031c 28       		.byte	0x28
 1598 031d 00       		.byte	0
 1599 031e 13       		.uleb128 0x13
 1600 031f 80000000 		.4byte	.LVL5
 1601 0323 C9080000 		.4byte	0x8c9
 1602 0327 32030000 		.4byte	0x332
 1603 032b 14       		.uleb128 0x14
 1604 032c 01       		.uleb128 0x1
 1605 032d 50       		.byte	0x50
 1606 032e 02       		.uleb128 0x2
 1607 032f 76       		.byte	0x76
 1608 0330 00       		.sleb128 0
 1609 0331 00       		.byte	0
 1610 0332 13       		.uleb128 0x13
 1611 0333 98000000 		.4byte	.LVL6
 1612 0337 DA080000 		.4byte	0x8da
 1613 033b 46030000 		.4byte	0x346
 1614 033f 14       		.uleb128 0x14
 1615 0340 01       		.uleb128 0x1
 1616 0341 50       		.byte	0x50
 1617 0342 02       		.uleb128 0x2
 1618 0343 75       		.byte	0x75
 1619 0344 00       		.sleb128 0
 1620 0345 00       		.byte	0
 1621 0346 13       		.uleb128 0x13
 1622 0347 A0000000 		.4byte	.LVL7
 1623 034b EB080000 		.4byte	0x8eb
 1624 034f 5E030000 		.4byte	0x35e
 1625 0353 14       		.uleb128 0x14
 1626 0354 01       		.uleb128 0x1
 1627 0355 51       		.byte	0x51
 1628 0356 01       		.uleb128 0x1
 1629 0357 37       		.byte	0x37
 1630 0358 14       		.uleb128 0x14
 1631 0359 01       		.uleb128 0x1
 1632 035a 50       		.byte	0x50
 1633 035b 01       		.uleb128 0x1
 1634 035c 47       		.byte	0x47
 1635 035d 00       		.byte	0
 1636 035e 13       		.uleb128 0x13
 1637 035f A8000000 		.4byte	.LVL8
 1638 0363 01090000 		.4byte	0x901
 1639 0367 71030000 		.4byte	0x371
 1640 036b 14       		.uleb128 0x14
 1641 036c 01       		.uleb128 0x1
 1642 036d 50       		.byte	0x50
 1643 036e 01       		.uleb128 0x1
 1644 036f 47       		.byte	0x47
 1645 0370 00       		.byte	0
 1646 0371 13       		.uleb128 0x13
 1647 0372 B0000000 		.4byte	.LVL9
 1648 0376 EB080000 		.4byte	0x8eb
 1649 037a 89030000 		.4byte	0x389
 1650 037e 14       		.uleb128 0x14
 1651 037f 01       		.uleb128 0x1
ARM GAS  C:\Users\cruiser\AppData\Local\Temp\cc8SekaC.s 			page 74


 1652 0380 51       		.byte	0x51
 1653 0381 01       		.uleb128 0x1
 1654 0382 37       		.byte	0x37
 1655 0383 14       		.uleb128 0x14
 1656 0384 01       		.uleb128 0x1
 1657 0385 50       		.byte	0x50
 1658 0386 01       		.uleb128 0x1
 1659 0387 48       		.byte	0x48
 1660 0388 00       		.byte	0
 1661 0389 13       		.uleb128 0x13
 1662 038a B8000000 		.4byte	.LVL10
 1663 038e 01090000 		.4byte	0x901
 1664 0392 9C030000 		.4byte	0x39c
 1665 0396 14       		.uleb128 0x14
 1666 0397 01       		.uleb128 0x1
 1667 0398 50       		.byte	0x50
 1668 0399 01       		.uleb128 0x1
 1669 039a 48       		.byte	0x48
 1670 039b 00       		.byte	0
 1671 039c 13       		.uleb128 0x13
 1672 039d C0000000 		.4byte	.LVL11
 1673 03a1 EB080000 		.4byte	0x8eb
 1674 03a5 B4030000 		.4byte	0x3b4
 1675 03a9 14       		.uleb128 0x14
 1676 03aa 01       		.uleb128 0x1
 1677 03ab 51       		.byte	0x51
 1678 03ac 01       		.uleb128 0x1
 1679 03ad 37       		.byte	0x37
 1680 03ae 14       		.uleb128 0x14
 1681 03af 01       		.uleb128 0x1
 1682 03b0 50       		.byte	0x50
 1683 03b1 01       		.uleb128 0x1
 1684 03b2 33       		.byte	0x33
 1685 03b3 00       		.byte	0
 1686 03b4 13       		.uleb128 0x13
 1687 03b5 C8000000 		.4byte	.LVL12
 1688 03b9 01090000 		.4byte	0x901
 1689 03bd C7030000 		.4byte	0x3c7
 1690 03c1 14       		.uleb128 0x14
 1691 03c2 01       		.uleb128 0x1
 1692 03c3 50       		.byte	0x50
 1693 03c4 01       		.uleb128 0x1
 1694 03c5 33       		.byte	0x33
 1695 03c6 00       		.byte	0
 1696 03c7 13       		.uleb128 0x13
 1697 03c8 D0000000 		.4byte	.LVL13
 1698 03cc EB080000 		.4byte	0x8eb
 1699 03d0 DF030000 		.4byte	0x3df
 1700 03d4 14       		.uleb128 0x14
 1701 03d5 01       		.uleb128 0x1
 1702 03d6 51       		.byte	0x51
 1703 03d7 01       		.uleb128 0x1
 1704 03d8 37       		.byte	0x37
 1705 03d9 14       		.uleb128 0x14
 1706 03da 01       		.uleb128 0x1
 1707 03db 50       		.byte	0x50
 1708 03dc 01       		.uleb128 0x1
ARM GAS  C:\Users\cruiser\AppData\Local\Temp\cc8SekaC.s 			page 75


 1709 03dd 3C       		.byte	0x3c
 1710 03de 00       		.byte	0
 1711 03df 15       		.uleb128 0x15
 1712 03e0 D8000000 		.4byte	.LVL14
 1713 03e4 01090000 		.4byte	0x901
 1714 03e8 14       		.uleb128 0x14
 1715 03e9 01       		.uleb128 0x1
 1716 03ea 50       		.byte	0x50
 1717 03eb 01       		.uleb128 0x1
 1718 03ec 3C       		.byte	0x3c
 1719 03ed 00       		.byte	0
 1720 03ee 00       		.byte	0
 1721 03ef 16       		.uleb128 0x16
 1722 03f0 1D000000 		.4byte	.LASF48
 1723 03f4 01       		.byte	0x1
 1724 03f5 CB01     		.2byte	0x1cb
 1725 03f7 00000000 		.4byte	.LFB2
 1726 03fb AC000000 		.4byte	.LFE2-.LFB2
 1727 03ff 01       		.uleb128 0x1
 1728 0400 9C       		.byte	0x9c
 1729 0401 35040000 		.4byte	0x435
 1730 0405 17       		.uleb128 0x17
 1731 0406 E4000000 		.4byte	.LASF49
 1732 040a 01       		.byte	0x1
 1733 040b CB01     		.2byte	0x1cb
 1734 040d 6B000000 		.4byte	0x6b
 1735 0411 13000000 		.4byte	.LLST1
 1736 0415 17       		.uleb128 0x17
 1737 0416 84040000 		.4byte	.LASF50
 1738 041a 01       		.byte	0x1
 1739 041b CB01     		.2byte	0x1cb
 1740 041d 6B000000 		.4byte	0x6b
 1741 0421 34000000 		.4byte	.LLST2
 1742 0425 15       		.uleb128 0x15
 1743 0426 72000000 		.4byte	.LVL18
 1744 042a 1B090000 		.4byte	0x91b
 1745 042e 14       		.uleb128 0x14
 1746 042f 01       		.uleb128 0x1
 1747 0430 50       		.byte	0x50
 1748 0431 01       		.uleb128 0x1
 1749 0432 31       		.byte	0x31
 1750 0433 00       		.byte	0
 1751 0434 00       		.byte	0
 1752 0435 10       		.uleb128 0x10
 1753 0436 57020000 		.4byte	.LASF51
 1754 043a 01       		.byte	0x1
 1755 043b B9       		.byte	0xb9
 1756 043c 00000000 		.4byte	.LFB0
 1757 0440 24000000 		.4byte	.LFE0-.LFB0
 1758 0444 01       		.uleb128 0x1
 1759 0445 9C       		.byte	0x9c
 1760 0446 88040000 		.4byte	0x488
 1761 044a 18       		.uleb128 0x18
 1762 044b E4000000 		.4byte	.LASF49
 1763 044f 01       		.byte	0x1
 1764 0450 B9       		.byte	0xb9
 1765 0451 6B000000 		.4byte	0x6b
ARM GAS  C:\Users\cruiser\AppData\Local\Temp\cc8SekaC.s 			page 76


 1766 0455 55000000 		.4byte	.LLST3
 1767 0459 18       		.uleb128 0x18
 1768 045a 84040000 		.4byte	.LASF50
 1769 045e 01       		.byte	0x1
 1770 045f B9       		.byte	0xb9
 1771 0460 6B000000 		.4byte	0x6b
 1772 0464 76000000 		.4byte	.LLST4
 1773 0468 12       		.uleb128 0x12
 1774 0469 10000000 		.4byte	.LVL20
 1775 046d B6020000 		.4byte	0x2b6
 1776 0471 15       		.uleb128 0x15
 1777 0472 1E000000 		.4byte	.LVL21
 1778 0476 EF030000 		.4byte	0x3ef
 1779 047a 14       		.uleb128 0x14
 1780 047b 01       		.uleb128 0x1
 1781 047c 51       		.byte	0x51
 1782 047d 02       		.uleb128 0x2
 1783 047e 74       		.byte	0x74
 1784 047f 00       		.sleb128 0
 1785 0480 14       		.uleb128 0x14
 1786 0481 01       		.uleb128 0x1
 1787 0482 50       		.byte	0x50
 1788 0483 02       		.uleb128 0x2
 1789 0484 75       		.byte	0x75
 1790 0485 00       		.sleb128 0
 1791 0486 00       		.byte	0
 1792 0487 00       		.byte	0
 1793 0488 19       		.uleb128 0x19
 1794 0489 CE030000 		.4byte	.LASF78
 1795 048d 01       		.byte	0x1
 1796 048e 9E02     		.2byte	0x29e
 1797 0490 00000000 		.4byte	.LFB3
 1798 0494 4C000000 		.4byte	.LFE3-.LFB3
 1799 0498 01       		.uleb128 0x1
 1800 0499 9C       		.byte	0x9c
 1801 049a 16       		.uleb128 0x16
 1802 049b DB000000 		.4byte	.LASF52
 1803 049f 01       		.byte	0x1
 1804 04a0 D802     		.2byte	0x2d8
 1805 04a2 00000000 		.4byte	.LFB4
 1806 04a6 84000000 		.4byte	.LFE4-.LFB4
 1807 04aa 01       		.uleb128 0x1
 1808 04ab 9C       		.byte	0x9c
 1809 04ac D3040000 		.4byte	0x4d3
 1810 04b0 1A       		.uleb128 0x1a
 1811 04b1 DD040000 		.4byte	.LASF53
 1812 04b5 01       		.byte	0x1
 1813 04b6 DA02     		.2byte	0x2da
 1814 04b8 6B000000 		.4byte	0x6b
 1815 04bc 97000000 		.4byte	.LLST5
 1816 04c0 12       		.uleb128 0x12
 1817 04c1 06000000 		.4byte	.LVL22
 1818 04c5 BE080000 		.4byte	0x8be
 1819 04c9 12       		.uleb128 0x12
 1820 04ca 36000000 		.4byte	.LVL23
 1821 04ce DA080000 		.4byte	0x8da
 1822 04d2 00       		.byte	0
ARM GAS  C:\Users\cruiser\AppData\Local\Temp\cc8SekaC.s 			page 77


 1823 04d3 1B       		.uleb128 0x1b
 1824 04d4 8C030000 		.4byte	.LASF55
 1825 04d8 01       		.byte	0x1
 1826 04d9 4303     		.2byte	0x343
 1827 04db 6B000000 		.4byte	0x6b
 1828 04df 00000000 		.4byte	.LFB5
 1829 04e3 20000000 		.4byte	.LFE5-.LFB5
 1830 04e7 01       		.uleb128 0x1
 1831 04e8 9C       		.byte	0x9c
 1832 04e9 FE040000 		.4byte	0x4fe
 1833 04ed 1A       		.uleb128 0x1a
 1834 04ee 71020000 		.4byte	.LASF54
 1835 04f2 01       		.byte	0x1
 1836 04f3 4503     		.2byte	0x345
 1837 04f5 6B000000 		.4byte	0x6b
 1838 04f9 AA000000 		.4byte	.LLST6
 1839 04fd 00       		.byte	0
 1840 04fe 1C       		.uleb128 0x1c
 1841 04ff 60030000 		.4byte	.LASF76
 1842 0503 01       		.byte	0x1
 1843 0504 5A03     		.2byte	0x35a
 1844 0506 6B000000 		.4byte	0x6b
 1845 050a 00000000 		.4byte	.LFB6
 1846 050e 0C000000 		.4byte	.LFE6-.LFB6
 1847 0512 01       		.uleb128 0x1
 1848 0513 9C       		.byte	0x9c
 1849 0514 1B       		.uleb128 0x1b
 1850 0515 09040000 		.4byte	.LASF56
 1851 0519 01       		.byte	0x1
 1852 051a 7403     		.2byte	0x374
 1853 051c 6B000000 		.4byte	0x6b
 1854 0520 00000000 		.4byte	.LFB7
 1855 0524 20000000 		.4byte	.LFE7-.LFB7
 1856 0528 01       		.uleb128 0x1
 1857 0529 9C       		.byte	0x9c
 1858 052a 3F050000 		.4byte	0x53f
 1859 052e 1D       		.uleb128 0x1d
 1860 052f 72657300 		.ascii	"res\000"
 1861 0533 01       		.byte	0x1
 1862 0534 7603     		.2byte	0x376
 1863 0536 6B000000 		.4byte	0x6b
 1864 053a BD000000 		.4byte	.LLST7
 1865 053e 00       		.byte	0
 1866 053f 1B       		.uleb128 0x1b
 1867 0540 AC030000 		.4byte	.LASF57
 1868 0544 01       		.byte	0x1
 1869 0545 9103     		.2byte	0x391
 1870 0547 6B000000 		.4byte	0x6b
 1871 054b 00000000 		.4byte	.LFB8
 1872 054f 0C000000 		.4byte	.LFE8-.LFB8
 1873 0553 01       		.uleb128 0x1
 1874 0554 9C       		.byte	0x9c
 1875 0555 6A050000 		.4byte	0x56a
 1876 0559 17       		.uleb128 0x17
 1877 055a AC040000 		.4byte	.LASF58
 1878 055e 01       		.byte	0x1
 1879 055f 9103     		.2byte	0x391
ARM GAS  C:\Users\cruiser\AppData\Local\Temp\cc8SekaC.s 			page 78


 1880 0561 6B000000 		.4byte	0x6b
 1881 0565 F3000000 		.4byte	.LLST8
 1882 0569 00       		.byte	0
 1883 056a 1B       		.uleb128 0x1b
 1884 056b BC040000 		.4byte	.LASF59
 1885 056f 01       		.byte	0x1
 1886 0570 B103     		.2byte	0x3b1
 1887 0572 6B000000 		.4byte	0x6b
 1888 0576 00000000 		.4byte	.LFB9
 1889 057a 14000000 		.4byte	.LFE9-.LFB9
 1890 057e 01       		.uleb128 0x1
 1891 057f 9C       		.byte	0x9c
 1892 0580 95050000 		.4byte	0x595
 1893 0584 17       		.uleb128 0x17
 1894 0585 D2000000 		.4byte	.LASF60
 1895 0589 01       		.byte	0x1
 1896 058a B103     		.2byte	0x3b1
 1897 058c 6B000000 		.4byte	0x6b
 1898 0590 14010000 		.4byte	.LLST9
 1899 0594 00       		.byte	0
 1900 0595 1B       		.uleb128 0x1b
 1901 0596 89050000 		.4byte	.LASF61
 1902 059a 01       		.byte	0x1
 1903 059b C803     		.2byte	0x3c8
 1904 059d 77000000 		.4byte	0x77
 1905 05a1 00000000 		.4byte	.LFB10
 1906 05a5 28000000 		.4byte	.LFE10-.LFB10
 1907 05a9 01       		.uleb128 0x1
 1908 05aa 9C       		.byte	0x9c
 1909 05ab D0050000 		.4byte	0x5d0
 1910 05af 17       		.uleb128 0x17
 1911 05b0 D2000000 		.4byte	.LASF60
 1912 05b4 01       		.byte	0x1
 1913 05b5 C803     		.2byte	0x3c8
 1914 05b7 6B000000 		.4byte	0x6b
 1915 05bb 35010000 		.4byte	.LLST10
 1916 05bf 1A       		.uleb128 0x1a
 1917 05c0 24010000 		.4byte	.LASF62
 1918 05c4 01       		.byte	0x1
 1919 05c5 CA03     		.2byte	0x3ca
 1920 05c7 77000000 		.4byte	0x77
 1921 05cb 6F010000 		.4byte	.LLST11
 1922 05cf 00       		.byte	0
 1923 05d0 16       		.uleb128 0x16
 1924 05d1 04030000 		.4byte	.LASF63
 1925 05d5 01       		.byte	0x1
 1926 05d6 3005     		.2byte	0x530
 1927 05d8 00000000 		.4byte	.LFB11
 1928 05dc 94000000 		.4byte	.LFE11-.LFB11
 1929 05e0 01       		.uleb128 0x1
 1930 05e1 9C       		.byte	0x9c
 1931 05e2 29060000 		.4byte	0x629
 1932 05e6 17       		.uleb128 0x17
 1933 05e7 D2000000 		.4byte	.LASF60
 1934 05eb 01       		.byte	0x1
 1935 05ec 3005     		.2byte	0x530
 1936 05ee 6B000000 		.4byte	0x6b
ARM GAS  C:\Users\cruiser\AppData\Local\Temp\cc8SekaC.s 			page 79


 1937 05f2 BD010000 		.4byte	.LLST12
 1938 05f6 1E       		.uleb128 0x1e
 1939 05f7 C5010000 		.4byte	.LASF64
 1940 05fb 01       		.byte	0x1
 1941 05fc 3005     		.2byte	0x530
 1942 05fe 29060000 		.4byte	0x629
 1943 0602 01       		.uleb128 0x1
 1944 0603 51       		.byte	0x51
 1945 0604 17       		.uleb128 0x17
 1946 0605 78040000 		.4byte	.LASF65
 1947 0609 01       		.byte	0x1
 1948 060a 3005     		.2byte	0x530
 1949 060c 77000000 		.4byte	0x77
 1950 0610 DE010000 		.4byte	.LLST13
 1951 0614 1F       		.uleb128 0x1f
 1952 0615 00000000 		.4byte	.Ldebug_ranges0+0
 1953 0619 1D       		.uleb128 0x1d
 1954 061a 6900     		.ascii	"i\000"
 1955 061c 01       		.byte	0x1
 1956 061d 4505     		.2byte	0x545
 1957 061f 77000000 		.4byte	0x77
 1958 0623 0A020000 		.4byte	.LLST14
 1959 0627 00       		.byte	0
 1960 0628 00       		.byte	0
 1961 0629 06       		.uleb128 0x6
 1962 062a 04       		.byte	0x4
 1963 062b 2F060000 		.4byte	0x62f
 1964 062f 20       		.uleb128 0x20
 1965 0630 6B000000 		.4byte	0x6b
 1966 0634 16       		.uleb128 0x16
 1967 0635 05010000 		.4byte	.LASF66
 1968 0639 01       		.byte	0x1
 1969 063a C708     		.2byte	0x8c7
 1970 063c 00000000 		.4byte	.LFB13
 1971 0640 2C000000 		.4byte	.LFE13-.LFB13
 1972 0644 01       		.uleb128 0x1
 1973 0645 9C       		.byte	0x9c
 1974 0646 5B060000 		.4byte	0x65b
 1975 064a 17       		.uleb128 0x17
 1976 064b D2000000 		.4byte	.LASF60
 1977 064f 01       		.byte	0x1
 1978 0650 C708     		.2byte	0x8c7
 1979 0652 6B000000 		.4byte	0x6b
 1980 0656 33020000 		.4byte	.LLST15
 1981 065a 00       		.byte	0
 1982 065b 1B       		.uleb128 0x1b
 1983 065c EE030000 		.4byte	.LASF67
 1984 0660 01       		.byte	0x1
 1985 0661 6306     		.2byte	0x663
 1986 0663 77000000 		.4byte	0x77
 1987 0667 00000000 		.4byte	.LFB12
 1988 066b 50000000 		.4byte	.LFE12-.LFB12
 1989 066f 01       		.uleb128 0x1
 1990 0670 9C       		.byte	0x9c
 1991 0671 FA060000 		.4byte	0x6fa
 1992 0675 17       		.uleb128 0x17
 1993 0676 D2000000 		.4byte	.LASF60
ARM GAS  C:\Users\cruiser\AppData\Local\Temp\cc8SekaC.s 			page 80


 1994 067a 01       		.byte	0x1
 1995 067b 6306     		.2byte	0x663
 1996 067d 6B000000 		.4byte	0x6b
 1997 0681 54020000 		.4byte	.LLST16
 1998 0685 17       		.uleb128 0x17
 1999 0686 C5010000 		.4byte	.LASF64
 2000 068a 01       		.byte	0x1
 2001 068b 6306     		.2byte	0x663
 2002 068d FA060000 		.4byte	0x6fa
 2003 0691 8E020000 		.4byte	.LLST17
 2004 0695 17       		.uleb128 0x17
 2005 0696 78040000 		.4byte	.LASF65
 2006 069a 01       		.byte	0x1
 2007 069b 6306     		.2byte	0x663
 2008 069d 77000000 		.4byte	0x77
 2009 06a1 C5020000 		.4byte	.LLST18
 2010 06a5 21       		.uleb128 0x21
 2011 06a6 20000000 		.4byte	.LBB4
 2012 06aa 14000000 		.4byte	.LBE4-.LBB4
 2013 06ae C1060000 		.4byte	0x6c1
 2014 06b2 1D       		.uleb128 0x1d
 2015 06b3 6900     		.ascii	"i\000"
 2016 06b5 01       		.byte	0x1
 2017 06b6 7006     		.2byte	0x670
 2018 06b8 77000000 		.4byte	0x77
 2019 06bc 07030000 		.4byte	.LLST19
 2020 06c0 00       		.byte	0
 2021 06c1 13       		.uleb128 0x13
 2022 06c2 14000000 		.4byte	.LVL56
 2023 06c6 95050000 		.4byte	0x595
 2024 06ca D5060000 		.4byte	0x6d5
 2025 06ce 14       		.uleb128 0x14
 2026 06cf 01       		.uleb128 0x1
 2027 06d0 50       		.byte	0x50
 2028 06d1 02       		.uleb128 0x2
 2029 06d2 75       		.byte	0x75
 2030 06d3 00       		.sleb128 0
 2031 06d4 00       		.byte	0
 2032 06d5 13       		.uleb128 0x13
 2033 06d6 1E000000 		.4byte	.LVL57
 2034 06da 95050000 		.4byte	0x595
 2035 06de E9060000 		.4byte	0x6e9
 2036 06e2 14       		.uleb128 0x14
 2037 06e3 01       		.uleb128 0x1
 2038 06e4 50       		.byte	0x50
 2039 06e5 02       		.uleb128 0x2
 2040 06e6 75       		.byte	0x75
 2041 06e7 00       		.sleb128 0
 2042 06e8 00       		.byte	0
 2043 06e9 15       		.uleb128 0x15
 2044 06ea 3A000000 		.4byte	.LVL62
 2045 06ee 34060000 		.4byte	0x634
 2046 06f2 14       		.uleb128 0x14
 2047 06f3 01       		.uleb128 0x1
 2048 06f4 50       		.byte	0x50
 2049 06f5 02       		.uleb128 0x2
 2050 06f6 75       		.byte	0x75
ARM GAS  C:\Users\cruiser\AppData\Local\Temp\cc8SekaC.s 			page 81


 2051 06f7 00       		.sleb128 0
 2052 06f8 00       		.byte	0
 2053 06f9 00       		.byte	0
 2054 06fa 06       		.uleb128 0x6
 2055 06fb 04       		.byte	0x4
 2056 06fc 6B000000 		.4byte	0x6b
 2057 0700 16       		.uleb128 0x16
 2058 0701 2F000000 		.4byte	.LASF68
 2059 0705 01       		.byte	0x1
 2060 0706 DF08     		.2byte	0x8df
 2061 0708 00000000 		.4byte	.LFB14
 2062 070c 18000000 		.4byte	.LFE14-.LFB14
 2063 0710 01       		.uleb128 0x1
 2064 0711 9C       		.byte	0x9c
 2065 0712 27070000 		.4byte	0x727
 2066 0716 17       		.uleb128 0x17
 2067 0717 D2000000 		.4byte	.LASF60
 2068 071b 01       		.byte	0x1
 2069 071c DF08     		.2byte	0x8df
 2070 071e 6B000000 		.4byte	0x6b
 2071 0722 31030000 		.4byte	.LLST20
 2072 0726 00       		.byte	0
 2073 0727 16       		.uleb128 0x16
 2074 0728 24040000 		.4byte	.LASF69
 2075 072c 01       		.byte	0x1
 2076 072d FD08     		.2byte	0x8fd
 2077 072f 00000000 		.4byte	.LFB15
 2078 0733 0C000000 		.4byte	.LFE15-.LFB15
 2079 0737 01       		.uleb128 0x1
 2080 0738 9C       		.byte	0x9c
 2081 0739 4C070000 		.4byte	0x74c
 2082 073d 1E       		.uleb128 0x1e
 2083 073e 71040000 		.4byte	.LASF70
 2084 0742 01       		.byte	0x1
 2085 0743 FD08     		.2byte	0x8fd
 2086 0745 6B000000 		.4byte	0x6b
 2087 0749 01       		.uleb128 0x1
 2088 074a 50       		.byte	0x50
 2089 074b 00       		.byte	0
 2090 074c 1B       		.uleb128 0x1b
 2091 074d DB010000 		.4byte	.LASF71
 2092 0751 01       		.byte	0x1
 2093 0752 1609     		.2byte	0x916
 2094 0754 6B000000 		.4byte	0x6b
 2095 0758 00000000 		.4byte	.LFB16
 2096 075c 20000000 		.4byte	.LFE16-.LFB16
 2097 0760 01       		.uleb128 0x1
 2098 0761 9C       		.byte	0x9c
 2099 0762 86070000 		.4byte	0x786
 2100 0766 17       		.uleb128 0x17
 2101 0767 D2000000 		.4byte	.LASF60
 2102 076b 01       		.byte	0x1
 2103 076c 1609     		.2byte	0x916
 2104 076e 6B000000 		.4byte	0x6b
 2105 0772 52030000 		.4byte	.LLST21
 2106 0776 1D       		.uleb128 0x1d
 2107 0777 637200   		.ascii	"cr\000"
ARM GAS  C:\Users\cruiser\AppData\Local\Temp\cc8SekaC.s 			page 82


 2108 077a 01       		.byte	0x1
 2109 077b 1809     		.2byte	0x918
 2110 077d 6B000000 		.4byte	0x6b
 2111 0781 8C030000 		.4byte	.LLST22
 2112 0785 00       		.byte	0
 2113 0786 16       		.uleb128 0x16
 2114 0787 DE020000 		.4byte	.LASF72
 2115 078b 01       		.byte	0x1
 2116 078c 3F09     		.2byte	0x93f
 2117 078e 00000000 		.4byte	.LFB17
 2118 0792 20000000 		.4byte	.LFE17-.LFB17
 2119 0796 01       		.uleb128 0x1
 2120 0797 9C       		.byte	0x9c
 2121 0798 AB070000 		.4byte	0x7ab
 2122 079c 1E       		.uleb128 0x1e
 2123 079d 6C010000 		.4byte	.LASF73
 2124 07a1 01       		.byte	0x1
 2125 07a2 3F09     		.2byte	0x93f
 2126 07a4 6B000000 		.4byte	0x6b
 2127 07a8 01       		.uleb128 0x1
 2128 07a9 50       		.byte	0x50
 2129 07aa 00       		.byte	0
 2130 07ab 1B       		.uleb128 0x1b
 2131 07ac 15010000 		.4byte	.LASF74
 2132 07b0 01       		.byte	0x1
 2133 07b1 7809     		.2byte	0x978
 2134 07b3 6B000000 		.4byte	0x6b
 2135 07b7 00000000 		.4byte	.LFB18
 2136 07bb 18000000 		.4byte	.LFE18-.LFB18
 2137 07bf 01       		.uleb128 0x1
 2138 07c0 9C       		.byte	0x9c
 2139 07c1 D6070000 		.4byte	0x7d6
 2140 07c5 1A       		.uleb128 0x1a
 2141 07c6 B1050000 		.4byte	.LASF75
 2142 07ca 01       		.byte	0x1
 2143 07cb 7A09     		.2byte	0x97a
 2144 07cd 6B000000 		.4byte	0x6b
 2145 07d1 C2030000 		.4byte	.LLST23
 2146 07d5 00       		.byte	0
 2147 07d6 1C       		.uleb128 0x1c
 2148 07d7 32010000 		.4byte	.LASF77
 2149 07db 01       		.byte	0x1
 2150 07dc 9009     		.2byte	0x990
 2151 07de 6B000000 		.4byte	0x6b
 2152 07e2 00000000 		.4byte	.LFB19
 2153 07e6 10000000 		.4byte	.LFE19-.LFB19
 2154 07ea 01       		.uleb128 0x1
 2155 07eb 9C       		.byte	0x9c
 2156 07ec 19       		.uleb128 0x19
 2157 07ed C1000000 		.4byte	.LASF79
 2158 07f1 01       		.byte	0x1
 2159 07f2 9E09     		.2byte	0x99e
 2160 07f4 00000000 		.4byte	.LFB20
 2161 07f8 02000000 		.4byte	.LFE20-.LFB20
 2162 07fc 01       		.uleb128 0x1
 2163 07fd 9C       		.byte	0x9c
 2164 07fe 19       		.uleb128 0x19
ARM GAS  C:\Users\cruiser\AppData\Local\Temp\cc8SekaC.s 			page 83


 2165 07ff 23020000 		.4byte	.LASF80
 2166 0803 01       		.byte	0x1
 2167 0804 B409     		.2byte	0x9b4
 2168 0806 00000000 		.4byte	.LFB21
 2169 080a 02000000 		.4byte	.LFE21-.LFB21
 2170 080e 01       		.uleb128 0x1
 2171 080f 9C       		.byte	0x9c
 2172 0810 22       		.uleb128 0x22
 2173 0811 E2030000 		.4byte	.LASF81
 2174 0815 01       		.byte	0x1
 2175 0816 27       		.byte	0x27
 2176 0817 6B000000 		.4byte	0x6b
 2177 081b 05       		.uleb128 0x5
 2178 081c 03       		.byte	0x3
 2179 081d 00000000 		.4byte	USB_initVar
 2180 0821 23       		.uleb128 0x23
 2181 0822 F1020000 		.4byte	.LASF82
 2182 0826 03       		.byte	0x3
 2183 0827 CD02     		.2byte	0x2cd
 2184 0829 B0000000 		.4byte	0xb0
 2185 082d 23       		.uleb128 0x23
 2186 082e 65000000 		.4byte	.LASF83
 2187 0832 03       		.byte	0x3
 2188 0833 CE02     		.2byte	0x2ce
 2189 0835 B0000000 		.4byte	0xb0
 2190 0839 23       		.uleb128 0x23
 2191 083a 40000000 		.4byte	.LASF84
 2192 083e 03       		.byte	0x3
 2193 083f CF02     		.2byte	0x2cf
 2194 0841 B0000000 		.4byte	0xb0
 2195 0845 23       		.uleb128 0x23
 2196 0846 98050000 		.4byte	.LASF85
 2197 084a 03       		.byte	0x3
 2198 084b D002     		.2byte	0x2d0
 2199 084d B0000000 		.4byte	0xb0
 2200 0851 23       		.uleb128 0x23
 2201 0852 7E020000 		.4byte	.LASF86
 2202 0856 03       		.byte	0x3
 2203 0857 D102     		.2byte	0x2d1
 2204 0859 B0000000 		.4byte	0xb0
 2205 085d 24       		.uleb128 0x24
 2206 085e B1010000 		.4byte	.LASF87
 2207 0862 04       		.byte	0x4
 2208 0863 70       		.byte	0x70
 2209 0864 B0000000 		.4byte	0xb0
 2210 0868 0C       		.uleb128 0xc
 2211 0869 6B000000 		.4byte	0x6b
 2212 086d 78080000 		.4byte	0x878
 2213 0871 0D       		.uleb128 0xd
 2214 0872 D9000000 		.4byte	0xd9
 2215 0876 00       		.byte	0
 2216 0877 00       		.byte	0
 2217 0878 24       		.uleb128 0x24
 2218 0879 99000000 		.4byte	.LASF88
 2219 087d 04       		.byte	0x4
 2220 087e 71       		.byte	0x71
 2221 087f 83080000 		.4byte	0x883
ARM GAS  C:\Users\cruiser\AppData\Local\Temp\cc8SekaC.s 			page 84


 2222 0883 05       		.uleb128 0x5
 2223 0884 68080000 		.4byte	0x868
 2224 0888 24       		.uleb128 0x24
 2225 0889 4E030000 		.4byte	.LASF89
 2226 088d 04       		.byte	0x4
 2227 088e 73       		.byte	0x73
 2228 088f B0000000 		.4byte	0xb0
 2229 0893 0C       		.uleb128 0xc
 2230 0894 55010000 		.4byte	0x155
 2231 0898 A3080000 		.4byte	0x8a3
 2232 089c 0D       		.uleb128 0xd
 2233 089d D9000000 		.4byte	0xd9
 2234 08a1 08       		.byte	0x8
 2235 08a2 00       		.byte	0
 2236 08a3 24       		.uleb128 0x24
 2237 08a4 1F030000 		.4byte	.LASF90
 2238 08a8 04       		.byte	0x4
 2239 08a9 77       		.byte	0x77
 2240 08aa AE080000 		.4byte	0x8ae
 2241 08ae 05       		.uleb128 0x5
 2242 08af 93080000 		.4byte	0x893
 2243 08b3 24       		.uleb128 0x24
 2244 08b4 52000000 		.4byte	.LASF91
 2245 08b8 04       		.byte	0x4
 2246 08b9 99       		.byte	0x99
 2247 08ba B0000000 		.4byte	0xb0
 2248 08be 25       		.uleb128 0x25
 2249 08bf 0C020000 		.4byte	.LASF98
 2250 08c3 05       		.byte	0x5
 2251 08c4 7D       		.byte	0x7d
 2252 08c5 6B000000 		.4byte	0x6b
 2253 08c9 26       		.uleb128 0x26
 2254 08ca 5B010000 		.4byte	.LASF92
 2255 08ce 05       		.byte	0x5
 2256 08cf 77       		.byte	0x77
 2257 08d0 DA080000 		.4byte	0x8da
 2258 08d4 27       		.uleb128 0x27
 2259 08d5 77000000 		.4byte	0x77
 2260 08d9 00       		.byte	0
 2261 08da 26       		.uleb128 0x26
 2262 08db 07000000 		.4byte	.LASF93
 2263 08df 05       		.byte	0x5
 2264 08e0 7E       		.byte	0x7e
 2265 08e1 EB080000 		.4byte	0x8eb
 2266 08e5 27       		.uleb128 0x27
 2267 08e6 6B000000 		.4byte	0x6b
 2268 08ea 00       		.byte	0
 2269 08eb 26       		.uleb128 0x26
 2270 08ec 26030000 		.4byte	.LASF94
 2271 08f0 05       		.byte	0x5
 2272 08f1 8B       		.byte	0x8b
 2273 08f2 01090000 		.4byte	0x901
 2274 08f6 27       		.uleb128 0x27
 2275 08f7 6B000000 		.4byte	0x6b
 2276 08fb 27       		.uleb128 0x27
 2277 08fc 6B000000 		.4byte	0x6b
 2278 0900 00       		.byte	0
ARM GAS  C:\Users\cruiser\AppData\Local\Temp\cc8SekaC.s 			page 85


 2279 0901 28       		.uleb128 0x28
 2280 0902 48020000 		.4byte	.LASF99
 2281 0906 05       		.byte	0x5
 2282 0907 88       		.byte	0x88
 2283 0908 C6000000 		.4byte	0xc6
 2284 090c 1B090000 		.4byte	0x91b
 2285 0910 27       		.uleb128 0x27
 2286 0911 6B000000 		.4byte	0x6b
 2287 0915 27       		.uleb128 0x27
 2288 0916 C6000000 		.4byte	0xc6
 2289 091a 00       		.byte	0
 2290 091b 29       		.uleb128 0x29
 2291 091c A3010000 		.4byte	.LASF100
 2292 0920 05       		.byte	0x5
 2293 0921 79       		.byte	0x79
 2294 0922 27       		.uleb128 0x27
 2295 0923 83000000 		.4byte	0x83
 2296 0927 00       		.byte	0
 2297 0928 00       		.byte	0
 2298              		.section	.debug_abbrev,"",%progbits
 2299              	.Ldebug_abbrev0:
 2300 0000 01       		.uleb128 0x1
 2301 0001 11       		.uleb128 0x11
 2302 0002 01       		.byte	0x1
 2303 0003 25       		.uleb128 0x25
 2304 0004 0E       		.uleb128 0xe
 2305 0005 13       		.uleb128 0x13
 2306 0006 0B       		.uleb128 0xb
 2307 0007 03       		.uleb128 0x3
 2308 0008 0E       		.uleb128 0xe
 2309 0009 1B       		.uleb128 0x1b
 2310 000a 0E       		.uleb128 0xe
 2311 000b 55       		.uleb128 0x55
 2312 000c 17       		.uleb128 0x17
 2313 000d 11       		.uleb128 0x11
 2314 000e 01       		.uleb128 0x1
 2315 000f 10       		.uleb128 0x10
 2316 0010 17       		.uleb128 0x17
 2317 0011 00       		.byte	0
 2318 0012 00       		.byte	0
 2319 0013 02       		.uleb128 0x2
 2320 0014 24       		.uleb128 0x24
 2321 0015 00       		.byte	0
 2322 0016 0B       		.uleb128 0xb
 2323 0017 0B       		.uleb128 0xb
 2324 0018 3E       		.uleb128 0x3e
 2325 0019 0B       		.uleb128 0xb
 2326 001a 03       		.uleb128 0x3
 2327 001b 0E       		.uleb128 0xe
 2328 001c 00       		.byte	0
 2329 001d 00       		.byte	0
 2330 001e 03       		.uleb128 0x3
 2331 001f 24       		.uleb128 0x24
 2332 0020 00       		.byte	0
 2333 0021 0B       		.uleb128 0xb
 2334 0022 0B       		.uleb128 0xb
 2335 0023 3E       		.uleb128 0x3e
ARM GAS  C:\Users\cruiser\AppData\Local\Temp\cc8SekaC.s 			page 86


 2336 0024 0B       		.uleb128 0xb
 2337 0025 03       		.uleb128 0x3
 2338 0026 08       		.uleb128 0x8
 2339 0027 00       		.byte	0
 2340 0028 00       		.byte	0
 2341 0029 04       		.uleb128 0x4
 2342 002a 16       		.uleb128 0x16
 2343 002b 00       		.byte	0
 2344 002c 03       		.uleb128 0x3
 2345 002d 0E       		.uleb128 0xe
 2346 002e 3A       		.uleb128 0x3a
 2347 002f 0B       		.uleb128 0xb
 2348 0030 3B       		.uleb128 0x3b
 2349 0031 05       		.uleb128 0x5
 2350 0032 49       		.uleb128 0x49
 2351 0033 13       		.uleb128 0x13
 2352 0034 00       		.byte	0
 2353 0035 00       		.byte	0
 2354 0036 05       		.uleb128 0x5
 2355 0037 35       		.uleb128 0x35
 2356 0038 00       		.byte	0
 2357 0039 49       		.uleb128 0x49
 2358 003a 13       		.uleb128 0x13
 2359 003b 00       		.byte	0
 2360 003c 00       		.byte	0
 2361 003d 06       		.uleb128 0x6
 2362 003e 0F       		.uleb128 0xf
 2363 003f 00       		.byte	0
 2364 0040 0B       		.uleb128 0xb
 2365 0041 0B       		.uleb128 0xb
 2366 0042 49       		.uleb128 0x49
 2367 0043 13       		.uleb128 0x13
 2368 0044 00       		.byte	0
 2369 0045 00       		.byte	0
 2370 0046 07       		.uleb128 0x7
 2371 0047 15       		.uleb128 0x15
 2372 0048 00       		.byte	0
 2373 0049 27       		.uleb128 0x27
 2374 004a 19       		.uleb128 0x19
 2375 004b 00       		.byte	0
 2376 004c 00       		.byte	0
 2377 004d 08       		.uleb128 0x8
 2378 004e 13       		.uleb128 0x13
 2379 004f 01       		.byte	0x1
 2380 0050 0B       		.uleb128 0xb
 2381 0051 0B       		.uleb128 0xb
 2382 0052 3A       		.uleb128 0x3a
 2383 0053 0B       		.uleb128 0xb
 2384 0054 3B       		.uleb128 0x3b
 2385 0055 0B       		.uleb128 0xb
 2386 0056 01       		.uleb128 0x1
 2387 0057 13       		.uleb128 0x13
 2388 0058 00       		.byte	0
 2389 0059 00       		.byte	0
 2390 005a 09       		.uleb128 0x9
 2391 005b 0D       		.uleb128 0xd
 2392 005c 00       		.byte	0
ARM GAS  C:\Users\cruiser\AppData\Local\Temp\cc8SekaC.s 			page 87


 2393 005d 03       		.uleb128 0x3
 2394 005e 0E       		.uleb128 0xe
 2395 005f 3A       		.uleb128 0x3a
 2396 0060 0B       		.uleb128 0xb
 2397 0061 3B       		.uleb128 0x3b
 2398 0062 0B       		.uleb128 0xb
 2399 0063 49       		.uleb128 0x49
 2400 0064 13       		.uleb128 0x13
 2401 0065 38       		.uleb128 0x38
 2402 0066 0B       		.uleb128 0xb
 2403 0067 00       		.byte	0
 2404 0068 00       		.byte	0
 2405 0069 0A       		.uleb128 0xa
 2406 006a 16       		.uleb128 0x16
 2407 006b 00       		.byte	0
 2408 006c 03       		.uleb128 0x3
 2409 006d 0E       		.uleb128 0xe
 2410 006e 3A       		.uleb128 0x3a
 2411 006f 0B       		.uleb128 0xb
 2412 0070 3B       		.uleb128 0x3b
 2413 0071 0B       		.uleb128 0xb
 2414 0072 49       		.uleb128 0x49
 2415 0073 13       		.uleb128 0x13
 2416 0074 00       		.byte	0
 2417 0075 00       		.byte	0
 2418 0076 0B       		.uleb128 0xb
 2419 0077 0D       		.uleb128 0xd
 2420 0078 00       		.byte	0
 2421 0079 03       		.uleb128 0x3
 2422 007a 08       		.uleb128 0x8
 2423 007b 3A       		.uleb128 0x3a
 2424 007c 0B       		.uleb128 0xb
 2425 007d 3B       		.uleb128 0x3b
 2426 007e 0B       		.uleb128 0xb
 2427 007f 49       		.uleb128 0x49
 2428 0080 13       		.uleb128 0x13
 2429 0081 38       		.uleb128 0x38
 2430 0082 0B       		.uleb128 0xb
 2431 0083 00       		.byte	0
 2432 0084 00       		.byte	0
 2433 0085 0C       		.uleb128 0xc
 2434 0086 01       		.uleb128 0x1
 2435 0087 01       		.byte	0x1
 2436 0088 49       		.uleb128 0x49
 2437 0089 13       		.uleb128 0x13
 2438 008a 01       		.uleb128 0x1
 2439 008b 13       		.uleb128 0x13
 2440 008c 00       		.byte	0
 2441 008d 00       		.byte	0
 2442 008e 0D       		.uleb128 0xd
 2443 008f 21       		.uleb128 0x21
 2444 0090 00       		.byte	0
 2445 0091 49       		.uleb128 0x49
 2446 0092 13       		.uleb128 0x13
 2447 0093 2F       		.uleb128 0x2f
 2448 0094 0B       		.uleb128 0xb
 2449 0095 00       		.byte	0
ARM GAS  C:\Users\cruiser\AppData\Local\Temp\cc8SekaC.s 			page 88


 2450 0096 00       		.byte	0
 2451 0097 0E       		.uleb128 0xe
 2452 0098 13       		.uleb128 0x13
 2453 0099 01       		.byte	0x1
 2454 009a 0B       		.uleb128 0xb
 2455 009b 0B       		.uleb128 0xb
 2456 009c 3A       		.uleb128 0x3a
 2457 009d 0B       		.uleb128 0xb
 2458 009e 3B       		.uleb128 0x3b
 2459 009f 05       		.uleb128 0x5
 2460 00a0 01       		.uleb128 0x1
 2461 00a1 13       		.uleb128 0x13
 2462 00a2 00       		.byte	0
 2463 00a3 00       		.byte	0
 2464 00a4 0F       		.uleb128 0xf
 2465 00a5 0D       		.uleb128 0xd
 2466 00a6 00       		.byte	0
 2467 00a7 03       		.uleb128 0x3
 2468 00a8 0E       		.uleb128 0xe
 2469 00a9 3A       		.uleb128 0x3a
 2470 00aa 0B       		.uleb128 0xb
 2471 00ab 3B       		.uleb128 0x3b
 2472 00ac 05       		.uleb128 0x5
 2473 00ad 49       		.uleb128 0x49
 2474 00ae 13       		.uleb128 0x13
 2475 00af 38       		.uleb128 0x38
 2476 00b0 0B       		.uleb128 0xb
 2477 00b1 00       		.byte	0
 2478 00b2 00       		.byte	0
 2479 00b3 10       		.uleb128 0x10
 2480 00b4 2E       		.uleb128 0x2e
 2481 00b5 01       		.byte	0x1
 2482 00b6 3F       		.uleb128 0x3f
 2483 00b7 19       		.uleb128 0x19
 2484 00b8 03       		.uleb128 0x3
 2485 00b9 0E       		.uleb128 0xe
 2486 00ba 3A       		.uleb128 0x3a
 2487 00bb 0B       		.uleb128 0xb
 2488 00bc 3B       		.uleb128 0x3b
 2489 00bd 0B       		.uleb128 0xb
 2490 00be 27       		.uleb128 0x27
 2491 00bf 19       		.uleb128 0x19
 2492 00c0 11       		.uleb128 0x11
 2493 00c1 01       		.uleb128 0x1
 2494 00c2 12       		.uleb128 0x12
 2495 00c3 06       		.uleb128 0x6
 2496 00c4 40       		.uleb128 0x40
 2497 00c5 18       		.uleb128 0x18
 2498 00c6 9742     		.uleb128 0x2117
 2499 00c8 19       		.uleb128 0x19
 2500 00c9 01       		.uleb128 0x1
 2501 00ca 13       		.uleb128 0x13
 2502 00cb 00       		.byte	0
 2503 00cc 00       		.byte	0
 2504 00cd 11       		.uleb128 0x11
 2505 00ce 34       		.uleb128 0x34
 2506 00cf 00       		.byte	0
ARM GAS  C:\Users\cruiser\AppData\Local\Temp\cc8SekaC.s 			page 89


 2507 00d0 03       		.uleb128 0x3
 2508 00d1 0E       		.uleb128 0xe
 2509 00d2 3A       		.uleb128 0x3a
 2510 00d3 0B       		.uleb128 0xb
 2511 00d4 3B       		.uleb128 0x3b
 2512 00d5 0B       		.uleb128 0xb
 2513 00d6 49       		.uleb128 0x49
 2514 00d7 13       		.uleb128 0x13
 2515 00d8 02       		.uleb128 0x2
 2516 00d9 17       		.uleb128 0x17
 2517 00da 00       		.byte	0
 2518 00db 00       		.byte	0
 2519 00dc 12       		.uleb128 0x12
 2520 00dd 898201   		.uleb128 0x4109
 2521 00e0 00       		.byte	0
 2522 00e1 11       		.uleb128 0x11
 2523 00e2 01       		.uleb128 0x1
 2524 00e3 31       		.uleb128 0x31
 2525 00e4 13       		.uleb128 0x13
 2526 00e5 00       		.byte	0
 2527 00e6 00       		.byte	0
 2528 00e7 13       		.uleb128 0x13
 2529 00e8 898201   		.uleb128 0x4109
 2530 00eb 01       		.byte	0x1
 2531 00ec 11       		.uleb128 0x11
 2532 00ed 01       		.uleb128 0x1
 2533 00ee 31       		.uleb128 0x31
 2534 00ef 13       		.uleb128 0x13
 2535 00f0 01       		.uleb128 0x1
 2536 00f1 13       		.uleb128 0x13
 2537 00f2 00       		.byte	0
 2538 00f3 00       		.byte	0
 2539 00f4 14       		.uleb128 0x14
 2540 00f5 8A8201   		.uleb128 0x410a
 2541 00f8 00       		.byte	0
 2542 00f9 02       		.uleb128 0x2
 2543 00fa 18       		.uleb128 0x18
 2544 00fb 9142     		.uleb128 0x2111
 2545 00fd 18       		.uleb128 0x18
 2546 00fe 00       		.byte	0
 2547 00ff 00       		.byte	0
 2548 0100 15       		.uleb128 0x15
 2549 0101 898201   		.uleb128 0x4109
 2550 0104 01       		.byte	0x1
 2551 0105 11       		.uleb128 0x11
 2552 0106 01       		.uleb128 0x1
 2553 0107 31       		.uleb128 0x31
 2554 0108 13       		.uleb128 0x13
 2555 0109 00       		.byte	0
 2556 010a 00       		.byte	0
 2557 010b 16       		.uleb128 0x16
 2558 010c 2E       		.uleb128 0x2e
 2559 010d 01       		.byte	0x1
 2560 010e 3F       		.uleb128 0x3f
 2561 010f 19       		.uleb128 0x19
 2562 0110 03       		.uleb128 0x3
 2563 0111 0E       		.uleb128 0xe
ARM GAS  C:\Users\cruiser\AppData\Local\Temp\cc8SekaC.s 			page 90


 2564 0112 3A       		.uleb128 0x3a
 2565 0113 0B       		.uleb128 0xb
 2566 0114 3B       		.uleb128 0x3b
 2567 0115 05       		.uleb128 0x5
 2568 0116 27       		.uleb128 0x27
 2569 0117 19       		.uleb128 0x19
 2570 0118 11       		.uleb128 0x11
 2571 0119 01       		.uleb128 0x1
 2572 011a 12       		.uleb128 0x12
 2573 011b 06       		.uleb128 0x6
 2574 011c 40       		.uleb128 0x40
 2575 011d 18       		.uleb128 0x18
 2576 011e 9742     		.uleb128 0x2117
 2577 0120 19       		.uleb128 0x19
 2578 0121 01       		.uleb128 0x1
 2579 0122 13       		.uleb128 0x13
 2580 0123 00       		.byte	0
 2581 0124 00       		.byte	0
 2582 0125 17       		.uleb128 0x17
 2583 0126 05       		.uleb128 0x5
 2584 0127 00       		.byte	0
 2585 0128 03       		.uleb128 0x3
 2586 0129 0E       		.uleb128 0xe
 2587 012a 3A       		.uleb128 0x3a
 2588 012b 0B       		.uleb128 0xb
 2589 012c 3B       		.uleb128 0x3b
 2590 012d 05       		.uleb128 0x5
 2591 012e 49       		.uleb128 0x49
 2592 012f 13       		.uleb128 0x13
 2593 0130 02       		.uleb128 0x2
 2594 0131 17       		.uleb128 0x17
 2595 0132 00       		.byte	0
 2596 0133 00       		.byte	0
 2597 0134 18       		.uleb128 0x18
 2598 0135 05       		.uleb128 0x5
 2599 0136 00       		.byte	0
 2600 0137 03       		.uleb128 0x3
 2601 0138 0E       		.uleb128 0xe
 2602 0139 3A       		.uleb128 0x3a
 2603 013a 0B       		.uleb128 0xb
 2604 013b 3B       		.uleb128 0x3b
 2605 013c 0B       		.uleb128 0xb
 2606 013d 49       		.uleb128 0x49
 2607 013e 13       		.uleb128 0x13
 2608 013f 02       		.uleb128 0x2
 2609 0140 17       		.uleb128 0x17
 2610 0141 00       		.byte	0
 2611 0142 00       		.byte	0
 2612 0143 19       		.uleb128 0x19
 2613 0144 2E       		.uleb128 0x2e
 2614 0145 00       		.byte	0
 2615 0146 3F       		.uleb128 0x3f
 2616 0147 19       		.uleb128 0x19
 2617 0148 03       		.uleb128 0x3
 2618 0149 0E       		.uleb128 0xe
 2619 014a 3A       		.uleb128 0x3a
 2620 014b 0B       		.uleb128 0xb
ARM GAS  C:\Users\cruiser\AppData\Local\Temp\cc8SekaC.s 			page 91


 2621 014c 3B       		.uleb128 0x3b
 2622 014d 05       		.uleb128 0x5
 2623 014e 27       		.uleb128 0x27
 2624 014f 19       		.uleb128 0x19
 2625 0150 11       		.uleb128 0x11
 2626 0151 01       		.uleb128 0x1
 2627 0152 12       		.uleb128 0x12
 2628 0153 06       		.uleb128 0x6
 2629 0154 40       		.uleb128 0x40
 2630 0155 18       		.uleb128 0x18
 2631 0156 9742     		.uleb128 0x2117
 2632 0158 19       		.uleb128 0x19
 2633 0159 00       		.byte	0
 2634 015a 00       		.byte	0
 2635 015b 1A       		.uleb128 0x1a
 2636 015c 34       		.uleb128 0x34
 2637 015d 00       		.byte	0
 2638 015e 03       		.uleb128 0x3
 2639 015f 0E       		.uleb128 0xe
 2640 0160 3A       		.uleb128 0x3a
 2641 0161 0B       		.uleb128 0xb
 2642 0162 3B       		.uleb128 0x3b
 2643 0163 05       		.uleb128 0x5
 2644 0164 49       		.uleb128 0x49
 2645 0165 13       		.uleb128 0x13
 2646 0166 02       		.uleb128 0x2
 2647 0167 17       		.uleb128 0x17
 2648 0168 00       		.byte	0
 2649 0169 00       		.byte	0
 2650 016a 1B       		.uleb128 0x1b
 2651 016b 2E       		.uleb128 0x2e
 2652 016c 01       		.byte	0x1
 2653 016d 3F       		.uleb128 0x3f
 2654 016e 19       		.uleb128 0x19
 2655 016f 03       		.uleb128 0x3
 2656 0170 0E       		.uleb128 0xe
 2657 0171 3A       		.uleb128 0x3a
 2658 0172 0B       		.uleb128 0xb
 2659 0173 3B       		.uleb128 0x3b
 2660 0174 05       		.uleb128 0x5
 2661 0175 27       		.uleb128 0x27
 2662 0176 19       		.uleb128 0x19
 2663 0177 49       		.uleb128 0x49
 2664 0178 13       		.uleb128 0x13
 2665 0179 11       		.uleb128 0x11
 2666 017a 01       		.uleb128 0x1
 2667 017b 12       		.uleb128 0x12
 2668 017c 06       		.uleb128 0x6
 2669 017d 40       		.uleb128 0x40
 2670 017e 18       		.uleb128 0x18
 2671 017f 9742     		.uleb128 0x2117
 2672 0181 19       		.uleb128 0x19
 2673 0182 01       		.uleb128 0x1
 2674 0183 13       		.uleb128 0x13
 2675 0184 00       		.byte	0
 2676 0185 00       		.byte	0
 2677 0186 1C       		.uleb128 0x1c
ARM GAS  C:\Users\cruiser\AppData\Local\Temp\cc8SekaC.s 			page 92


 2678 0187 2E       		.uleb128 0x2e
 2679 0188 00       		.byte	0
 2680 0189 3F       		.uleb128 0x3f
 2681 018a 19       		.uleb128 0x19
 2682 018b 03       		.uleb128 0x3
 2683 018c 0E       		.uleb128 0xe
 2684 018d 3A       		.uleb128 0x3a
 2685 018e 0B       		.uleb128 0xb
 2686 018f 3B       		.uleb128 0x3b
 2687 0190 05       		.uleb128 0x5
 2688 0191 27       		.uleb128 0x27
 2689 0192 19       		.uleb128 0x19
 2690 0193 49       		.uleb128 0x49
 2691 0194 13       		.uleb128 0x13
 2692 0195 11       		.uleb128 0x11
 2693 0196 01       		.uleb128 0x1
 2694 0197 12       		.uleb128 0x12
 2695 0198 06       		.uleb128 0x6
 2696 0199 40       		.uleb128 0x40
 2697 019a 18       		.uleb128 0x18
 2698 019b 9742     		.uleb128 0x2117
 2699 019d 19       		.uleb128 0x19
 2700 019e 00       		.byte	0
 2701 019f 00       		.byte	0
 2702 01a0 1D       		.uleb128 0x1d
 2703 01a1 34       		.uleb128 0x34
 2704 01a2 00       		.byte	0
 2705 01a3 03       		.uleb128 0x3
 2706 01a4 08       		.uleb128 0x8
 2707 01a5 3A       		.uleb128 0x3a
 2708 01a6 0B       		.uleb128 0xb
 2709 01a7 3B       		.uleb128 0x3b
 2710 01a8 05       		.uleb128 0x5
 2711 01a9 49       		.uleb128 0x49
 2712 01aa 13       		.uleb128 0x13
 2713 01ab 02       		.uleb128 0x2
 2714 01ac 17       		.uleb128 0x17
 2715 01ad 00       		.byte	0
 2716 01ae 00       		.byte	0
 2717 01af 1E       		.uleb128 0x1e
 2718 01b0 05       		.uleb128 0x5
 2719 01b1 00       		.byte	0
 2720 01b2 03       		.uleb128 0x3
 2721 01b3 0E       		.uleb128 0xe
 2722 01b4 3A       		.uleb128 0x3a
 2723 01b5 0B       		.uleb128 0xb
 2724 01b6 3B       		.uleb128 0x3b
 2725 01b7 05       		.uleb128 0x5
 2726 01b8 49       		.uleb128 0x49
 2727 01b9 13       		.uleb128 0x13
 2728 01ba 02       		.uleb128 0x2
 2729 01bb 18       		.uleb128 0x18
 2730 01bc 00       		.byte	0
 2731 01bd 00       		.byte	0
 2732 01be 1F       		.uleb128 0x1f
 2733 01bf 0B       		.uleb128 0xb
 2734 01c0 01       		.byte	0x1
ARM GAS  C:\Users\cruiser\AppData\Local\Temp\cc8SekaC.s 			page 93


 2735 01c1 55       		.uleb128 0x55
 2736 01c2 17       		.uleb128 0x17
 2737 01c3 00       		.byte	0
 2738 01c4 00       		.byte	0
 2739 01c5 20       		.uleb128 0x20
 2740 01c6 26       		.uleb128 0x26
 2741 01c7 00       		.byte	0
 2742 01c8 49       		.uleb128 0x49
 2743 01c9 13       		.uleb128 0x13
 2744 01ca 00       		.byte	0
 2745 01cb 00       		.byte	0
 2746 01cc 21       		.uleb128 0x21
 2747 01cd 0B       		.uleb128 0xb
 2748 01ce 01       		.byte	0x1
 2749 01cf 11       		.uleb128 0x11
 2750 01d0 01       		.uleb128 0x1
 2751 01d1 12       		.uleb128 0x12
 2752 01d2 06       		.uleb128 0x6
 2753 01d3 01       		.uleb128 0x1
 2754 01d4 13       		.uleb128 0x13
 2755 01d5 00       		.byte	0
 2756 01d6 00       		.byte	0
 2757 01d7 22       		.uleb128 0x22
 2758 01d8 34       		.uleb128 0x34
 2759 01d9 00       		.byte	0
 2760 01da 03       		.uleb128 0x3
 2761 01db 0E       		.uleb128 0xe
 2762 01dc 3A       		.uleb128 0x3a
 2763 01dd 0B       		.uleb128 0xb
 2764 01de 3B       		.uleb128 0x3b
 2765 01df 0B       		.uleb128 0xb
 2766 01e0 49       		.uleb128 0x49
 2767 01e1 13       		.uleb128 0x13
 2768 01e2 3F       		.uleb128 0x3f
 2769 01e3 19       		.uleb128 0x19
 2770 01e4 02       		.uleb128 0x2
 2771 01e5 18       		.uleb128 0x18
 2772 01e6 00       		.byte	0
 2773 01e7 00       		.byte	0
 2774 01e8 23       		.uleb128 0x23
 2775 01e9 34       		.uleb128 0x34
 2776 01ea 00       		.byte	0
 2777 01eb 03       		.uleb128 0x3
 2778 01ec 0E       		.uleb128 0xe
 2779 01ed 3A       		.uleb128 0x3a
 2780 01ee 0B       		.uleb128 0xb
 2781 01ef 3B       		.uleb128 0x3b
 2782 01f0 05       		.uleb128 0x5
 2783 01f1 49       		.uleb128 0x49
 2784 01f2 13       		.uleb128 0x13
 2785 01f3 3F       		.uleb128 0x3f
 2786 01f4 19       		.uleb128 0x19
 2787 01f5 3C       		.uleb128 0x3c
 2788 01f6 19       		.uleb128 0x19
 2789 01f7 00       		.byte	0
 2790 01f8 00       		.byte	0
 2791 01f9 24       		.uleb128 0x24
ARM GAS  C:\Users\cruiser\AppData\Local\Temp\cc8SekaC.s 			page 94


 2792 01fa 34       		.uleb128 0x34
 2793 01fb 00       		.byte	0
 2794 01fc 03       		.uleb128 0x3
 2795 01fd 0E       		.uleb128 0xe
 2796 01fe 3A       		.uleb128 0x3a
 2797 01ff 0B       		.uleb128 0xb
 2798 0200 3B       		.uleb128 0x3b
 2799 0201 0B       		.uleb128 0xb
 2800 0202 49       		.uleb128 0x49
 2801 0203 13       		.uleb128 0x13
 2802 0204 3F       		.uleb128 0x3f
 2803 0205 19       		.uleb128 0x19
 2804 0206 3C       		.uleb128 0x3c
 2805 0207 19       		.uleb128 0x19
 2806 0208 00       		.byte	0
 2807 0209 00       		.byte	0
 2808 020a 25       		.uleb128 0x25
 2809 020b 2E       		.uleb128 0x2e
 2810 020c 00       		.byte	0
 2811 020d 3F       		.uleb128 0x3f
 2812 020e 19       		.uleb128 0x19
 2813 020f 03       		.uleb128 0x3
 2814 0210 0E       		.uleb128 0xe
 2815 0211 3A       		.uleb128 0x3a
 2816 0212 0B       		.uleb128 0xb
 2817 0213 3B       		.uleb128 0x3b
 2818 0214 0B       		.uleb128 0xb
 2819 0215 27       		.uleb128 0x27
 2820 0216 19       		.uleb128 0x19
 2821 0217 49       		.uleb128 0x49
 2822 0218 13       		.uleb128 0x13
 2823 0219 3C       		.uleb128 0x3c
 2824 021a 19       		.uleb128 0x19
 2825 021b 00       		.byte	0
 2826 021c 00       		.byte	0
 2827 021d 26       		.uleb128 0x26
 2828 021e 2E       		.uleb128 0x2e
 2829 021f 01       		.byte	0x1
 2830 0220 3F       		.uleb128 0x3f
 2831 0221 19       		.uleb128 0x19
 2832 0222 03       		.uleb128 0x3
 2833 0223 0E       		.uleb128 0xe
 2834 0224 3A       		.uleb128 0x3a
 2835 0225 0B       		.uleb128 0xb
 2836 0226 3B       		.uleb128 0x3b
 2837 0227 0B       		.uleb128 0xb
 2838 0228 27       		.uleb128 0x27
 2839 0229 19       		.uleb128 0x19
 2840 022a 3C       		.uleb128 0x3c
 2841 022b 19       		.uleb128 0x19
 2842 022c 01       		.uleb128 0x1
 2843 022d 13       		.uleb128 0x13
 2844 022e 00       		.byte	0
 2845 022f 00       		.byte	0
 2846 0230 27       		.uleb128 0x27
 2847 0231 05       		.uleb128 0x5
 2848 0232 00       		.byte	0
ARM GAS  C:\Users\cruiser\AppData\Local\Temp\cc8SekaC.s 			page 95


 2849 0233 49       		.uleb128 0x49
 2850 0234 13       		.uleb128 0x13
 2851 0235 00       		.byte	0
 2852 0236 00       		.byte	0
 2853 0237 28       		.uleb128 0x28
 2854 0238 2E       		.uleb128 0x2e
 2855 0239 01       		.byte	0x1
 2856 023a 3F       		.uleb128 0x3f
 2857 023b 19       		.uleb128 0x19
 2858 023c 03       		.uleb128 0x3
 2859 023d 0E       		.uleb128 0xe
 2860 023e 3A       		.uleb128 0x3a
 2861 023f 0B       		.uleb128 0xb
 2862 0240 3B       		.uleb128 0x3b
 2863 0241 0B       		.uleb128 0xb
 2864 0242 27       		.uleb128 0x27
 2865 0243 19       		.uleb128 0x19
 2866 0244 49       		.uleb128 0x49
 2867 0245 13       		.uleb128 0x13
 2868 0246 3C       		.uleb128 0x3c
 2869 0247 19       		.uleb128 0x19
 2870 0248 01       		.uleb128 0x1
 2871 0249 13       		.uleb128 0x13
 2872 024a 00       		.byte	0
 2873 024b 00       		.byte	0
 2874 024c 29       		.uleb128 0x29
 2875 024d 2E       		.uleb128 0x2e
 2876 024e 01       		.byte	0x1
 2877 024f 3F       		.uleb128 0x3f
 2878 0250 19       		.uleb128 0x19
 2879 0251 03       		.uleb128 0x3
 2880 0252 0E       		.uleb128 0xe
 2881 0253 3A       		.uleb128 0x3a
 2882 0254 0B       		.uleb128 0xb
 2883 0255 3B       		.uleb128 0x3b
 2884 0256 0B       		.uleb128 0xb
 2885 0257 27       		.uleb128 0x27
 2886 0258 19       		.uleb128 0x19
 2887 0259 3C       		.uleb128 0x3c
 2888 025a 19       		.uleb128 0x19
 2889 025b 00       		.byte	0
 2890 025c 00       		.byte	0
 2891 025d 00       		.byte	0
 2892              		.section	.debug_loc,"",%progbits
 2893              	.Ldebug_loc0:
 2894              	.LLST0:
 2895 0000 08000000 		.4byte	.LVL1
 2896 0004 DA000000 		.4byte	.LVL15
 2897 0008 0100     		.2byte	0x1
 2898 000a 55       		.byte	0x55
 2899 000b 00000000 		.4byte	0
 2900 000f 00000000 		.4byte	0
 2901              	.LLST1:
 2902 0013 00000000 		.4byte	.LVL16
 2903 0017 6E000000 		.4byte	.LVL17
 2904 001b 0100     		.2byte	0x1
 2905 001d 50       		.byte	0x50
ARM GAS  C:\Users\cruiser\AppData\Local\Temp\cc8SekaC.s 			page 96


 2906 001e 6E000000 		.4byte	.LVL17
 2907 0022 AC000000 		.4byte	.LFE2
 2908 0026 0400     		.2byte	0x4
 2909 0028 F3       		.byte	0xf3
 2910 0029 01       		.uleb128 0x1
 2911 002a 50       		.byte	0x50
 2912 002b 9F       		.byte	0x9f
 2913 002c 00000000 		.4byte	0
 2914 0030 00000000 		.4byte	0
 2915              	.LLST2:
 2916 0034 00000000 		.4byte	.LVL16
 2917 0038 71000000 		.4byte	.LVL18-1
 2918 003c 0100     		.2byte	0x1
 2919 003e 51       		.byte	0x51
 2920 003f 71000000 		.4byte	.LVL18-1
 2921 0043 AC000000 		.4byte	.LFE2
 2922 0047 0400     		.2byte	0x4
 2923 0049 F3       		.byte	0xf3
 2924 004a 01       		.uleb128 0x1
 2925 004b 51       		.byte	0x51
 2926 004c 9F       		.byte	0x9f
 2927 004d 00000000 		.4byte	0
 2928 0051 00000000 		.4byte	0
 2929              	.LLST3:
 2930 0055 00000000 		.4byte	.LVL19
 2931 0059 0F000000 		.4byte	.LVL20-1
 2932 005d 0100     		.2byte	0x1
 2933 005f 50       		.byte	0x50
 2934 0060 0F000000 		.4byte	.LVL20-1
 2935 0064 24000000 		.4byte	.LFE0
 2936 0068 0400     		.2byte	0x4
 2937 006a F3       		.byte	0xf3
 2938 006b 01       		.uleb128 0x1
 2939 006c 50       		.byte	0x50
 2940 006d 9F       		.byte	0x9f
 2941 006e 00000000 		.4byte	0
 2942 0072 00000000 		.4byte	0
 2943              	.LLST4:
 2944 0076 00000000 		.4byte	.LVL19
 2945 007a 0F000000 		.4byte	.LVL20-1
 2946 007e 0100     		.2byte	0x1
 2947 0080 51       		.byte	0x51
 2948 0081 0F000000 		.4byte	.LVL20-1
 2949 0085 24000000 		.4byte	.LFE0
 2950 0089 0400     		.2byte	0x4
 2951 008b F3       		.byte	0xf3
 2952 008c 01       		.uleb128 0x1
 2953 008d 51       		.byte	0x51
 2954 008e 9F       		.byte	0x9f
 2955 008f 00000000 		.4byte	0
 2956 0093 00000000 		.4byte	0
 2957              	.LLST5:
 2958 0097 06000000 		.4byte	.LVL22
 2959 009b 35000000 		.4byte	.LVL23-1
 2960 009f 0100     		.2byte	0x1
 2961 00a1 50       		.byte	0x50
 2962 00a2 00000000 		.4byte	0
ARM GAS  C:\Users\cruiser\AppData\Local\Temp\cc8SekaC.s 			page 97


 2963 00a6 00000000 		.4byte	0
 2964              	.LLST6:
 2965 00aa 06000000 		.4byte	.LVL24
 2966 00ae 10000000 		.4byte	.LVL25
 2967 00b2 0100     		.2byte	0x1
 2968 00b4 53       		.byte	0x53
 2969 00b5 00000000 		.4byte	0
 2970 00b9 00000000 		.4byte	0
 2971              	.LLST7:
 2972 00bd 00000000 		.4byte	.LVL26
 2973 00c1 10000000 		.4byte	.LVL27
 2974 00c5 0200     		.2byte	0x2
 2975 00c7 30       		.byte	0x30
 2976 00c8 9F       		.byte	0x9f
 2977 00c9 10000000 		.4byte	.LVL27
 2978 00cd 16000000 		.4byte	.LVL28
 2979 00d1 0100     		.2byte	0x1
 2980 00d3 50       		.byte	0x50
 2981 00d4 16000000 		.4byte	.LVL28
 2982 00d8 18000000 		.4byte	.LVL29
 2983 00dc 0200     		.2byte	0x2
 2984 00de 30       		.byte	0x30
 2985 00df 9F       		.byte	0x9f
 2986 00e0 18000000 		.4byte	.LVL29
 2987 00e4 20000000 		.4byte	.LFE7
 2988 00e8 0100     		.2byte	0x1
 2989 00ea 50       		.byte	0x50
 2990 00eb 00000000 		.4byte	0
 2991 00ef 00000000 		.4byte	0
 2992              	.LLST8:
 2993 00f3 00000000 		.4byte	.LVL30
 2994 00f7 04000000 		.4byte	.LVL31
 2995 00fb 0100     		.2byte	0x1
 2996 00fd 50       		.byte	0x50
 2997 00fe 04000000 		.4byte	.LVL31
 2998 0102 0C000000 		.4byte	.LFE8
 2999 0106 0400     		.2byte	0x4
 3000 0108 F3       		.byte	0xf3
 3001 0109 01       		.uleb128 0x1
 3002 010a 50       		.byte	0x50
 3003 010b 9F       		.byte	0x9f
 3004 010c 00000000 		.4byte	0
 3005 0110 00000000 		.4byte	0
 3006              	.LLST9:
 3007 0114 00000000 		.4byte	.LVL32
 3008 0118 04000000 		.4byte	.LVL33
 3009 011c 0100     		.2byte	0x1
 3010 011e 50       		.byte	0x50
 3011 011f 04000000 		.4byte	.LVL33
 3012 0123 14000000 		.4byte	.LFE9
 3013 0127 0400     		.2byte	0x4
 3014 0129 F3       		.byte	0xf3
 3015 012a 01       		.uleb128 0x1
 3016 012b 50       		.byte	0x50
 3017 012c 9F       		.byte	0x9f
 3018 012d 00000000 		.4byte	0
 3019 0131 00000000 		.4byte	0
ARM GAS  C:\Users\cruiser\AppData\Local\Temp\cc8SekaC.s 			page 98


 3020              	.LLST10:
 3021 0135 00000000 		.4byte	.LVL34
 3022 0139 0C000000 		.4byte	.LVL35
 3023 013d 0100     		.2byte	0x1
 3024 013f 50       		.byte	0x50
 3025 0140 0C000000 		.4byte	.LVL35
 3026 0144 20000000 		.4byte	.LVL40
 3027 0148 0400     		.2byte	0x4
 3028 014a F3       		.byte	0xf3
 3029 014b 01       		.uleb128 0x1
 3030 014c 50       		.byte	0x50
 3031 014d 9F       		.byte	0x9f
 3032 014e 20000000 		.4byte	.LVL40
 3033 0152 22000000 		.4byte	.LVL41
 3034 0156 0100     		.2byte	0x1
 3035 0158 50       		.byte	0x50
 3036 0159 22000000 		.4byte	.LVL41
 3037 015d 28000000 		.4byte	.LFE10
 3038 0161 0400     		.2byte	0x4
 3039 0163 F3       		.byte	0xf3
 3040 0164 01       		.uleb128 0x1
 3041 0165 50       		.byte	0x50
 3042 0166 9F       		.byte	0x9f
 3043 0167 00000000 		.4byte	0
 3044 016b 00000000 		.4byte	0
 3045              	.LLST11:
 3046 016f 00000000 		.4byte	.LVL34
 3047 0173 14000000 		.4byte	.LVL36
 3048 0177 0200     		.2byte	0x2
 3049 0179 30       		.byte	0x30
 3050 017a 9F       		.byte	0x9f
 3051 017b 14000000 		.4byte	.LVL36
 3052 017f 1C000000 		.4byte	.LVL38
 3053 0183 0100     		.2byte	0x1
 3054 0185 50       		.byte	0x50
 3055 0186 1C000000 		.4byte	.LVL38
 3056 018a 1E000000 		.4byte	.LVL39
 3057 018e 0300     		.2byte	0x3
 3058 0190 70       		.byte	0x70
 3059 0191 02       		.sleb128 2
 3060 0192 9F       		.byte	0x9f
 3061 0193 1E000000 		.4byte	.LVL39
 3062 0197 20000000 		.4byte	.LVL40
 3063 019b 0100     		.2byte	0x1
 3064 019d 50       		.byte	0x50
 3065 019e 20000000 		.4byte	.LVL40
 3066 01a2 22000000 		.4byte	.LVL41
 3067 01a6 0200     		.2byte	0x2
 3068 01a8 30       		.byte	0x30
 3069 01a9 9F       		.byte	0x9f
 3070 01aa 22000000 		.4byte	.LVL41
 3071 01ae 28000000 		.4byte	.LFE10
 3072 01b2 0100     		.2byte	0x1
 3073 01b4 50       		.byte	0x50
 3074 01b5 00000000 		.4byte	0
 3075 01b9 00000000 		.4byte	0
 3076              	.LLST12:
ARM GAS  C:\Users\cruiser\AppData\Local\Temp\cc8SekaC.s 			page 99


 3077 01bd 00000000 		.4byte	.LVL42
 3078 01c1 7A000000 		.4byte	.LVL52
 3079 01c5 0100     		.2byte	0x1
 3080 01c7 50       		.byte	0x50
 3081 01c8 7A000000 		.4byte	.LVL52
 3082 01cc 94000000 		.4byte	.LFE11
 3083 01d0 0400     		.2byte	0x4
 3084 01d2 F3       		.byte	0xf3
 3085 01d3 01       		.uleb128 0x1
 3086 01d4 50       		.byte	0x50
 3087 01d5 9F       		.byte	0x9f
 3088 01d6 00000000 		.4byte	0
 3089 01da 00000000 		.4byte	0
 3090              	.LLST13:
 3091 01de 00000000 		.4byte	.LVL42
 3092 01e2 2C000000 		.4byte	.LVL43
 3093 01e6 0100     		.2byte	0x1
 3094 01e8 52       		.byte	0x52
 3095 01e9 2C000000 		.4byte	.LVL43
 3096 01ed 32000000 		.4byte	.LVL44
 3097 01f1 0400     		.2byte	0x4
 3098 01f3 F3       		.byte	0xf3
 3099 01f4 01       		.uleb128 0x1
 3100 01f5 52       		.byte	0x52
 3101 01f6 9F       		.byte	0x9f
 3102 01f7 32000000 		.4byte	.LVL44
 3103 01fb 6E000000 		.4byte	.LVL51
 3104 01ff 0100     		.2byte	0x1
 3105 0201 52       		.byte	0x52
 3106 0202 00000000 		.4byte	0
 3107 0206 00000000 		.4byte	0
 3108              	.LLST14:
 3109 020a 52000000 		.4byte	.LVL45
 3110 020e 5C000000 		.4byte	.LVL46
 3111 0212 0100     		.2byte	0x1
 3112 0214 53       		.byte	0x53
 3113 0215 5E000000 		.4byte	.LVL47
 3114 0219 60000000 		.4byte	.LVL48
 3115 021d 0100     		.2byte	0x1
 3116 021f 53       		.byte	0x53
 3117 0220 62000000 		.4byte	.LVL49
 3118 0224 66000000 		.4byte	.LVL50
 3119 0228 0100     		.2byte	0x1
 3120 022a 53       		.byte	0x53
 3121 022b 00000000 		.4byte	0
 3122 022f 00000000 		.4byte	0
 3123              	.LLST15:
 3124 0233 00000000 		.4byte	.LVL53
 3125 0237 1C000000 		.4byte	.LVL54
 3126 023b 0100     		.2byte	0x1
 3127 023d 50       		.byte	0x50
 3128 023e 1C000000 		.4byte	.LVL54
 3129 0242 2C000000 		.4byte	.LFE13
 3130 0246 0400     		.2byte	0x4
 3131 0248 F3       		.byte	0xf3
 3132 0249 01       		.uleb128 0x1
 3133 024a 50       		.byte	0x50
ARM GAS  C:\Users\cruiser\AppData\Local\Temp\cc8SekaC.s 			page 100


 3134 024b 9F       		.byte	0x9f
 3135 024c 00000000 		.4byte	0
 3136 0250 00000000 		.4byte	0
 3137              	.LLST16:
 3138 0254 00000000 		.4byte	.LVL55
 3139 0258 13000000 		.4byte	.LVL56-1
 3140 025c 0100     		.2byte	0x1
 3141 025e 50       		.byte	0x50
 3142 025f 13000000 		.4byte	.LVL56-1
 3143 0263 3C000000 		.4byte	.LVL63
 3144 0267 0400     		.2byte	0x4
 3145 0269 F3       		.byte	0xf3
 3146 026a 01       		.uleb128 0x1
 3147 026b 50       		.byte	0x50
 3148 026c 9F       		.byte	0x9f
 3149 026d 3C000000 		.4byte	.LVL63
 3150 0271 46000000 		.4byte	.LVL64
 3151 0275 0100     		.2byte	0x1
 3152 0277 50       		.byte	0x50
 3153 0278 46000000 		.4byte	.LVL64
 3154 027c 50000000 		.4byte	.LFE12
 3155 0280 0400     		.2byte	0x4
 3156 0282 F3       		.byte	0xf3
 3157 0283 01       		.uleb128 0x1
 3158 0284 50       		.byte	0x50
 3159 0285 9F       		.byte	0x9f
 3160 0286 00000000 		.4byte	0
 3161 028a 00000000 		.4byte	0
 3162              	.LLST17:
 3163 028e 00000000 		.4byte	.LVL55
 3164 0292 13000000 		.4byte	.LVL56-1
 3165 0296 0100     		.2byte	0x1
 3166 0298 51       		.byte	0x51
 3167 0299 13000000 		.4byte	.LVL56-1
 3168 029d 3C000000 		.4byte	.LVL63
 3169 02a1 0100     		.2byte	0x1
 3170 02a3 56       		.byte	0x56
 3171 02a4 3C000000 		.4byte	.LVL63
 3172 02a8 46000000 		.4byte	.LVL64
 3173 02ac 0100     		.2byte	0x1
 3174 02ae 51       		.byte	0x51
 3175 02af 46000000 		.4byte	.LVL64
 3176 02b3 50000000 		.4byte	.LFE12
 3177 02b7 0400     		.2byte	0x4
 3178 02b9 F3       		.byte	0xf3
 3179 02ba 01       		.uleb128 0x1
 3180 02bb 51       		.byte	0x51
 3181 02bc 9F       		.byte	0x9f
 3182 02bd 00000000 		.4byte	0
 3183 02c1 00000000 		.4byte	0
 3184              	.LLST18:
 3185 02c5 00000000 		.4byte	.LVL55
 3186 02c9 13000000 		.4byte	.LVL56-1
 3187 02cd 0100     		.2byte	0x1
 3188 02cf 52       		.byte	0x52
 3189 02d0 13000000 		.4byte	.LVL56-1
 3190 02d4 20000000 		.4byte	.LVL58
ARM GAS  C:\Users\cruiser\AppData\Local\Temp\cc8SekaC.s 			page 101


 3191 02d8 0400     		.2byte	0x4
 3192 02da F3       		.byte	0xf3
 3193 02db 01       		.uleb128 0x1
 3194 02dc 52       		.byte	0x52
 3195 02dd 9F       		.byte	0x9f
 3196 02de 20000000 		.4byte	.LVL58
 3197 02e2 3C000000 		.4byte	.LVL63
 3198 02e6 0100     		.2byte	0x1
 3199 02e8 54       		.byte	0x54
 3200 02e9 3C000000 		.4byte	.LVL63
 3201 02ed 46000000 		.4byte	.LVL64
 3202 02f1 0100     		.2byte	0x1
 3203 02f3 52       		.byte	0x52
 3204 02f4 46000000 		.4byte	.LVL64
 3205 02f8 4A000000 		.4byte	.LVL65
 3206 02fc 0100     		.2byte	0x1
 3207 02fe 54       		.byte	0x54
 3208 02ff 00000000 		.4byte	0
 3209 0303 00000000 		.4byte	0
 3210              	.LLST19:
 3211 0307 20000000 		.4byte	.LVL58
 3212 030b 24000000 		.4byte	.LVL59
 3213 030f 0200     		.2byte	0x2
 3214 0311 30       		.byte	0x30
 3215 0312 9F       		.byte	0x9f
 3216 0313 24000000 		.4byte	.LVL59
 3217 0317 2E000000 		.4byte	.LVL60
 3218 031b 0100     		.2byte	0x1
 3219 031d 53       		.byte	0x53
 3220 031e 30000000 		.4byte	.LVL61
 3221 0322 39000000 		.4byte	.LVL62-1
 3222 0326 0100     		.2byte	0x1
 3223 0328 53       		.byte	0x53
 3224 0329 00000000 		.4byte	0
 3225 032d 00000000 		.4byte	0
 3226              	.LLST20:
 3227 0331 00000000 		.4byte	.LVL66
 3228 0335 0A000000 		.4byte	.LVL67
 3229 0339 0100     		.2byte	0x1
 3230 033b 50       		.byte	0x50
 3231 033c 0A000000 		.4byte	.LVL67
 3232 0340 18000000 		.4byte	.LFE14
 3233 0344 0400     		.2byte	0x4
 3234 0346 F3       		.byte	0xf3
 3235 0347 01       		.uleb128 0x1
 3236 0348 50       		.byte	0x50
 3237 0349 9F       		.byte	0x9f
 3238 034a 00000000 		.4byte	0
 3239 034e 00000000 		.4byte	0
 3240              	.LLST21:
 3241 0352 00000000 		.4byte	.LVL69
 3242 0356 0A000000 		.4byte	.LVL70
 3243 035a 0100     		.2byte	0x1
 3244 035c 50       		.byte	0x50
 3245 035d 0A000000 		.4byte	.LVL70
 3246 0361 16000000 		.4byte	.LVL72
 3247 0365 0400     		.2byte	0x4
ARM GAS  C:\Users\cruiser\AppData\Local\Temp\cc8SekaC.s 			page 102


 3248 0367 F3       		.byte	0xf3
 3249 0368 01       		.uleb128 0x1
 3250 0369 50       		.byte	0x50
 3251 036a 9F       		.byte	0x9f
 3252 036b 16000000 		.4byte	.LVL72
 3253 036f 18000000 		.4byte	.LVL73
 3254 0373 0100     		.2byte	0x1
 3255 0375 50       		.byte	0x50
 3256 0376 18000000 		.4byte	.LVL73
 3257 037a 20000000 		.4byte	.LFE16
 3258 037e 0400     		.2byte	0x4
 3259 0380 F3       		.byte	0xf3
 3260 0381 01       		.uleb128 0x1
 3261 0382 50       		.byte	0x50
 3262 0383 9F       		.byte	0x9f
 3263 0384 00000000 		.4byte	0
 3264 0388 00000000 		.4byte	0
 3265              	.LLST22:
 3266 038c 00000000 		.4byte	.LVL69
 3267 0390 14000000 		.4byte	.LVL71
 3268 0394 0200     		.2byte	0x2
 3269 0396 30       		.byte	0x30
 3270 0397 9F       		.byte	0x9f
 3271 0398 14000000 		.4byte	.LVL71
 3272 039c 16000000 		.4byte	.LVL72
 3273 03a0 0100     		.2byte	0x1
 3274 03a2 50       		.byte	0x50
 3275 03a3 16000000 		.4byte	.LVL72
 3276 03a7 18000000 		.4byte	.LVL73
 3277 03ab 0200     		.2byte	0x2
 3278 03ad 30       		.byte	0x30
 3279 03ae 9F       		.byte	0x9f
 3280 03af 18000000 		.4byte	.LVL73
 3281 03b3 20000000 		.4byte	.LFE16
 3282 03b7 0100     		.2byte	0x1
 3283 03b9 50       		.byte	0x50
 3284 03ba 00000000 		.4byte	0
 3285 03be 00000000 		.4byte	0
 3286              	.LLST23:
 3287 03c2 00000000 		.4byte	.LVL75
 3288 03c6 10000000 		.4byte	.LVL76
 3289 03ca 0200     		.2byte	0x2
 3290 03cc 30       		.byte	0x30
 3291 03cd 9F       		.byte	0x9f
 3292 03ce 10000000 		.4byte	.LVL76
 3293 03d2 18000000 		.4byte	.LFE18
 3294 03d6 0100     		.2byte	0x1
 3295 03d8 50       		.byte	0x50
 3296 03d9 00000000 		.4byte	0
 3297 03dd 00000000 		.4byte	0
 3298              		.section	.debug_aranges,"",%progbits
 3299 0000 C4000000 		.4byte	0xc4
 3300 0004 0200     		.2byte	0x2
 3301 0006 00000000 		.4byte	.Ldebug_info0
 3302 000a 04       		.byte	0x4
 3303 000b 00       		.byte	0
 3304 000c 0000     		.2byte	0
ARM GAS  C:\Users\cruiser\AppData\Local\Temp\cc8SekaC.s 			page 103


 3305 000e 0000     		.2byte	0
 3306 0010 00000000 		.4byte	.LFB1
 3307 0014 04010000 		.4byte	.LFE1-.LFB1
 3308 0018 00000000 		.4byte	.LFB2
 3309 001c AC000000 		.4byte	.LFE2-.LFB2
 3310 0020 00000000 		.4byte	.LFB0
 3311 0024 24000000 		.4byte	.LFE0-.LFB0
 3312 0028 00000000 		.4byte	.LFB3
 3313 002c 4C000000 		.4byte	.LFE3-.LFB3
 3314 0030 00000000 		.4byte	.LFB4
 3315 0034 84000000 		.4byte	.LFE4-.LFB4
 3316 0038 00000000 		.4byte	.LFB5
 3317 003c 20000000 		.4byte	.LFE5-.LFB5
 3318 0040 00000000 		.4byte	.LFB6
 3319 0044 0C000000 		.4byte	.LFE6-.LFB6
 3320 0048 00000000 		.4byte	.LFB7
 3321 004c 20000000 		.4byte	.LFE7-.LFB7
 3322 0050 00000000 		.4byte	.LFB8
 3323 0054 0C000000 		.4byte	.LFE8-.LFB8
 3324 0058 00000000 		.4byte	.LFB9
 3325 005c 14000000 		.4byte	.LFE9-.LFB9
 3326 0060 00000000 		.4byte	.LFB10
 3327 0064 28000000 		.4byte	.LFE10-.LFB10
 3328 0068 00000000 		.4byte	.LFB11
 3329 006c 94000000 		.4byte	.LFE11-.LFB11
 3330 0070 00000000 		.4byte	.LFB13
 3331 0074 2C000000 		.4byte	.LFE13-.LFB13
 3332 0078 00000000 		.4byte	.LFB12
 3333 007c 50000000 		.4byte	.LFE12-.LFB12
 3334 0080 00000000 		.4byte	.LFB14
 3335 0084 18000000 		.4byte	.LFE14-.LFB14
 3336 0088 00000000 		.4byte	.LFB15
 3337 008c 0C000000 		.4byte	.LFE15-.LFB15
 3338 0090 00000000 		.4byte	.LFB16
 3339 0094 20000000 		.4byte	.LFE16-.LFB16
 3340 0098 00000000 		.4byte	.LFB17
 3341 009c 20000000 		.4byte	.LFE17-.LFB17
 3342 00a0 00000000 		.4byte	.LFB18
 3343 00a4 18000000 		.4byte	.LFE18-.LFB18
 3344 00a8 00000000 		.4byte	.LFB19
 3345 00ac 10000000 		.4byte	.LFE19-.LFB19
 3346 00b0 00000000 		.4byte	.LFB20
 3347 00b4 02000000 		.4byte	.LFE20-.LFB20
 3348 00b8 00000000 		.4byte	.LFB21
 3349 00bc 02000000 		.4byte	.LFE21-.LFB21
 3350 00c0 00000000 		.4byte	0
 3351 00c4 00000000 		.4byte	0
 3352              		.section	.debug_ranges,"",%progbits
 3353              	.Ldebug_ranges0:
 3354 0000 50000000 		.4byte	.LBB2
 3355 0004 60000000 		.4byte	.LBE2
 3356 0008 62000000 		.4byte	.LBB3
 3357 000c 66000000 		.4byte	.LBE3
 3358 0010 00000000 		.4byte	0
 3359 0014 00000000 		.4byte	0
 3360 0018 00000000 		.4byte	.LFB1
 3361 001c 04010000 		.4byte	.LFE1
ARM GAS  C:\Users\cruiser\AppData\Local\Temp\cc8SekaC.s 			page 104


 3362 0020 00000000 		.4byte	.LFB2
 3363 0024 AC000000 		.4byte	.LFE2
 3364 0028 00000000 		.4byte	.LFB0
 3365 002c 24000000 		.4byte	.LFE0
 3366 0030 00000000 		.4byte	.LFB3
 3367 0034 4C000000 		.4byte	.LFE3
 3368 0038 00000000 		.4byte	.LFB4
 3369 003c 84000000 		.4byte	.LFE4
 3370 0040 00000000 		.4byte	.LFB5
 3371 0044 20000000 		.4byte	.LFE5
 3372 0048 00000000 		.4byte	.LFB6
 3373 004c 0C000000 		.4byte	.LFE6
 3374 0050 00000000 		.4byte	.LFB7
 3375 0054 20000000 		.4byte	.LFE7
 3376 0058 00000000 		.4byte	.LFB8
 3377 005c 0C000000 		.4byte	.LFE8
 3378 0060 00000000 		.4byte	.LFB9
 3379 0064 14000000 		.4byte	.LFE9
 3380 0068 00000000 		.4byte	.LFB10
 3381 006c 28000000 		.4byte	.LFE10
 3382 0070 00000000 		.4byte	.LFB11
 3383 0074 94000000 		.4byte	.LFE11
 3384 0078 00000000 		.4byte	.LFB13
 3385 007c 2C000000 		.4byte	.LFE13
 3386 0080 00000000 		.4byte	.LFB12
 3387 0084 50000000 		.4byte	.LFE12
 3388 0088 00000000 		.4byte	.LFB14
 3389 008c 18000000 		.4byte	.LFE14
 3390 0090 00000000 		.4byte	.LFB15
 3391 0094 0C000000 		.4byte	.LFE15
 3392 0098 00000000 		.4byte	.LFB16
 3393 009c 20000000 		.4byte	.LFE16
 3394 00a0 00000000 		.4byte	.LFB17
 3395 00a4 20000000 		.4byte	.LFE17
 3396 00a8 00000000 		.4byte	.LFB18
 3397 00ac 18000000 		.4byte	.LFE18
 3398 00b0 00000000 		.4byte	.LFB19
 3399 00b4 10000000 		.4byte	.LFE19
 3400 00b8 00000000 		.4byte	.LFB20
 3401 00bc 02000000 		.4byte	.LFE20
 3402 00c0 00000000 		.4byte	.LFB21
 3403 00c4 02000000 		.4byte	.LFE21
 3404 00c8 00000000 		.4byte	0
 3405 00cc 00000000 		.4byte	0
 3406              		.section	.debug_line,"",%progbits
 3407              	.Ldebug_line0:
 3408 0000 AE020000 		.section	.debug_str,"MS",%progbits,1
 3408      02006300 
 3408      00000201 
 3408      FB0E0D00 
 3408      01010101 
 3409              	.LASF10:
 3410 0000 75696E74 		.ascii	"uint16\000"
 3410      313600
 3411              	.LASF93:
 3412 0007 43794578 		.ascii	"CyExitCriticalSection\000"
 3412      69744372 
ARM GAS  C:\Users\cruiser\AppData\Local\Temp\cc8SekaC.s 			page 105


 3412      69746963 
 3412      616C5365 
 3412      6374696F 
 3413              	.LASF48:
 3414 001d 5553425F 		.ascii	"USB_InitComponent\000"
 3414      496E6974 
 3414      436F6D70 
 3414      6F6E656E 
 3414      7400
 3415              	.LASF68:
 3416 002f 5553425F 		.ascii	"USB_DisableOutEP\000"
 3416      44697361 
 3416      626C654F 
 3416      75744550 
 3416      00
 3417              	.LASF84:
 3418 0040 5553425F 		.ascii	"USB_configuration\000"
 3418      636F6E66 
 3418      69677572 
 3418      6174696F 
 3418      6E00
 3419              	.LASF91:
 3420 0052 5553425F 		.ascii	"USB_lastPacketSize\000"
 3420      6C617374 
 3420      5061636B 
 3420      65745369 
 3420      7A6500
 3421              	.LASF83:
 3422 0065 5553425F 		.ascii	"USB_transferState\000"
 3422      7472616E 
 3422      73666572 
 3422      53746174 
 3422      6500
 3423              	.LASF7:
 3424 0077 6C6F6E67 		.ascii	"long long unsigned int\000"
 3424      206C6F6E 
 3424      6720756E 
 3424      7369676E 
 3424      65642069 
 3425              	.LASF23:
 3426 008e 61646472 		.ascii	"addr\000"
 3426      00
 3427              	.LASF33:
 3428 0093 65704366 		.ascii	"epCfg\000"
 3428      6700
 3429              	.LASF88:
 3430 0099 5553425F 		.ascii	"USB_interfaceSetting\000"
 3430      696E7465 
 3430      72666163 
 3430      65536574 
 3430      74696E67 
 3431              	.LASF28:
 3432 00ae 545F5553 		.ascii	"T_USB_EP_CTL_BLOCK\000"
 3432      425F4550 
 3432      5F43544C 
 3432      5F424C4F 
 3432      434B00
ARM GAS  C:\Users\cruiser\AppData\Local\Temp\cc8SekaC.s 			page 106


 3433              	.LASF79:
 3434 00c1 5553425F 		.ascii	"USB_EnableSofInt\000"
 3434      456E6162 
 3434      6C65536F 
 3434      66496E74 
 3434      00
 3435              	.LASF60:
 3436 00d2 65704E75 		.ascii	"epNumber\000"
 3436      6D626572 
 3436      00
 3437              	.LASF52:
 3438 00db 5553425F 		.ascii	"USB_Stop\000"
 3438      53746F70 
 3438      00
 3439              	.LASF49:
 3440 00e4 64657669 		.ascii	"device\000"
 3440      636500
 3441              	.LASF6:
 3442 00eb 6C6F6E67 		.ascii	"long long int\000"
 3442      206C6F6E 
 3442      6720696E 
 3442      7400
 3443              	.LASF0:
 3444 00f9 7369676E 		.ascii	"signed char\000"
 3444      65642063 
 3444      68617200 
 3445              	.LASF66:
 3446 0105 5553425F 		.ascii	"USB_EnableOutEP\000"
 3446      456E6162 
 3446      6C654F75 
 3446      74455000 
 3447              	.LASF74:
 3448 0115 5553425F 		.ascii	"USB_RWUEnabled\000"
 3448      52575545 
 3448      6E61626C 
 3448      656400
 3449              	.LASF62:
 3450 0124 636E7472 		.ascii	"cntr\000"
 3450      00
 3451              	.LASF4:
 3452 0129 6C6F6E67 		.ascii	"long int\000"
 3452      20696E74 
 3452      00
 3453              	.LASF77:
 3454 0132 5553425F 		.ascii	"USB_GetDeviceAddress\000"
 3454      47657444 
 3454      65766963 
 3454      65416464 
 3454      72657373 
 3455              	.LASF9:
 3456 0147 75696E74 		.ascii	"uint8\000"
 3456      3800
 3457              	.LASF22:
 3458 014d 6570546F 		.ascii	"epToggle\000"
 3458      67676C65 
 3458      00
 3459              	.LASF37:
ARM GAS  C:\Users\cruiser\AppData\Local\Temp\cc8SekaC.s 			page 107


 3460 0156 72775761 		.ascii	"rwWa\000"
 3460      00
 3461              	.LASF92:
 3462 015b 43794465 		.ascii	"CyDelayUs\000"
 3462      6C617955 
 3462      7300
 3463              	.LASF13:
 3464 0165 646F7562 		.ascii	"double\000"
 3464      6C6500
 3465              	.LASF73:
 3466 016c 706F7765 		.ascii	"powerStatus\000"
 3466      72537461 
 3466      74757300 
 3467              	.LASF35:
 3468 0178 65705372 		.ascii	"epSr\000"
 3468      00
 3469              	.LASF96:
 3470 017d 2E5C4765 		.ascii	".\\Generated_Source\\PSoC5\\USB.c\000"
 3470      6E657261 
 3470      7465645F 
 3470      536F7572 
 3470      63655C50 
 3471              	.LASF11:
 3472 019c 75696E74 		.ascii	"uint32\000"
 3472      333200
 3473              	.LASF100:
 3474 01a3 43794465 		.ascii	"CyDelayCycles\000"
 3474      6C617943 
 3474      79636C65 
 3474      7300
 3475              	.LASF87:
 3476 01b1 5553425F 		.ascii	"USB_interfaceNumber\000"
 3476      696E7465 
 3476      72666163 
 3476      654E756D 
 3476      62657200 
 3477              	.LASF64:
 3478 01c5 70446174 		.ascii	"pData\000"
 3478      6100
 3479              	.LASF24:
 3480 01cb 65704D6F 		.ascii	"epMode\000"
 3480      646500
 3481              	.LASF36:
 3482 01d2 72657365 		.ascii	"reserved\000"
 3482      72766564 
 3482      00
 3483              	.LASF71:
 3484 01db 5553425F 		.ascii	"USB_GetEPAckState\000"
 3484      47657445 
 3484      5041636B 
 3484      53746174 
 3484      6500
 3485              	.LASF8:
 3486 01ed 756E7369 		.ascii	"unsigned int\000"
 3486      676E6564 
 3486      20696E74 
 3486      00
ARM GAS  C:\Users\cruiser\AppData\Local\Temp\cc8SekaC.s 			page 108


 3487              	.LASF5:
 3488 01fa 6C6F6E67 		.ascii	"long unsigned int\000"
 3488      20756E73 
 3488      69676E65 
 3488      6420696E 
 3488      7400
 3489              	.LASF98:
 3490 020c 4379456E 		.ascii	"CyEnterCriticalSection\000"
 3490      74657243 
 3490      72697469 
 3490      63616C53 
 3490      65637469 
 3491              	.LASF80:
 3492 0223 5553425F 		.ascii	"USB_DisableSofInt\000"
 3492      44697361 
 3492      626C6553 
 3492      6F66496E 
 3492      7400
 3493              	.LASF3:
 3494 0235 73686F72 		.ascii	"short unsigned int\000"
 3494      7420756E 
 3494      7369676E 
 3494      65642069 
 3494      6E7400
 3495              	.LASF99:
 3496 0248 4379496E 		.ascii	"CyIntSetVector\000"
 3496      74536574 
 3496      56656374 
 3496      6F7200
 3497              	.LASF51:
 3498 0257 5553425F 		.ascii	"USB_Start\000"
 3498      53746172 
 3498      7400
 3499              	.LASF45:
 3500 0261 61726245 		.ascii	"arbEp\000"
 3500      7000
 3501              	.LASF27:
 3502 0267 696E7465 		.ascii	"interface\000"
 3502      72666163 
 3502      6500
 3503              	.LASF54:
 3504 0271 63723152 		.ascii	"cr1Reg\000"
 3504      656700
 3505              	.LASF16:
 3506 0278 72656733 		.ascii	"reg32\000"
 3506      3200
 3507              	.LASF86:
 3508 027e 5553425F 		.ascii	"USB_deviceStatus\000"
 3508      64657669 
 3508      63655374 
 3508      61747573 
 3508      00
 3509              	.LASF44:
 3510 028f 5553425F 		.ascii	"USB_sie_eps_struct\000"
 3510      7369655F 
 3510      6570735F 
 3510      73747275 
ARM GAS  C:\Users\cruiser\AppData\Local\Temp\cc8SekaC.s 			page 109


 3510      637400
 3511              	.LASF46:
 3512 02a2 5553425F 		.ascii	"USB_arb_eps_struct\000"
 3512      6172625F 
 3512      6570735F 
 3512      73747275 
 3512      637400
 3513              	.LASF21:
 3514 02b5 68774570 		.ascii	"hwEpState\000"
 3514      53746174 
 3514      6500
 3515              	.LASF18:
 3516 02bf 73697A65 		.ascii	"sizetype\000"
 3516      74797065 
 3516      00
 3517              	.LASF43:
 3518 02c8 73696545 		.ascii	"sieEp\000"
 3518      7000
 3519              	.LASF19:
 3520 02ce 61747472 		.ascii	"attrib\000"
 3520      696200
 3521              	.LASF47:
 3522 02d5 5553425F 		.ascii	"USB_Init\000"
 3522      496E6974 
 3522      00
 3523              	.LASF72:
 3524 02de 5553425F 		.ascii	"USB_SetPowerStatus\000"
 3524      53657450 
 3524      6F776572 
 3524      53746174 
 3524      757300
 3525              	.LASF82:
 3526 02f1 5553425F 		.ascii	"USB_device\000"
 3526      64657669 
 3526      636500
 3527              	.LASF40:
 3528 02fc 72775261 		.ascii	"rwRaMsb\000"
 3528      4D736200 
 3529              	.LASF63:
 3530 0304 5553425F 		.ascii	"USB_LoadInEP\000"
 3530      4C6F6164 
 3530      496E4550 
 3530      00
 3531              	.LASF29:
 3532 0311 6570436E 		.ascii	"epCnt0\000"
 3532      743000
 3533              	.LASF30:
 3534 0318 6570436E 		.ascii	"epCnt1\000"
 3534      743100
 3535              	.LASF90:
 3536 031f 5553425F 		.ascii	"USB_EP\000"
 3536      455000
 3537              	.LASF94:
 3538 0326 4379496E 		.ascii	"CyIntSetPriority\000"
 3538      74536574 
 3538      5072696F 
 3538      72697479 
ARM GAS  C:\Users\cruiser\AppData\Local\Temp\cc8SekaC.s 			page 110


 3538      00
 3539              	.LASF31:
 3540 0337 65704372 		.ascii	"epCr0\000"
 3540      3000
 3541              	.LASF12:
 3542 033d 666C6F61 		.ascii	"float\000"
 3542      7400
 3543              	.LASF20:
 3544 0343 61706945 		.ascii	"apiEpState\000"
 3544      70537461 
 3544      746500
 3545              	.LASF89:
 3546 034e 5553425F 		.ascii	"USB_deviceAddress\000"
 3546      64657669 
 3546      63654164 
 3546      64726573 
 3546      7300
 3547              	.LASF76:
 3548 0360 5553425F 		.ascii	"USB_GetConfiguration\000"
 3548      47657443 
 3548      6F6E6669 
 3548      67757261 
 3548      74696F6E 
 3549              	.LASF42:
 3550 0375 5553425F 		.ascii	"USB_arb_ep_struct\000"
 3550      6172625F 
 3550      65705F73 
 3550      74727563 
 3550      7400
 3551              	.LASF15:
 3552 0387 72656738 		.ascii	"reg8\000"
 3552      00
 3553              	.LASF55:
 3554 038c 5553425F 		.ascii	"USB_CheckActivity\000"
 3554      43686563 
 3554      6B416374 
 3554      69766974 
 3554      7900
 3555              	.LASF1:
 3556 039e 756E7369 		.ascii	"unsigned char\000"
 3556      676E6564 
 3556      20636861 
 3556      7200
 3557              	.LASF57:
 3558 03ac 5553425F 		.ascii	"USB_GetInterfaceSetting\000"
 3558      47657449 
 3558      6E746572 
 3558      66616365 
 3558      53657474 
 3559              	.LASF2:
 3560 03c4 73686F72 		.ascii	"short int\000"
 3560      7420696E 
 3560      7400
 3561              	.LASF78:
 3562 03ce 5553425F 		.ascii	"USB_ReInitComponent\000"
 3562      5265496E 
 3562      6974436F 
ARM GAS  C:\Users\cruiser\AppData\Local\Temp\cc8SekaC.s 			page 111


 3562      6D706F6E 
 3562      656E7400 
 3563              	.LASF81:
 3564 03e2 5553425F 		.ascii	"USB_initVar\000"
 3564      696E6974 
 3564      56617200 
 3565              	.LASF67:
 3566 03ee 5553425F 		.ascii	"USB_ReadOutEP\000"
 3566      52656164 
 3566      4F757445 
 3566      5000
 3567              	.LASF39:
 3568 03fc 72775261 		.ascii	"rwRa\000"
 3568      00
 3569              	.LASF38:
 3570 0401 72775761 		.ascii	"rwWaMsb\000"
 3570      4D736200 
 3571              	.LASF56:
 3572 0409 5553425F 		.ascii	"USB_IsConfigurationChanged\000"
 3572      4973436F 
 3572      6E666967 
 3572      75726174 
 3572      696F6E43 
 3573              	.LASF69:
 3574 0424 5553425F 		.ascii	"USB_Force\000"
 3574      466F7263 
 3574      6500
 3575              	.LASF97:
 3576 042e 433A5C55 		.ascii	"C:\\Users\\cruiser\\Documents\\PSoC Creator\\Voltro"
 3576      73657273 
 3576      5C637275 
 3576      69736572 
 3576      5C446F63 
 3577 045c 6E5C566F 		.ascii	"n\\Voltron Main.cydsn\000"
 3577      6C74726F 
 3577      6E204D61 
 3577      696E2E63 
 3577      7964736E 
 3578              	.LASF70:
 3579 0471 62537461 		.ascii	"bState\000"
 3579      746500
 3580              	.LASF65:
 3581 0478 6C656E67 		.ascii	"length\000"
 3581      746800
 3582              	.LASF14:
 3583 047f 63686172 		.ascii	"char\000"
 3583      00
 3584              	.LASF50:
 3585 0484 6D6F6465 		.ascii	"mode\000"
 3585      00
 3586              	.LASF17:
 3587 0489 63796973 		.ascii	"cyisraddress\000"
 3587      72616464 
 3587      72657373 
 3587      00
 3588              	.LASF26:
 3589 0496 62756666 		.ascii	"bufferSize\000"
ARM GAS  C:\Users\cruiser\AppData\Local\Temp\cc8SekaC.s 			page 112


 3589      65725369 
 3589      7A6500
 3590              	.LASF25:
 3591 04a1 62756666 		.ascii	"buffOffset\000"
 3591      4F666673 
 3591      657400
 3592              	.LASF58:
 3593 04ac 696E7465 		.ascii	"interfaceNumber\000"
 3593      72666163 
 3593      654E756D 
 3593      62657200 
 3594              	.LASF59:
 3595 04bc 5553425F 		.ascii	"USB_GetEPState\000"
 3595      47657445 
 3595      50537461 
 3595      746500
 3596              	.LASF32:
 3597 04cb 5553425F 		.ascii	"USB_sie_ep_struct\000"
 3597      7369655F 
 3597      65705F73 
 3597      74727563 
 3597      7400
 3598              	.LASF53:
 3599 04dd 656E6162 		.ascii	"enableInterrupts\000"
 3599      6C65496E 
 3599      74657272 
 3599      75707473 
 3599      00
 3600              	.LASF95:
 3601 04ee 474E5520 		.ascii	"GNU C 4.9.3 20150303 (release) [ARM/embedded-4_9-br"
 3601      4320342E 
 3601      392E3320 
 3601      32303135 
 3601      30333033 
 3602 0521 616E6368 		.ascii	"anch revision 221220] -mcpu=cortex-m3 -mthumb -g -O"
 3602      20726576 
 3602      6973696F 
 3602      6E203232 
 3602      31323230 
 3603 0554 67202D66 		.ascii	"g -ffunction-sections -ffat-lto-objects\000"
 3603      66756E63 
 3603      74696F6E 
 3603      2D736563 
 3603      74696F6E 
 3604              	.LASF41:
 3605 057c 72774472 		.ascii	"rwDr\000"
 3605      00
 3606              	.LASF34:
 3607 0581 6570496E 		.ascii	"epIntEn\000"
 3607      74456E00 
 3608              	.LASF61:
 3609 0589 5553425F 		.ascii	"USB_GetEPCount\000"
 3609      47657445 
 3609      50436F75 
 3609      6E7400
 3610              	.LASF85:
 3611 0598 5553425F 		.ascii	"USB_configurationChanged\000"
ARM GAS  C:\Users\cruiser\AppData\Local\Temp\cc8SekaC.s 			page 113


 3611      636F6E66 
 3611      69677572 
 3611      6174696F 
 3611      6E436861 
 3612              	.LASF75:
 3613 05b1 72657375 		.ascii	"result\000"
 3613      6C7400
 3614              		.ident	"GCC: (GNU Tools for ARM Embedded Processors) 4.9.3 20150303 (release) [ARM/embedded-4_9-br
